 CinderProjectEx1

 Timestamp is 50a2f1f2 (Tue Nov 13 17:20:50 2012)

 Preferred load address is 00400000

 Start         Length     Name                   Class
 0001:00000000 00117df6H .text                   CODE
 0001:00117e00 0000899dH .text$x                 CODE
 0001:001207a0 00000d4cH .text$yc                CODE
 0001:001214f0 0000052aH .text$yd                CODE
 0002:00000000 00000324H .idata$5                DATA
 0002:00000324 00000004H .CRT$XCA                DATA
 0002:00000328 0000000cH .CRT$XCC                DATA
 0002:00000334 00000008H .CRT$XCL                DATA
 0002:0000033c 0000023cH .CRT$XCU                DATA
 0002:00000578 00000004H .CRT$XCZ                DATA
 0002:0000057c 00000004H .CRT$XIA                DATA
 0002:00000580 00000014H .CRT$XIC                DATA
 0002:00000594 00000004H .CRT$XID                DATA
 0002:00000598 00000004H .CRT$XIU                DATA
 0002:0000059c 00000004H .CRT$XIY                DATA
 0002:000005a0 00000004H .CRT$XIZ                DATA
 0002:000005a4 00000004H .CRT$XLA                DATA
 0002:000005a8 00000004H .CRT$XLC                DATA
 0002:000005ac 00000004H .CRT$XLZ                DATA
 0002:000005b0 00000004H .CRT$XPA                DATA
 0002:000005b4 00000008H .CRT$XPX                DATA
 0002:000005bc 00000004H .CRT$XPXA               DATA
 0002:000005c0 00000004H .CRT$XPZ                DATA
 0002:000005c4 00000004H .CRT$XTA                DATA
 0002:000005c8 00000004H .CRT$XTU                DATA
 0002:000005cc 00000004H .CRT$XTZ                DATA
 0002:000005d0 00035628H .rdata                  DATA
 0002:00035bf8 00000018H .rdata$T                DATA
 0002:00035c10 0000372cH .rdata$r                DATA
 0002:00039340 000006b0H .rdata$sxdata           DATA
 0002:000399f0 00000004H .rtc$IAA                DATA
 0002:000399f4 00000004H .rtc$IZZ                DATA
 0002:000399f8 00000004H .rtc$TAA                DATA
 0002:000399fc 00000004H .rtc$TZZ                DATA
 0002:00039a00 0000972cH .xdata$x                DATA
 0002:0004312c 000000a0H .idata$2                DATA
 0002:000431cc 00000014H .idata$3                DATA
 0002:000431e0 00000320H .idata$4                DATA
 0002:00043500 00000da2H .idata$6                DATA
 0002:000442a2 00000000H .edata                  DATA
 0003:00000000 00012fbcH .data                   DATA
 0003:00012fc0 000043ecH .bss                    DATA
 0004:00000000 00000001H .tls                    DATA
 0004:00000001 00000001H .tls$ZZZ                DATA
 0005:00000000 00000258H .rsrc$01                DATA
 0005:00000260 0000aeb8H .rsrc$02                DATA

  Address         Publics by Value              Rva+Base       Lib:Object

 0000:00000000       __except_list              00000000     <absolute>
 0000:000001ac       ___safe_se_handler_count   000001ac     <absolute>
 0000:00000000       ___ImageBase               00400000     <linker-defined>
 0001:00000000       ??1bad_alloc@std@@UAE@XZ   00401000 f i CinderProjectEx1App.obj
 0001:00000010       ??_Ebad_alloc@std@@UAEPAXI@Z 00401010 f i  CIL library: CIL module
 0001:00000010       ??_Gbad_alloc@std@@UAEPAXI@Z 00401010 f i CinderProjectEx1App.obj
 0001:00000040       ??1runtime_error@std@@UAE@XZ 00401040 f i CinderProjectEx1App.obj
 0001:00000040       ??1failure@ios_base@std@@UAE@XZ 00401040 f i CinderProjectEx1App.obj
 0001:00000040       ??1TextureDataExc@gl@cinder@@UAE@XZ 00401040 f i cinder:Texture.obj
 0001:00000050       ??0_Locinfo@std@@QAE@PBD@Z 00401050 f i CinderProjectEx1App.obj
 0001:00000100       ??1_Locinfo@std@@QAE@XZ    00401100 f i CinderProjectEx1App.obj
 0001:000001b0       ??0runtime_error@std@@QAE@ABV01@@Z 004011b0 f i CinderProjectEx1App.obj
 0001:000001d0       ??Bid@locale@std@@QAEIXZ   004011d0 f i CinderProjectEx1App.obj
 0001:00000210       ?_Incref@facet@locale@std@@QAEXXZ 00401210 f i CinderProjectEx1App.obj
 0001:00000240       ?_Decref@facet@locale@std@@QAEPAV123@XZ 00401240 f i CinderProjectEx1App.obj
 0001:00000280       ??1locale@std@@QAE@XZ      00401280 f i CinderProjectEx1App.obj
 0001:000002d0       ?_Getfacet@locale@std@@QBEPBVfacet@12@I@Z 004012d0 f i CinderProjectEx1App.obj
 0001:00000310       ?clear@ios_base@std@@QAEXH_N@Z 00401310 f i CinderProjectEx1App.obj
 0001:00000410       ?getloc@ios_base@std@@QBE?AVlocale@2@XZ 00401410 f i CinderProjectEx1App.obj
 0001:00000450       ??_Gsystem_error@std@@UAEPAXI@Z 00401450 f i CinderProjectEx1App.obj
 0001:00000450       ??_Glogic_error@std@@UAEPAXI@Z 00401450 f i cinder:Area.obj
 0001:00000450       ??_Eruntime_error@std@@UAEPAXI@Z 00401450 f i  CIL library: CIL module
 0001:00000450       ??_Gfailure@ios_base@std@@UAEPAXI@Z 00401450 f i CinderProjectEx1App.obj
 0001:00000450       ??_Esystem_error@std@@UAEPAXI@Z 00401450 f i  CIL library: CIL module
 0001:00000450       ??_GTextureDataExc@gl@cinder@@UAEPAXI@Z 00401450 f i cinder:Texture.obj
 0001:00000450       ??_Gruntime_error@std@@UAEPAXI@Z 00401450 f i CinderProjectEx1App.obj
 0001:00000450       ??_Elogic_error@std@@UAEPAXI@Z 00401450 f i cinder:Area.obj
 0001:00000450       ??_ETextureDataExc@gl@cinder@@UAEPAXI@Z 00401450 f i cinder:Texture.obj
 0001:00000450       ??_Efailure@ios_base@std@@UAEPAXI@Z 00401450 f i  CIL library: CIL module
 0001:00000480       ??0failure@ios_base@std@@QAE@ABV012@@Z 00401480 f i CinderProjectEx1App.obj
 0001:000004b0       ??0system_error@std@@QAE@ABV01@@Z 004014b0 f i CinderProjectEx1App.obj
 0001:000004e0       ??1?$basic_string@_WU?$char_traits@_W@std@@V?$allocator@_W@2@@std@@QAE@XZ 004014e0 f i CinderProjectEx1App.obj
 0001:000004e0       ??1path@filesystem3@boost@@QAE@XZ 004014e0 f i CinderProjectEx1App.obj
 0001:00000510       ??1ResizeEvent@app@cinder@@UAE@XZ 00401510 f i CinderProjectEx1App.obj
 0001:00000510       ??1MouseEvent@app@cinder@@UAE@XZ 00401510 f i CinderProjectEx1App.obj
 0001:00000510       ??1KeyEvent@app@cinder@@UAE@XZ 00401510 f i CinderProjectEx1App.obj
 0001:00000510       ??1Event@app@cinder@@UAE@XZ 00401510 f i CinderProjectEx1App.obj
 0001:00000520       ??1FileDropEvent@app@cinder@@UAE@XZ 00401520 f i CinderProjectEx1App.obj
 0001:00000570       ?mouseMove@App@app@cinder@@UAEXVMouseEvent@23@@Z 00401570 f i CinderProjectEx1App.obj
 0001:00000570       ?mouseWheel@App@app@cinder@@UAEXVMouseEvent@23@@Z 00401570 f i CinderProjectEx1App.obj
 0001:00000570       ?mouseUp@App@app@cinder@@UAEXVMouseEvent@23@@Z 00401570 f i CinderProjectEx1App.obj
 0001:00000570       ?mouseDown@App@app@cinder@@UAEXVMouseEvent@23@@Z 00401570 f i CinderProjectEx1App.obj
 0001:00000570       ?mouseDrag@App@app@cinder@@UAEXVMouseEvent@23@@Z 00401570 f i CinderProjectEx1App.obj
 0001:00000580       ?keyDown@App@app@cinder@@UAEXVKeyEvent@23@@Z 00401580 f i cinder:AppBasic.obj
 0001:00000580       ?keyUp@App@app@cinder@@UAEXVKeyEvent@23@@Z 00401580 f i CinderProjectEx1App.obj
 0001:00000590       ?resize@App@app@cinder@@UAEXVResizeEvent@23@@Z 00401590 f i CinderProjectEx1App.obj
 0001:000005a0       ?fileDrop@App@app@cinder@@UAEXVFileDropEvent@23@@Z 004015a0 f i CinderProjectEx1App.obj
 0001:000005d0       ??1TouchEvent@app@cinder@@UAE@XZ 004015d0 f i CinderProjectEx1App.obj
 0001:00000600       ?touchesBegan@AppBasic@app@cinder@@UAEXVTouchEvent@23@@Z 00401600 f i CinderProjectEx1App.obj
 0001:00000600       ?touchesMoved@AppBasic@app@cinder@@UAEXVTouchEvent@23@@Z 00401600 f i CinderProjectEx1App.obj
 0001:00000600       ?touchesEnded@AppBasic@app@cinder@@UAEXVTouchEvent@23@@Z 00401600 f i CinderProjectEx1App.obj
 0001:00000620       ?getSettings@AppBasic@app@cinder@@UBEABVSettings@123@XZ 00401620 f i CinderProjectEx1App.obj
 0001:00000630       ??1Capture@cinder@@QAE@XZ  00401630 f i CinderProjectEx1App.obj
 0001:00000670       ??0Mat@cv@@QAE@XZ          00401670 f i CinderProjectEx1App.obj
 0001:000006b0       ??0Mat@cv@@QAE@HHH@Z       004016b0 f i CinderProjectEx1App.obj
 0001:00000740       ??1Mat@cv@@QAE@XZ          00401740 f i CinderProjectEx1App.obj
 0001:00000790       ??4Mat@cv@@QAEAAV01@ABV01@@Z 00401790 f i CinderProjectEx1App.obj
 0001:00000860       ?create@Mat@cv@@QAEXHHH@Z  00401860 f i CinderProjectEx1App.obj
 0001:000008c0       ?release@Mat@cv@@QAEXXZ    004018c0 f i CinderProjectEx1App.obj
 0001:00000900       ?elemSize@Mat@cv@@QBEIXZ   00401900 f i CinderProjectEx1App.obj
 0001:00000920       ?total@Mat@cv@@QBEIXZ      00401920 f i CinderProjectEx1App.obj
 0001:00000950       ??0MatConstIterator@cv@@QAE@PBVMat@1@@Z 00401950 f i CinderProjectEx1App.obj
 0001:000009d0       ?setup@CinderProjectEx1App@@UAEXXZ 004019d0 f   CinderProjectEx1App.obj
 0001:00000dd0       ??4Capture@cinder@@QAEAAV01@ABV01@@Z 00401dd0 f i CinderProjectEx1App.obj
 0001:00000e40       ??4Texture@gl@cinder@@QAEAAV012@ABV012@@Z 00401e40 f i CinderProjectEx1App.obj
 0001:00000ea0       ?keyDown@CinderProjectEx1App@@UAEXVKeyEvent@app@cinder@@@Z 00401ea0 f   CinderProjectEx1App.obj
 0001:00000f90       ?update@CinderProjectEx1App@@UAEXXZ 00401f90 f   CinderProjectEx1App.obj
 0001:00000fa0       ?draw@CinderProjectEx1App@@UAEXXZ 00401fa0 f   CinderProjectEx1App.obj
 0001:00001070       ?updateColorPalette@CinderProjectEx1App@@QAEXXZ 00402070 f   CinderProjectEx1App.obj
 0001:000012b0       ?drawBlendedMask@CinderProjectEx1App@@QAEXXZ 004022b0 f   CinderProjectEx1App.obj
 0001:000013e0       ?updateImage@CinderProjectEx1App@@QAEXXZ 004023e0 f   CinderProjectEx1App.obj
 0001:00001b10       _WinMain@16                00402b10 f   CinderProjectEx1App.obj
 0001:00001b70       ??0CinderProjectEx1App@@QAE@XZ 00402b70 f i CinderProjectEx1App.obj
 0001:00001c00       ??_ECinderProjectEx1App@@UAEPAXI@Z 00402c00 f i  CIL library: CIL module
 0001:00001c00       ??_GCinderProjectEx1App@@UAEPAXI@Z 00402c00 f i CinderProjectEx1App.obj
 0001:00001c30       ??1CinderProjectEx1App@@UAE@XZ 00402c30 f i CinderProjectEx1App.obj
 0001:00001d40       ??0?$basic_string@DU?$char_traits@D@std@@V?$allocator@D@2@@std@@QAE@PBD@Z 00402d40 f i CinderProjectEx1App.obj
 0001:00001d80       ??1?$pair@$$CBV?$basic_string@DU?$char_traits@D@std@@V?$allocator@D@2@@std@@PBU_GUID@@@std@@QAE@XZ 00402d80 f i cinder:ImageTargetFileWic.obj
 0001:00001d80       ??1?$basic_string@DU?$char_traits@D@std@@V?$allocator@D@2@@std@@QAE@XZ 00402d80 f i CinderProjectEx1App.obj
 0001:00001db0       ??1?$_Yarn@D@std@@QAE@XZ   00402db0 f i CinderProjectEx1App.obj
 0001:00001dd0       ??6?$basic_ostream@DU?$char_traits@D@std@@@std@@QAEAAV01@H@Z 00402dd0 f i CinderProjectEx1App.obj
 0001:00001fb0       ?put@?$basic_ostream@DU?$char_traits@D@std@@@std@@QAEAAV12@D@Z 00402fb0 f i CinderProjectEx1App.obj
 0001:00002120       ?flush@?$basic_ostream@DU?$char_traits@D@std@@@std@@QAEAAV12@XZ 00403120 f i CinderProjectEx1App.obj
 0001:00002170       ??0?$shared_ptr@VDevice@Capture@cinder@@@tr1@std@@QAE@ABV012@@Z 00403170 f i CinderProjectEx1App.obj
 0001:00002170       ??0?$shared_ptr@UObj@Texture@gl@cinder@@@tr1@std@@QAE@ABV012@@Z 00403170 f i CinderProjectEx1App.obj
 0001:000021e0       ??0?$vector@V?$shared_ptr@VDevice@Capture@cinder@@@tr1@std@@V?$allocator@V?$shared_ptr@VDevice@Capture@cinder@@@tr1@std@@@3@@std@@QAE@ABV01@@Z 004031e0 f i CinderProjectEx1App.obj
 0001:000022a0       ??1?$vector@V?$shared_ptr@E@tr1@std@@V?$allocator@V?$shared_ptr@E@tr1@std@@@3@@std@@QAE@XZ 004032a0 f i cinder:CaptureImplDirectShow.obj
 0001:000022a0       ??1?$vector@V?$shared_ptr@VDevice@Capture@cinder@@@tr1@std@@V?$allocator@V?$shared_ptr@VDevice@Capture@cinder@@@tr1@std@@@3@@std@@QAE@XZ 004032a0 f i CinderProjectEx1App.obj
 0001:000022a0       ?_Tidy@?$vector@V?$shared_ptr@VDevice@Capture@cinder@@@tr1@std@@V?$allocator@V?$shared_ptr@VDevice@Capture@cinder@@@tr1@std@@@3@@std@@IAEXXZ 004032a0 f i CinderProjectEx1App.obj
 0001:000022f0       ?assign@?$basic_string@DU?$char_traits@D@std@@V?$allocator@D@2@@std@@QAEAAV12@$$QAV12@@Z 004032f0 f i CinderProjectEx1App.obj
 0001:00002370       ?assign@?$basic_string@DU?$char_traits@D@std@@V?$allocator@D@2@@std@@QAEAAV12@ABV12@II@Z 00403370 f i CinderProjectEx1App.obj
 0001:00002460       ?_Tidy@?$basic_string@DU?$char_traits@D@std@@V?$allocator@D@2@@std@@QAEX_NI@Z 00403460 f i CinderProjectEx1App.obj
 0001:000024b0       ?allocate@?$allocator@E@std@@QAEPAEI@Z 004034b0 f i opencv_core230:matrix.obj
 0001:000024b0       ?allocate@?$allocator@D@std@@QAEPADI@Z 004034b0 f i CinderProjectEx1App.obj
 0001:00002500       ?_Tidy@?$basic_string@_WU?$char_traits@_W@std@@V?$allocator@_W@2@@std@@QAEX_NI@Z 00403500 f i CinderProjectEx1App.obj
 0001:00002550       ?_Pnavail@?$basic_streambuf@DU?$char_traits@D@std@@@std@@IBE_JXZ 00403550 f i CinderProjectEx1App.obj
 0001:00002570       ?_Tidy@?$vector@Vpath@filesystem3@boost@@V?$allocator@Vpath@filesystem3@boost@@@std@@@std@@IAEXXZ 00403570 f i CinderProjectEx1App.obj
 0001:00002570       ??1?$vector@Vpath@filesystem3@boost@@V?$allocator@Vpath@filesystem3@boost@@@std@@@std@@QAE@XZ 00403570 f i CinderProjectEx1App.obj
 0001:000025b0       ??0Iter@?$SurfaceT@E@cinder@@QAE@AAV12@ABV?$AreaT@H@2@@Z 004035b0 f i CinderProjectEx1App.obj
 0001:00002680       ??1sentry@?$basic_ostream@DU?$char_traits@D@std@@@std@@QAE@XZ 00403680 f i CinderProjectEx1App.obj
 0001:000026f0       ?do_put@?$num_put@DV?$ostreambuf_iterator@DU?$char_traits@D@std@@@std@@@std@@MBE?AV?$ostreambuf_iterator@DU?$char_traits@D@std@@@2@V32@AAVios_base@2@D_N@Z 004036f0 f i CinderProjectEx1App.obj
 0001:00002940       ?do_put@?$num_put@DV?$ostreambuf_iterator@DU?$char_traits@D@std@@@std@@@std@@MBE?AV?$ostreambuf_iterator@DU?$char_traits@D@std@@@2@V32@AAVios_base@2@DJ@Z 00403940 f i CinderProjectEx1App.obj
 0001:000029c0       ?do_put@?$num_put@DV?$ostreambuf_iterator@DU?$char_traits@D@std@@@std@@@std@@MBE?AV?$ostreambuf_iterator@DU?$char_traits@D@std@@@2@V32@AAVios_base@2@DK@Z 004039c0 f i CinderProjectEx1App.obj
 0001:00002a40       ?do_put@?$num_put@DV?$ostreambuf_iterator@DU?$char_traits@D@std@@@std@@@std@@MBE?AV?$ostreambuf_iterator@DU?$char_traits@D@std@@@2@V32@AAVios_base@2@D_J@Z 00403a40 f i CinderProjectEx1App.obj
 0001:00002ad0       ?do_put@?$num_put@DV?$ostreambuf_iterator@DU?$char_traits@D@std@@@std@@@std@@MBE?AV?$ostreambuf_iterator@DU?$char_traits@D@std@@@2@V32@AAVios_base@2@D_K@Z 00403ad0 f i CinderProjectEx1App.obj
 0001:00002b60       ?do_put@?$num_put@DV?$ostreambuf_iterator@DU?$char_traits@D@std@@@std@@@std@@MBE?AV?$ostreambuf_iterator@DU?$char_traits@D@std@@@2@V32@AAVios_base@2@DN@Z 00403b60 f i CinderProjectEx1App.obj
 0001:00002d70       ?do_put@?$num_put@DV?$ostreambuf_iterator@DU?$char_traits@D@std@@@std@@@std@@MBE?AV?$ostreambuf_iterator@DU?$char_traits@D@std@@@2@V32@AAVios_base@2@DO@Z 00403d70 f i CinderProjectEx1App.obj
 0001:00002f70       ?do_put@?$num_put@DV?$ostreambuf_iterator@DU?$char_traits@D@std@@@std@@@std@@MBE?AV?$ostreambuf_iterator@DU?$char_traits@D@std@@@2@V32@AAVios_base@2@DPBX@Z 00403f70 f i CinderProjectEx1App.obj
 0001:00002fe0       ??_Gfacet@locale@std@@UAEPAXI@Z 00403fe0 f i CinderProjectEx1App.obj
 0001:00002fe0       ??_G?$num_put@DV?$ostreambuf_iterator@DU?$char_traits@D@std@@@std@@@std@@MAEPAXI@Z 00403fe0 f i CinderProjectEx1App.obj
 0001:00002fe0       ??_E?$num_put@DV?$ostreambuf_iterator@DU?$char_traits@D@std@@@std@@@std@@MAEPAXI@Z 00403fe0 f i  CIL library: CIL module
 0001:00002fe0       ??_Efacet@locale@std@@UAEPAXI@Z 00403fe0 f i  CIL library: CIL module
 0001:00003010       ?append@?$basic_string@DU?$char_traits@D@std@@V?$allocator@D@2@@std@@QAEAAV12@ABV12@II@Z 00404010 f i CinderProjectEx1App.obj
 0001:00003100       ?append@?$basic_string@DU?$char_traits@D@std@@V?$allocator@D@2@@std@@QAEAAV12@PBDI@Z 00404100 f i CinderProjectEx1App.obj
 0001:00003220       ?assign@?$basic_string@DU?$char_traits@D@std@@V?$allocator@D@2@@std@@QAEAAV12@PBDI@Z 00404220 f i CinderProjectEx1App.obj
 0001:00003320       ?insert@?$basic_string@DU?$char_traits@D@std@@V?$allocator@D@2@@std@@QAEAAV12@IID@Z 00404320 f i CinderProjectEx1App.obj
 0001:00003420       ?erase@?$basic_string@DU?$char_traits@D@std@@V?$allocator@D@2@@std@@QAEAAV12@II@Z 00404420 f i CinderProjectEx1App.obj
 0001:000034b0       ?_Grow@?$basic_string@DU?$char_traits@D@std@@V?$allocator@D@2@@std@@QAE_NI_N@Z 004044b0 f i CinderProjectEx1App.obj
 0001:00003560       ?_Osfx@?$basic_ostream@DU?$char_traits@D@std@@@std@@QAEXXZ 00404560 f i CinderProjectEx1App.obj
 0001:00003600       ?_Destroy@?$vector@Vpath@filesystem3@boost@@V?$allocator@Vpath@filesystem3@boost@@@std@@@std@@IAEXPAVpath@filesystem3@boost@@0@Z 00404600 f i CinderProjectEx1App.obj
 0001:00003650       ?allocate@?$allocator@V?$Vec@H$01@cv@@@std@@QAEPAV?$Vec@H$01@cv@@I@Z 00404650 f i opencv_core230:matrix.obj
 0001:00003650       ?allocate@?$allocator@V?$shared_ptr@E@tr1@std@@@std@@QAEPAV?$shared_ptr@E@tr1@2@I@Z 00404650 f i cinder:CaptureImplDirectShow.obj
 0001:00003650       ?allocate@?$allocator@U?$pair@PAVSurfaceCache@cinder@@H@std@@@std@@QAEPAU?$pair@PAVSurfaceCache@cinder@@H@2@I@Z 00404650 f i cinder:CaptureImplDirectShow.obj
 0001:00003650       ?allocate@?$allocator@V?$shared_ptr@VDisplay@cinder@@@tr1@std@@@std@@QAEPAV?$shared_ptr@VDisplay@cinder@@@tr1@2@I@Z 00404650 f i cinder:Display.obj
 0001:00003650       ?allocate@?$allocator@V?$shared_ptr@VDevice@Capture@cinder@@@tr1@std@@@std@@QAEPAV?$shared_ptr@VDevice@Capture@cinder@@@tr1@2@I@Z 00404650 f i CinderProjectEx1App.obj
 0001:00003650       ?allocate@?$allocator@V?$Vec@M$01@cv@@@std@@QAEPAV?$Vec@M$01@cv@@I@Z 00404650 f i opencv_core230:matrix.obj
 0001:000036b0       ??1_Sentry_base@?$basic_ostream@DU?$char_traits@D@std@@@std@@QAE@XZ 004046b0 f i CinderProjectEx1App.obj
 0001:000036d0       ?_Fput@?$num_put@DV?$ostreambuf_iterator@DU?$char_traits@D@std@@@std@@@std@@ABA?AV?$ostreambuf_iterator@DU?$char_traits@D@std@@@2@V32@AAVios_base@2@DPBDIIII@Z 004046d0 f i CinderProjectEx1App.obj
 0001:00003cc0       ?_Ifmt@?$num_put@DV?$ostreambuf_iterator@DU?$char_traits@D@std@@@std@@@std@@ABAPADPADPBDH@Z 00404cc0 f i CinderProjectEx1App.obj
 0001:00003d50       ?_Iput@?$num_put@DV?$ostreambuf_iterator@DU?$char_traits@D@std@@@std@@@std@@ABA?AV?$ostreambuf_iterator@DU?$char_traits@D@std@@@2@V32@AAVios_base@2@DPADI@Z 00404d50 f i CinderProjectEx1App.obj
 0001:00004050       ?_Putc@?$num_put@DV?$ostreambuf_iterator@DU?$char_traits@D@std@@@std@@@std@@ABA?AV?$ostreambuf_iterator@DU?$char_traits@D@std@@@2@V32@PBDI@Z 00405050 f i CinderProjectEx1App.obj
 0001:00004050       ?_Put@?$num_put@DV?$ostreambuf_iterator@DU?$char_traits@D@std@@@std@@@std@@ABA?AV?$ostreambuf_iterator@DU?$char_traits@D@std@@@2@V32@PBDI@Z 00405050 f i CinderProjectEx1App.obj
 0001:000040c0       ?_Rep@?$num_put@DV?$ostreambuf_iterator@DU?$char_traits@D@std@@@std@@@std@@ABA?AV?$ostreambuf_iterator@DU?$char_traits@D@std@@@2@V32@DI@Z 004050c0 f i CinderProjectEx1App.obj
 0001:00004130       ?falsename@?$numpunct@D@std@@QBE?AV?$basic_string@DU?$char_traits@D@std@@V?$allocator@D@2@@2@XZ 00405130 f i CinderProjectEx1App.obj
 0001:00004150       ?truename@?$numpunct@D@std@@QBE?AV?$basic_string@DU?$char_traits@D@std@@V?$allocator@D@2@@2@XZ 00405150 f i CinderProjectEx1App.obj
 0001:00004170       ?do_decimal_point@?$numpunct@D@std@@MBEDXZ 00405170 f i CinderProjectEx1App.obj
 0001:00004180       ?do_thousands_sep@?$numpunct@D@std@@MBEDXZ 00405180 f i CinderProjectEx1App.obj
 0001:00004190       ?do_grouping@?$numpunct@D@std@@MBE?AV?$basic_string@DU?$char_traits@D@std@@V?$allocator@D@2@@2@XZ 00405190 f i CinderProjectEx1App.obj
 0001:000041e0       ?do_falsename@?$numpunct@D@std@@MBE?AV?$basic_string@DU?$char_traits@D@std@@V?$allocator@D@2@@2@XZ 004051e0 f i CinderProjectEx1App.obj
 0001:00004230       ?do_truename@?$numpunct@D@std@@MBE?AV?$basic_string@DU?$char_traits@D@std@@V?$allocator@D@2@@2@XZ 00405230 f i CinderProjectEx1App.obj
 0001:00004280       ??_G?$numpunct@D@std@@MAEPAXI@Z 00405280 f i CinderProjectEx1App.obj
 0001:00004280       ??_E?$numpunct@D@std@@MAEPAXI@Z 00405280 f i  CIL library: CIL module
 0001:000042d0       ?append@?$basic_string@DU?$char_traits@D@std@@V?$allocator@D@2@@std@@QAEAAV12@ID@Z 004052d0 f i CinderProjectEx1App.obj
 0001:000043b0       ?_Chassign@?$basic_string@DU?$char_traits@D@std@@V?$allocator@D@2@@std@@QAEXIID@Z 004053b0 f i CinderProjectEx1App.obj
 0001:000043f0       ?_Copy@?$basic_string@DU?$char_traits@D@std@@V?$allocator@D@2@@std@@QAEXII@Z 004053f0 f i CinderProjectEx1App.obj
 0001:00004560       ?_Putgrouped@?$num_put@DV?$ostreambuf_iterator@DU?$char_traits@D@std@@@std@@@std@@ABA?AV?$ostreambuf_iterator@DU?$char_traits@D@std@@@2@V32@PBDID@Z 00405560 f i CinderProjectEx1App.obj
 0001:00004630       ??4?$ostreambuf_iterator@DU?$char_traits@D@std@@@std@@QAEAAV01@D@Z 00405630 f i CinderProjectEx1App.obj
 0001:00004680       ?grouping@?$numpunct@D@std@@QBE?AV?$basic_string@DU?$char_traits@D@std@@V?$allocator@D@2@@2@XZ 00405680 f i CinderProjectEx1App.obj
 0001:000046a0       ?_Tidy@?$numpunct@D@std@@AAEXXZ 004056a0 f i CinderProjectEx1App.obj
 0001:000046d0       ??$?6U?$char_traits@D@std@@@std@@YAAAV?$basic_ostream@DU?$char_traits@D@std@@@0@AAV10@PBD@Z 004056d0 f i CinderProjectEx1App.obj
 0001:00004980       ??$?6DU?$char_traits@D@std@@V?$allocator@D@1@@std@@YAAAV?$basic_ostream@DU?$char_traits@D@std@@@0@AAV10@ABV?$basic_string@DU?$char_traits@D@std@@V?$allocator@D@2@@0@@Z 00405980 f i CinderProjectEx1App.obj
 0001:00004c10       ??$use_facet@V?$num_put@DV?$ostreambuf_iterator@DU?$char_traits@D@std@@@std@@@std@@@std@@YAABV?$num_put@DV?$ostreambuf_iterator@DU?$char_traits@D@std@@@std@@@0@ABVlocale@0@@Z 00405c10 f i CinderProjectEx1App.obj
 0001:00004d50       ??$_Reset@UObj@Capture@cinder@@@?$_Ptr_base@UObj@Capture@cinder@@@tr1@std@@QAEXABV012@@Z 00405d50 f i CinderProjectEx1App.obj
 0001:00004db0       ??$use_facet@V?$numpunct@D@std@@@std@@YAABV?$numpunct@D@0@ABVlocale@0@@Z 00405db0 f i CinderProjectEx1App.obj
 0001:00004ef0       ??0bad_alloc@std@@QAE@ABV01@@Z 00405ef0 f i CinderProjectEx1App.obj
 0001:00004f10       ?_Getcat@?$num_put@DV?$ostreambuf_iterator@DU?$char_traits@D@std@@@std@@@std@@SAIPAPBVfacet@locale@2@PBV42@@Z 00405f10 f i CinderProjectEx1App.obj
 0001:00004fd0       ?_Getcat@?$numpunct@D@std@@SAIPAPBVfacet@locale@2@PBV42@@Z 00405fd0 f i CinderProjectEx1App.obj
 0001:000050a0       ?_Init@?$numpunct@D@std@@IAEXABV_Locinfo@2@_N@Z 004060a0 f i CinderProjectEx1App.obj
 0001:000051e0       ??$_Destroy_range@V?$allocator@Vpath@filesystem3@boost@@@std@@@std@@YAXPAVpath@filesystem3@boost@@0AAV?$allocator@Vpath@filesystem3@boost@@@0@U_Nonscalar_ptr_iterator_tag@0@@Z 004061e0 f i CinderProjectEx1App.obj
 0001:00005220       ??$_Destroy_range@V?$allocator@V?$shared_ptr@VDisplay@cinder@@@tr1@std@@@std@@@std@@YAXPAV?$shared_ptr@VDisplay@cinder@@@tr1@0@0AAV?$allocator@V?$shared_ptr@VDisplay@cinder@@@tr1@std@@@0@U_Nonscalar_ptr_iterator_tag@0@@Z 00406220 f i cinder:Display.obj
 0001:00005220       ??$_Destroy_range@V?$allocator@V?$shared_ptr@E@tr1@std@@@std@@@std@@YAXPAV?$shared_ptr@E@tr1@0@0AAV?$allocator@V?$shared_ptr@E@tr1@std@@@0@U_Nonscalar_ptr_iterator_tag@0@@Z 00406220 f i cinder:CaptureImplDirectShow.obj
 0001:00005220       ??$_Destroy_range@V?$allocator@V?$shared_ptr@VDevice@Capture@cinder@@@tr1@std@@@std@@@std@@YAXPAV?$shared_ptr@VDevice@Capture@cinder@@@tr1@0@0AAV?$allocator@V?$shared_ptr@VDevice@Capture@cinder@@@tr1@std@@@0@U_Nonscalar_ptr_iterator_tag@0@@Z 00406220 f i CinderProjectEx1App.obj
 0001:00005280       ??$_Maklocstr@D@std@@YAPADPBDPADABU_Cvtvec@@@Z 00406280 f i CinderProjectEx1App.obj
 0001:000052c0       ??$_Uninit_copy@V?$_Vector_const_iterator@V?$_Vector_val@V?$shared_ptr@VDevice@Capture@cinder@@@tr1@std@@V?$allocator@V?$shared_ptr@VDevice@Capture@cinder@@@tr1@std@@@3@@std@@@std@@PAV?$shared_ptr@VDevice@Capture@cinder@@@tr1@2@V?$allocator@V?$shared_ptr@VDevice@Capture@cinder@@@tr1@std@@@2@@std@@YAPAV?$shared_ptr@VDevice@Capture@cinder@@@tr1@0@V?$_Vector_const_iterator@V?$_Vector_val@V?$shared_ptr@VDevice@Capture@cinder@@@tr1@std@@V?$allocator@V?$shared_ptr@VDevice@Capture@cinder@@@tr1@std@@@3@@std@@@0@0PAV120@AAV?$allocator@V?$shared_ptr@VDevice@Capture@cinder@@@tr1@std@@@0@U_Nonscalar_ptr_iterator_tag@0@@Z 004062c0 f i CinderProjectEx1App.obj
 0001:00005370       ??$_Dest_val@V?$allocator@Vpath@filesystem3@boost@@@std@@Vpath@filesystem3@boost@@@std@@YAXAAV?$allocator@Vpath@filesystem3@boost@@@0@PAVpath@filesystem3@boost@@@Z 00406370 f i CinderProjectEx1App.obj
 0001:000053a0       ??$_Dest_val@V?$allocator@V?$shared_ptr@VDevice@Capture@cinder@@@tr1@std@@@std@@V?$shared_ptr@VDevice@Capture@cinder@@@tr1@2@@std@@YAXAAV?$allocator@V?$shared_ptr@VDevice@Capture@cinder@@@tr1@std@@@0@PAV?$shared_ptr@VDevice@Capture@cinder@@@tr1@0@@Z 004063a0 f i CinderProjectEx1App.obj
 0001:000053e0       ?set@?$AreaT@H@cinder@@QAEXHHHH@Z 004063e0 f i cinder:Area.obj
 0001:00005420       ?clipBy@?$AreaT@H@cinder@@QAEXABV12@@Z 00406420 f i cinder:Area.obj
 0001:00005480       ?getClipBy@?$AreaT@H@cinder@@QBE?AV12@ABV12@@Z 00406480 f i cinder:Area.obj
 0001:000054b0       ??0logic_error@std@@QAE@ABV01@@Z 004064b0 f i cinder:Area.obj
 0001:000054d0       ?getSeconds@Timer@cinder@@QBENXZ 004064d0 f   cinder:Timer.obj
 0001:00005510       ??0Timer@cinder@@QAE@_N@Z  00406510 f   cinder:Timer.obj
 0001:00005570       ?set@?$RectT@M@cinder@@QAEXMMMM@Z 00406570 f i cinder:Rect.obj
 0001:00005590       ??0?$RectT@M@cinder@@QAE@ABV?$AreaT@H@1@@Z 00406590 f i cinder:Rect.obj
 0001:000055d0       ??_ERenderer@app@cinder@@UAEPAXI@Z 004065d0 f i cinder:Renderer.obj
 0001:000055d0       ??_GRenderer@app@cinder@@UAEPAXI@Z 004065d0 f i cinder:Renderer.obj
 0001:00005600       ?getHwnd@RendererGl@app@cinder@@UAEPAUHWND__@@XZ 00406600 f i cinder:Renderer.obj
 0001:00005610       ?setAntiAliasing@RendererGl@app@cinder@@QAEXH@Z 00406610 f   cinder:Renderer.obj
 0001:00005620       ?setup@RendererGl@app@cinder@@UAEXPAVApp@23@PAUHWND__@@PAUHDC__@@@Z 00406620 f   cinder:Renderer.obj
 0001:000056b0       ?kill@RendererGl@app@cinder@@UAEXXZ 004066b0 f   cinder:Renderer.obj
 0001:000056c0       ?prepareToggleFullScreen@RendererGl@app@cinder@@UAEXXZ 004066c0 f   cinder:Renderer.obj
 0001:000056d0       ?finishToggleFullScreen@RendererGl@app@cinder@@UAEXXZ 004066d0 f   cinder:Renderer.obj
 0001:000056e0       ?startDraw@RendererGl@app@cinder@@UAEXXZ 004066e0 f   cinder:Renderer.obj
 0001:000056f0       ?finishDraw@RendererGl@app@cinder@@UAEXXZ 004066f0 f   cinder:Renderer.obj
 0001:00005700       ?defaultResize@RendererGl@app@cinder@@UAEXXZ 00406700 f   cinder:Renderer.obj
 0001:00005710       ??0RendererGl@app@cinder@@QAE@XZ 00406710 f   cinder:Renderer.obj
 0001:00005730       ??_ERendererGl@app@cinder@@UAEPAXI@Z 00406730 f i cinder:Renderer.obj
 0001:00005730       ??_GRendererGl@app@cinder@@UAEPAXI@Z 00406730 f i cinder:Renderer.obj
 0001:00005770       ?copyWindowSurface@RendererGl@app@cinder@@UAE?AV?$SurfaceT@E@3@ABV?$AreaT@H@3@@Z 00406770 f   cinder:Renderer.obj
 0001:00005870       ?getWindowWidth@AppBasic@app@cinder@@UBEHXZ 00406870 f   cinder:AppBasic.obj
 0001:00005880       ?getWindowHeight@AppBasic@app@cinder@@UBEHXZ 00406880 f   cinder:AppBasic.obj
 0001:00005890       ?setWindowWidth@AppBasic@app@cinder@@UAEXH@Z 00406890 f   cinder:AppBasic.obj
 0001:000058b0       ?setWindowHeight@AppBasic@app@cinder@@UAEXH@Z 004068b0 f   cinder:AppBasic.obj
 0001:000058d0       ?setWindowSize@AppBasic@app@cinder@@UAEXHH@Z 004068d0 f   cinder:AppBasic.obj
 0001:000058f0       ?setWindowPos@AppBasic@app@cinder@@UAEXABV?$Vec2@H@3@@Z 004068f0 f   cinder:AppBasic.obj
 0001:00005900       ?getFrameRate@AppBasic@app@cinder@@UBEMXZ 00406900 f   cinder:AppBasic.obj
 0001:00005910       ?setFrameRate@AppBasic@app@cinder@@UAEXM@Z 00406910 f   cinder:AppBasic.obj
 0001:00005930       ?isFullScreen@AppBasic@app@cinder@@UBE_NXZ 00406930 f   cinder:AppBasic.obj
 0001:00005940       ?setFullScreen@AppBasic@app@cinder@@UAEX_N@Z 00406940 f   cinder:AppBasic.obj
 0001:00005970       ?isBorderless@AppBasic@app@cinder@@UBE_NXZ 00406970 f   cinder:AppBasic.obj
 0001:00005980       ?setBorderless@AppBasic@app@cinder@@UAEX_N@Z 00406980 f   cinder:AppBasic.obj
 0001:00005990       ?isAlwaysOnTop@AppBasic@app@cinder@@UBE_NXZ 00406990 f   cinder:AppBasic.obj
 0001:000059a0       ?setAlwaysOnTop@AppBasic@app@cinder@@UAEX_N@Z 004069a0 f   cinder:AppBasic.obj
 0001:000059b0       ?quit@AppBasic@app@cinder@@UAEXXZ 004069b0 f   cinder:AppBasic.obj
 0001:000059c0       ?privateResize__@AppBasic@app@cinder@@UAEXABVResizeEvent@23@@Z 004069c0 f   cinder:AppBasic.obj
 0001:000059d0       ?getWindowPos@AppBasic@app@cinder@@UBE?AV?$Vec2@H@3@XZ 004069d0 f   cinder:AppBasic.obj
 0001:000059f0       ?erase@?$basic_string@_WU?$char_traits@_W@std@@V?$allocator@_W@2@@std@@QAEAAV12@II@Z 004069f0 f i cinder:AppBasic.obj
 0001:00005a80       ?allocate@?$allocator@VTouch@TouchEvent@app@cinder@@@std@@QAEPAVTouch@TouchEvent@app@cinder@@I@Z 00406a80 f i cinder:AppBasic.obj
 0001:00005ae0       ?_Copy@?$basic_string@_WU?$char_traits@_W@std@@V?$allocator@_W@2@@std@@QAEXII@Z 00406ae0 f i cinder:AppBasic.obj
 0001:00005c60       ?_Buy@?$vector@VTouch@TouchEvent@app@cinder@@V?$allocator@VTouch@TouchEvent@app@cinder@@@std@@@std@@IAE_NI@Z 00406c60 f i cinder:AppBasic.obj
 0001:00005cc0       ?_Grow@?$basic_string@_WU?$char_traits@_W@std@@V?$allocator@_W@2@@std@@QAE_NI_N@Z 00406cc0 f i cinder:AppBasic.obj
 0001:00005d80       ?getAppPath@AppBasic@app@cinder@@UAE?AVpath@filesystem3@boost@@XZ 00406d80 f   cinder:AppBasic.obj
 0001:00005db0       ?assign@?$basic_string@_WU?$char_traits@_W@std@@V?$allocator@_W@2@@std@@QAEAAV12@ABV12@II@Z 00406db0 f i cinder:AppBasic.obj
 0001:00005eb0       ?assign@?$basic_string@_WU?$char_traits@_W@std@@V?$allocator@_W@2@@std@@QAEAAV12@PB_WI@Z 00406eb0 f i cinder:AppBasic.obj
 0001:00005fa0       ??1Settings@AppBasic@app@cinder@@UAE@XZ 00406fa0 f i cinder:AppBasic.obj
 0001:00005fa0       ??1Settings@App@app@cinder@@MAE@XZ 00406fa0 f i cinder:AppBasic.obj
 0001:00005fd0       ??0Settings@AppBasic@app@cinder@@QAE@XZ 00406fd0 f   cinder:AppBasic.obj
 0001:00006070       ??_GSettings@App@app@cinder@@MAEPAXI@Z 00407070 f i cinder:AppBasic.obj
 0001:00006070       ??_ESettings@AppBasic@app@cinder@@UAEPAXI@Z 00407070 f i cinder:AppBasic.obj
 0001:00006070       ??_ESettings@App@app@cinder@@MAEPAXI@Z 00407070 f i cinder:AppBasic.obj
 0001:00006070       ??_GSettings@AppBasic@app@cinder@@UAEPAXI@Z 00407070 f i cinder:AppBasic.obj
 0001:000060c0       ??$_Uninit_copy@V?$_Vector_const_iterator@V?$_Vector_val@VTouch@TouchEvent@app@cinder@@V?$allocator@VTouch@TouchEvent@app@cinder@@@std@@@std@@@std@@PAVTouch@TouchEvent@app@cinder@@V?$allocator@VTouch@TouchEvent@app@cinder@@@2@@std@@YAPAVTouch@TouchEvent@app@cinder@@V?$_Vector_const_iterator@V?$_Vector_val@VTouch@TouchEvent@app@cinder@@V?$allocator@VTouch@TouchEvent@app@cinder@@@std@@@std@@@0@0PAV1234@AAV?$allocator@VTouch@TouchEvent@app@cinder@@@0@U_Nonscalar_ptr_iterator_tag@0@@Z 004070c0 f i cinder:AppBasic.obj
 0001:00006110       ??0?$basic_string@_WU?$char_traits@_W@std@@V?$allocator@_W@2@@std@@QAE@PB_W@Z 00407110 f i cinder:AppBasic.obj
 0001:00006160       ??0?$vector@VTouch@TouchEvent@app@cinder@@V?$allocator@VTouch@TouchEvent@app@cinder@@@std@@@std@@QAE@ABV01@@Z 00407160 f i cinder:AppBasic.obj
 0001:00006240       ??$_Destroy_range@V?$allocator@V?$basic_string@DU?$char_traits@D@std@@V?$allocator@D@2@@std@@@std@@@std@@YAXPAV?$basic_string@DU?$char_traits@D@std@@V?$allocator@D@2@@0@0AAV?$allocator@V?$basic_string@DU?$char_traits@D@std@@V?$allocator@D@2@@std@@@0@U_Nonscalar_ptr_iterator_tag@0@@Z 00407240 f i cinder:AppBasic.obj
 0001:00006280       ??_ETouchEvent@app@cinder@@UAEPAXI@Z 00407280 f i cinder:AppBasic.obj
 0001:00006280       ??_GTouchEvent@app@cinder@@UAEPAXI@Z 00407280 f i cinder:AppBasic.obj
 0001:000062d0       ??$_Uninit_move@PAV?$basic_string@DU?$char_traits@D@std@@V?$allocator@D@2@@std@@PAV12@V?$allocator@V?$basic_string@DU?$char_traits@D@std@@V?$allocator@D@2@@std@@@2@V12@@std@@YAPAV?$basic_string@DU?$char_traits@D@std@@V?$allocator@D@2@@0@PAV10@00AAV?$allocator@V?$basic_string@DU?$char_traits@D@std@@V?$allocator@D@2@@std@@@0@0U_Nonscalar_ptr_iterator_tag@0@@Z 004072d0 f i cinder:AppBasic.obj
 0001:00006390       ?privateTouchesBegan__@AppBasic@app@cinder@@QAEXABVTouchEvent@23@@Z 00407390 f   cinder:AppBasic.obj
 0001:000064f0       ?privateTouchesMoved__@AppBasic@app@cinder@@QAEXABVTouchEvent@23@@Z 004074f0 f   cinder:AppBasic.obj
 0001:00006650       ?privateTouchesEnded__@AppBasic@app@cinder@@QAEXABVTouchEvent@23@@Z 00407650 f   cinder:AppBasic.obj
 0001:000067b0       ??1?$vector@V?$basic_string@DU?$char_traits@D@std@@V?$allocator@D@2@@std@@V?$allocator@V?$basic_string@DU?$char_traits@D@std@@V?$allocator@D@2@@std@@@2@@std@@QAE@XZ 004077b0 f i cinder:AppBasic.obj
 0001:00006800       ?reserve@?$vector@V?$basic_string@DU?$char_traits@D@std@@V?$allocator@D@2@@std@@V?$allocator@V?$basic_string@DU?$char_traits@D@std@@V?$allocator@D@2@@std@@@2@@std@@QAEXI@Z 00407800 f i cinder:AppBasic.obj
 0001:00006920       ??1?$CallbackMgr@$$A6A_NVResizeEvent@app@cinder@@@Z@cinder@@QAE@XZ 00407920 f i cinder:App.obj
 0001:00006920       ??1?$CallbackMgr@$$A6A_NVKeyEvent@app@cinder@@@Z@cinder@@QAE@XZ 00407920 f i cinder:App.obj
 0001:00006920       ??1?$CallbackMgr@$$A6A_NVMouseEvent@app@cinder@@@Z@cinder@@QAE@XZ 00407920 f i cinder:App.obj
 0001:00006920       ??1?$CallbackMgr@$$A6A_NVTouchEvent@app@cinder@@@Z@cinder@@QAE@XZ 00407920 f i cinder:AppBasic.obj
 0001:00006970       ??1AppBasic@app@cinder@@UAE@XZ 00407970 f   cinder:AppBasic.obj
 0001:00006b50       ?_Reserve@?$vector@V?$basic_string@DU?$char_traits@D@std@@V?$allocator@D@2@@std@@V?$allocator@V?$basic_string@DU?$char_traits@D@std@@V?$allocator@D@2@@std@@@2@@std@@IAEXI@Z 00407b50 f i cinder:AppBasic.obj
 0001:00006bd0       ??0AppBasic@app@cinder@@QAE@XZ 00407bd0 f   cinder:AppBasic.obj
 0001:00006c90       ??_EAppBasic@app@cinder@@UAEPAXI@Z 00407c90 f i cinder:AppBasic.obj
 0001:00006c90       ??_GAppBasic@app@cinder@@UAEPAXI@Z 00407c90 f i cinder:AppBasic.obj
 0001:00006cc0       ?push_back@?$vector@V?$basic_string@DU?$char_traits@D@std@@V?$allocator@D@2@@std@@V?$allocator@V?$basic_string@DU?$char_traits@D@std@@V?$allocator@D@2@@std@@@2@@std@@QAEX$$QAV?$basic_string@DU?$char_traits@D@std@@V?$allocator@D@2@@2@@Z 00407cc0 f i cinder:AppBasic.obj
 0001:00006d90       ?executeLaunch@AppBasic@app@cinder@@SAXPAV123@PAVRenderer@23@PBD@Z 00407d90 f   cinder:AppBasic.obj
 0001:00006fa0       ?launch@AppBasic@app@cinder@@UAEXPBDHQBQAD@Z 00407fa0 f   cinder:AppBasic.obj
 0001:00007120       ?_Get_deleter@_Ref_count_base@tr1@std@@UBEPAXABVtype_info@@@Z 00408120 f i cinder:App.obj
 0001:00007130       ??_GImageIoException@cinder@@UAEPAXI@Z 00408130 f i cinder:Texture.obj
 0001:00007130       ??_EImageIoExceptionFailedLoad@cinder@@UAEPAXI@Z 00408130 f i cinder:ImageIo.obj
 0001:00007130       ??_GException@gl@cinder@@UAEPAXI@Z 00408130 f i cinder:gl.obj
 0001:00007130       ??_EException@gl@cinder@@UAEPAXI@Z 00408130 f i cinder:gl.obj
 0001:00007130       ??_GException@cinder@@UAEPAXI@Z 00408130 f i cinder:App.obj
 0001:00007130       ??_GCaptureExc@cinder@@UAEPAXI@Z 00408130 f i cinder:CaptureImplDirectShow.obj
 0001:00007130       ??_EImageIoExceptionIllegalDataType@cinder@@UAEPAXI@Z 00408130 f i cinder:ImageIo.obj
 0001:00007130       ??_EExceptionUnknownTarget@gl@cinder@@UAEPAXI@Z 00408130 f i cinder:gl.obj
 0001:00007130       ??_EImageIoExceptionIllegalColorModel@cinder@@UAEPAXI@Z 00408130 f i cinder:Texture.obj
 0001:00007130       ??_GImageIoExceptionIllegalChannelOrder@cinder@@UAEPAXI@Z 00408130 f i cinder:ImageIo.obj
 0001:00007130       ??_GImageIoExceptionIllegalColorModel@cinder@@UAEPAXI@Z 00408130 f i cinder:Texture.obj
 0001:00007130       ??_GExceptionUnknownTarget@gl@cinder@@UAEPAXI@Z 00408130 f i cinder:gl.obj
 0001:00007130       ??_ECaptureExc@cinder@@UAEPAXI@Z 00408130 f i cinder:CaptureImplDirectShow.obj
 0001:00007130       ??_EImageIoExceptionIllegalChannelOrder@cinder@@UAEPAXI@Z 00408130 f i cinder:ImageIo.obj
 0001:00007130       ??_EException@cinder@@UAEPAXI@Z 00408130 f i cinder:App.obj
 0001:00007130       ??_GImageIoExceptionFailedLoad@cinder@@UAEPAXI@Z 00408130 f i cinder:ImageIo.obj
 0001:00007130       ??_GCaptureExcInitFail@cinder@@UAEPAXI@Z 00408130 f i cinder:CaptureImplDirectShow.obj
 0001:00007130       ??_ECaptureExcInitFail@cinder@@UAEPAXI@Z 00408130 f i cinder:CaptureImplDirectShow.obj
 0001:00007130       ??_GImageIoExceptionIllegalDataType@cinder@@UAEPAXI@Z 00408130 f i cinder:ImageIo.obj
 0001:00007130       ??_EImageIoException@cinder@@UAEPAXI@Z 00408130 f i cinder:Texture.obj
 0001:00007160       ?privateDraw__@App@app@cinder@@UAEXXZ 00408160 f   cinder:App.obj
 0001:00007170       ?privateShutdown__@App@app@cinder@@UAEXXZ 00408170 f   cinder:App.obj
 0001:00007180       ?update@App@app@cinder@@UAEXXZ 00408180 f   cinder:AppBasic.obj
 0001:00007180       ?finishDraw@Renderer@app@cinder@@UAEXXZ 00408180 f   cinder:Renderer.obj
 0001:00007180       ?prepareLaunch@App@app@cinder@@KAXXZ 00408180 f   cinder:App.obj
 0001:00007180       ?tss_cleanup_implemented@boost@@YAXXZ 00408180 f   libboost_thread-vc100-mt-s-1_48:tss_pe.obj
 0001:00007180       ?setup@App@app@cinder@@UAEXXZ 00408180 f   cinder:AppBasic.obj
 0001:00007180       ?prepareToggleFullScreen@Renderer@app@cinder@@UAEXXZ 00408180 f   cinder:Renderer.obj
 0001:00007180       ?draw@App@app@cinder@@UAEXXZ 00408180 f   cinder:AppBasic.obj
 0001:00007180       ?run@externally_launched_thread@?A0x3c55b58b@boost@@UAEXXZ 00408180 f   libboost_thread-vc100-mt-s-1_48:thread.obj
 0001:00007180       ?kill@Renderer@app@cinder@@UAEXXZ 00408180 f   cinder:Renderer.obj
 0001:00007180       ?sp_enable_shared_from_this@detail@boost@@YAXZZ 00408180 f   cinder:CinderMsw.obj
 0001:00007180       ?cleanupLaunch@App@app@cinder@@KAXXZ 00408180 f   cinder:App.obj
 0001:00007180       ?shutdown@App@app@cinder@@UAEXXZ 00408180 f   CinderProjectEx1App.obj
 0001:00007180       ?toggleFullScreen@AppImplMsw@app@cinder@@UAEXXZ 00408180 f   cinder:AppImplMsw.obj
 0001:00007180       ?loopStart@TimelineItem@cinder@@UAEXXZ 00408180 f   cinder:Timeline.obj
 0001:00007180       ??3@YAXPAX0@Z              00408180 f   CinderProjectEx1App.obj
 0001:00007180       ?finalize@ImageTarget@cinder@@UAEXXZ 00408180 f   cinder:Surface.obj
 0001:00007180       ?startDraw@Renderer@app@cinder@@UAEXXZ 00408180 f   cinder:Renderer.obj
 0001:00007180       ?on_process_enter@boost@@YAXXZ 00408180 f   libboost_thread-vc100-mt-s-1_48:thread.obj
 0001:00007180       ?defaultResize@Renderer@app@cinder@@UAEXXZ 00408180 f   cinder:Renderer.obj
 0001:00007180       ?finishToggleFullScreen@Renderer@app@cinder@@UAEXXZ 00408180 f   cinder:Renderer.obj
 0001:00007190       ??1?$basic_ostream@DU?$char_traits@D@std@@@std@@UAE@XZ 00408190 f i cinder:App.obj
 0001:000071a0       ??1?$basic_ios@DU?$char_traits@D@std@@@std@@UAE@XZ 004081a0 f i cinder:App.obj
 0001:000071b0       ??_G?$basic_ios@DU?$char_traits@D@std@@@std@@UAEPAXI@Z 004081b0 f i cinder:App.obj
 0001:000071b0       ??_Gios_base@std@@UAEPAXI@Z 004081b0 f i cinder:App.obj
 0001:000071b0       ??_E?$basic_ios@DU?$char_traits@D@std@@@std@@UAEPAXI@Z 004081b0 f i cinder:App.obj
 0001:000071b0       ??_Eios_base@std@@UAEPAXI@Z 004081b0 f i cinder:App.obj
 0001:000071e0       ?_Tidy@?$basic_stringbuf@DU?$char_traits@D@std@@V?$allocator@D@2@@std@@IAEXXZ 004081e0 f i cinder:App.obj
 0001:00007240       ?_Destroy@?$_Ref_count@V?$basic_dostream@DU?$char_traits@D@std@@@msw@cinder@@@tr1@std@@EAEXXZ 00408240 f i cinder:App.obj
 0001:00007260       ??0?$ctype@D@std@@QAE@ABV_Locinfo@1@I@Z 00408260 f i cinder:App.obj
 0001:000072b0       ?do_tolower@?$ctype@D@std@@MBEDD@Z 004082b0 f i cinder:App.obj
 0001:000072d0       ?do_tolower@?$ctype@D@std@@MBEPBDPADPBD@Z 004082d0 f i cinder:App.obj
 0001:00007300       ?do_toupper@?$ctype@D@std@@MBEDD@Z 00408300 f i cinder:App.obj
 0001:00007320       ?do_toupper@?$ctype@D@std@@MBEPBDPADPBD@Z 00408320 f i cinder:App.obj
 0001:00007350       ?do_widen@?$ctype@D@std@@MBEDD@Z 00408350 f i cinder:App.obj
 0001:00007360       ?do_widen@?$ctype@D@std@@MBEPBDPBD0PAD@Z 00408360 f i cinder:App.obj
 0001:00007390       ?do_narrow@?$ctype@D@std@@MBEDDD@Z 00408390 f i cinder:App.obj
 0001:000073a0       ?do_narrow@?$ctype@D@std@@MBEPBDPBD0DPAD@Z 004083a0 f i cinder:App.obj
 0001:000073d0       ??_E?$ctype@D@std@@MAEPAXI@Z 004083d0 f i cinder:App.obj
 0001:000073d0       ??_G?$ctype@D@std@@MAEPAXI@Z 004083d0 f i cinder:App.obj
 0001:00007420       ?_Init@ios_base@std@@IAEXXZ 00408420 f i cinder:App.obj
 0001:000074b0       ??_EKeyEvent@app@cinder@@UAEPAXI@Z 004084b0 f i cinder:App.obj
 0001:000074b0       ??_GResizeEvent@app@cinder@@UAEPAXI@Z 004084b0 f i cinder:App.obj
 0001:000074b0       ??_GEvent@app@cinder@@UAEPAXI@Z 004084b0 f i CinderProjectEx1App.obj
 0001:000074b0       ??_EMouseEvent@app@cinder@@UAEPAXI@Z 004084b0 f i cinder:App.obj
 0001:000074b0       ??_EResizeEvent@app@cinder@@UAEPAXI@Z 004084b0 f i cinder:App.obj
 0001:000074b0       ??_EEvent@app@cinder@@UAEPAXI@Z 004084b0 f i  CIL library: CIL module
 0001:000074b0       ??_GMouseEvent@app@cinder@@UAEPAXI@Z 004084b0 f i cinder:App.obj
 0001:000074b0       ??_GKeyEvent@app@cinder@@UAEPAXI@Z 004084b0 f i cinder:App.obj
 0001:000074e0       ??1?$basic_streambuf@DU?$char_traits@D@std@@@std@@UAE@XZ 004084e0 f i cinder:App.obj
 0001:00007560       ?_Lock@?$basic_streambuf@DU?$char_traits@D@std@@@std@@UAEXXZ 00408560 f i cinder:App.obj
 0001:00007570       ?_Unlock@?$basic_streambuf@DU?$char_traits@D@std@@@std@@UAEXXZ 00408570 f i cinder:App.obj
 0001:00007580       ?pbackfail@?$basic_streambuf@DU?$char_traits@D@std@@@std@@MAEHH@Z 00408580 f i cinder:App.obj
 0001:00007580       ?overflow@?$basic_streambuf@DU?$char_traits@D@std@@@std@@MAEHH@Z 00408580 f i cinder:App.obj
 0001:00007590       ?showmanyc@?$basic_streambuf@DU?$char_traits@D@std@@@std@@MAE_JXZ 00408590 f i cinder:App.obj
 0001:000075a0       ?underflow@?$basic_streambuf@DU?$char_traits@D@std@@@std@@MAEHXZ 004085a0 f i cinder:App.obj
 0001:000075b0       ?setbuf@?$basic_streambuf@DU?$char_traits@D@std@@@std@@MAEPAV12@PAD_J@Z 004085b0 f i cinder:App.obj
 0001:000075c0       ?_Gnavail@?$basic_streambuf@DU?$char_traits@D@std@@@std@@IBE_JXZ 004085c0 f i cinder:App.obj
 0001:000075e0       ?uflow@?$basic_streambuf@DU?$char_traits@D@std@@@std@@MAEHXZ 004085e0 f i cinder:App.obj
 0001:00007610       ?xsgetn@?$basic_streambuf@DU?$char_traits@D@std@@@std@@MAE_JPAD_J@Z 00408610 f i cinder:App.obj
 0001:000076e0       ?xsputn@?$basic_streambuf@DU?$char_traits@D@std@@@std@@MAE_JPBD_J@Z 004086e0 f i cinder:App.obj
 0001:000077b0       ?seekoff@?$basic_streambuf@DU?$char_traits@D@std@@@std@@MAE?AV?$fpos@H@2@_JHH@Z 004087b0 f i cinder:App.obj
 0001:000077e0       ?seekpos@?$basic_streambuf@DU?$char_traits@D@std@@@std@@MAE?AV?$fpos@H@2@V32@H@Z 004087e0 f i cinder:App.obj
 0001:00007810       ??1?$basic_stringbuf@DU?$char_traits@D@std@@V?$allocator@D@2@@std@@UAE@XZ 00408810 f i cinder:App.obj
 0001:00007830       ?pbackfail@?$basic_stringbuf@DU?$char_traits@D@std@@V?$allocator@D@2@@std@@MAEHH@Z 00408830 f i cinder:App.obj
 0001:00007880       ?underflow@?$basic_stringbuf@DU?$char_traits@D@std@@V?$allocator@D@2@@std@@MAEHXZ 00408880 f i cinder:App.obj
 0001:000078f0       ?seekoff@?$basic_stringbuf@DU?$char_traits@D@std@@V?$allocator@D@2@@std@@MAE?AV?$fpos@H@2@_JHH@Z 004088f0 f i cinder:App.obj
 0001:00007ab0       ?seekpos@?$basic_stringbuf@DU?$char_traits@D@std@@V?$allocator@D@2@@std@@MAE?AV?$fpos@H@2@V32@H@Z 00408ab0 f i cinder:App.obj
 0001:00007bd0       ??_G?$basic_ostream@DU?$char_traits@D@std@@@std@@UAEPAXI@Z 00408bd0 f i cinder:App.obj
 0001:00007bd0       ??_E?$basic_ostream@DU?$char_traits@D@std@@@std@@UAEPAXI@Z 00408bd0 f i cinder:App.obj
 0001:00007c10       ??_E?$basic_streambuf@DU?$char_traits@D@std@@@std@@UAEPAXI@Z 00408c10 f i cinder:App.obj
 0001:00007c10       ??_G?$basic_streambuf@DU?$char_traits@D@std@@@std@@UAEPAXI@Z 00408c10 f i cinder:App.obj
 0001:00007c40       ??_E?$basic_stringbuf@DU?$char_traits@D@std@@V?$allocator@D@2@@std@@UAEPAXI@Z 00408c40 f i cinder:App.obj
 0001:00007c40       ??_G?$basic_stringbuf@DU?$char_traits@D@std@@V?$allocator@D@2@@std@@UAEPAXI@Z 00408c40 f i cinder:App.obj
 0001:00007c70       ??0?$basic_streambuf@DU?$char_traits@D@std@@@std@@IAE@XZ 00408c70 f i cinder:App.obj
 0001:00007d60       ?allocate@?$allocator@V?$basic_string@DU?$char_traits@D@std@@V?$allocator@D@2@@std@@@std@@QAEPAV?$basic_string@DU?$char_traits@D@std@@V?$allocator@D@2@@2@I@Z 00408d60 f i cinder:AppBasic.obj
 0001:00007d60       ?allocate@?$allocator@Vpath@filesystem3@boost@@@std@@QAEPAVpath@filesystem3@boost@@I@Z 00408d60 f i cinder:App.obj
 0001:00007dc0       ?_Init@?$basic_stringbuf@DU?$char_traits@D@std@@V?$allocator@D@2@@std@@IAEXPBDIH@Z 00408dc0 f i cinder:App.obj
 0001:00007e70       ??$_Do_enable@VTimeline@cinder@@VTimelineItem@2@@tr1@std@@YAXPAVTimeline@cinder@@PAV?$enable_shared_from_this@VTimelineItem@cinder@@@01@PAV_Ref_count_base@01@@Z 00408e70 f i cinder:App.obj
 0001:00007ed0       ?_Getcat@?$ctype@D@std@@SAIPAPBVfacet@locale@2@PBV42@@Z 00408ed0 f i cinder:App.obj
 0001:00007fb0       ?privateSetup__@App@app@cinder@@UAEXXZ 00408fb0 f   cinder:App.obj
 0001:00007fe0       ?privateUpdate__@App@app@cinder@@UAEXXZ 00408fe0 f   cinder:App.obj
 0001:00008060       ?overflow@?$basic_stringbuf@DU?$char_traits@D@std@@V?$allocator@D@2@@std@@MAEHH@Z 00409060 f i cinder:App.obj
 0001:00008210       ??$use_facet@V?$ctype@D@std@@@std@@YAABV?$ctype@D@0@ABVlocale@0@@Z 00409210 f i cinder:App.obj
 0001:00008350       ??$?0V?$basic_string@DU?$char_traits@D@std@@V?$allocator@D@2@@std@@@path@filesystem3@boost@@QAE@ABV?$basic_string@DU?$char_traits@D@std@@V?$allocator@D@2@@std@@PAX@Z 00409350 f i cinder:App.obj
 0001:000083e0       ?widen@?$basic_ios@DU?$char_traits@D@std@@@std@@QBEDD@Z 004093e0 f i cinder:App.obj
 0001:00008490       ??$_Resetp@V?$basic_dostream@DU?$char_traits@D@std@@@msw@cinder@@@?$shared_ptr@V?$basic_dostream@DU?$char_traits@D@std@@@msw@cinder@@@tr1@std@@AAEXPAV?$basic_dostream@DU?$char_traits@D@std@@@msw@cinder@@@Z 00409490 f i cinder:App.obj
 0001:00008530       ??$_Resetp@VRenderer@app@cinder@@@?$shared_ptr@VRenderer@app@cinder@@@tr1@std@@AAEXPAVRenderer@app@cinder@@@Z 00409530 f i cinder:App.obj
 0001:000085d0       ?privateMouseDown__@App@app@cinder@@QAEXABVMouseEvent@23@@Z 004095d0 f   cinder:App.obj
 0001:00008710       ?privateMouseUp__@App@app@cinder@@QAEXABVMouseEvent@23@@Z 00409710 f   cinder:App.obj
 0001:00008850       ?privateMouseWheel__@App@app@cinder@@QAEXABVMouseEvent@23@@Z 00409850 f   cinder:App.obj
 0001:00008990       ?privateMouseMove__@App@app@cinder@@QAEXABVMouseEvent@23@@Z 00409990 f   cinder:App.obj
 0001:00008ad0       ?privateMouseDrag__@App@app@cinder@@QAEXABVMouseEvent@23@@Z 00409ad0 f   cinder:App.obj
 0001:00008c10       ?privateKeyDown__@App@app@cinder@@QAEXABVKeyEvent@23@@Z 00409c10 f   cinder:App.obj
 0001:00008d30       ?privateKeyUp__@App@app@cinder@@QAEXABVKeyEvent@23@@Z 00409d30 f   cinder:App.obj
 0001:00008e50       ?privateResize__@App@app@cinder@@UAEXABVResizeEvent@23@@Z 00409e50 f   cinder:App.obj
 0001:00008f50       ??0Settings@App@app@cinder@@IAE@XZ 00409f50 f   cinder:App.obj
 0001:00008fa0       ??0?$basic_string@_WU?$char_traits@_W@std@@V?$allocator@_W@2@@std@@QAE@ABV01@@Z 00409fa0 f i cinder:App.obj
 0001:00008fd0       ??$_Resetp@VTimeline@cinder@@@?$shared_ptr@VTimeline@cinder@@@tr1@std@@AAEXPAVTimeline@cinder@@@Z 00409fd0 f i cinder:App.obj
 0001:00008fd0       ??$_Resetp@VTimeline@cinder@@@?$shared_ptr@VTimelineItem@cinder@@@tr1@std@@AAEXPAVTimeline@cinder@@@Z 00409fd0 f i cinder:Timeline.obj
 0001:00009070       ??0?$basic_string@DU?$char_traits@D@std@@V?$allocator@D@2@@std@@QAE@ABV01@@Z 0040a070 f i cinder:App.obj
 0001:000090a0       ?create@Timeline@cinder@@SA?AV?$shared_ptr@VTimeline@cinder@@@tr1@std@@XZ 0040a0a0 f i cinder:App.obj
 0001:00009130       ?executeLaunch@App@app@cinder@@KAXPAV123@PAVRenderer@23@PBDHQBQAD@Z 0040a130 f   cinder:App.obj
 0001:000091f0       ??0?$basic_dostream@DU?$char_traits@D@std@@@msw@cinder@@QAE@XZ 0040a1f0 f i cinder:App.obj
 0001:000092e0       ??_D?$basic_dostream@DU?$char_traits@D@std@@@msw@cinder@@QAEXXZ 0040a2e0 f i cinder:App.obj
 0001:00009370       ??_E?$basic_dostream@DU?$char_traits@D@std@@@msw@cinder@@UAEPAXI@Z 0040a370 f i cinder:App.obj
 0001:00009370       ??_G?$basic_dostream@DU?$char_traits@D@std@@@msw@cinder@@UAEPAXI@Z 0040a370 f i cinder:App.obj
 0001:000093a0       ?console@App@app@cinder@@QAEAAV?$basic_ostream@DU?$char_traits@D@std@@@std@@XZ 0040a3a0 f   cinder:App.obj
 0001:00009460       ?str@?$basic_stringbuf@DU?$char_traits@D@std@@V?$allocator@D@2@@std@@QBE?AV?$basic_string@DU?$char_traits@D@std@@V?$allocator@D@2@@2@XZ 0040a460 f i cinder:App.obj
 0001:00009590       ??$_Destroy_range@V?$allocator@U?$pair@IV?$function@$$A6A_NVFileDropEvent@app@cinder@@@Z@tr1@std@@@std@@@std@@@std@@YAXPAU?$pair@IV?$function@$$A6A_NVFileDropEvent@app@cinder@@@Z@tr1@std@@@0@0AAV?$allocator@U?$pair@IV?$function@$$A6A_NVFileDropEvent@app@cinder@@@Z@tr1@std@@@std@@@0@U_Nonscalar_ptr_iterator_tag@0@@Z 0040a590 f i cinder:App.obj
 0001:00009590       ??$_Destroy_range@V?$allocator@U?$pair@IV?$function@$$A6A_NVTouchEvent@app@cinder@@@Z@tr1@std@@@std@@@std@@@std@@YAXPAU?$pair@IV?$function@$$A6A_NVTouchEvent@app@cinder@@@Z@tr1@std@@@0@0AAV?$allocator@U?$pair@IV?$function@$$A6A_NVTouchEvent@app@cinder@@@Z@tr1@std@@@std@@@0@U_Nonscalar_ptr_iterator_tag@0@@Z 0040a590 f i cinder:AppBasic.obj
 0001:00009590       ??$_Destroy_range@V?$allocator@U?$pair@IV?$function@$$A6A_NVKeyEvent@app@cinder@@@Z@tr1@std@@@std@@@std@@@std@@YAXPAU?$pair@IV?$function@$$A6A_NVKeyEvent@app@cinder@@@Z@tr1@std@@@0@0AAV?$allocator@U?$pair@IV?$function@$$A6A_NVKeyEvent@app@cinder@@@Z@tr1@std@@@std@@@0@U_Nonscalar_ptr_iterator_tag@0@@Z 0040a590 f i cinder:App.obj
 0001:00009590       ??$_Destroy_range@V?$allocator@U?$pair@IV?$function@$$A6A_NVMouseEvent@app@cinder@@@Z@tr1@std@@@std@@@std@@@std@@YAXPAU?$pair@IV?$function@$$A6A_NVMouseEvent@app@cinder@@@Z@tr1@std@@@0@0AAV?$allocator@U?$pair@IV?$function@$$A6A_NVMouseEvent@app@cinder@@@Z@tr1@std@@@std@@@0@U_Nonscalar_ptr_iterator_tag@0@@Z 0040a590 f i cinder:App.obj
 0001:00009590       ??$_Destroy_range@V?$allocator@U?$pair@IV?$function@$$A6A_NVResizeEvent@app@cinder@@@Z@tr1@std@@@std@@@std@@@std@@YAXPAU?$pair@IV?$function@$$A6A_NVResizeEvent@app@cinder@@@Z@tr1@std@@@0@0AAV?$allocator@U?$pair@IV?$function@$$A6A_NVResizeEvent@app@cinder@@@Z@tr1@std@@@std@@@0@U_Nonscalar_ptr_iterator_tag@0@@Z 0040a590 f i cinder:App.obj
 0001:000095d0       ??$_Uninit_copy@V?$_Vector_const_iterator@V?$_Vector_val@Vpath@filesystem3@boost@@V?$allocator@Vpath@filesystem3@boost@@@std@@@std@@@std@@PAVpath@filesystem3@boost@@V?$allocator@Vpath@filesystem3@boost@@@2@@std@@YAPAVpath@filesystem3@boost@@V?$_Vector_const_iterator@V?$_Vector_val@Vpath@filesystem3@boost@@V?$allocator@Vpath@filesystem3@boost@@@std@@@std@@@0@0PAV123@AAV?$allocator@Vpath@filesystem3@boost@@@0@U_Nonscalar_ptr_iterator_tag@0@@Z 0040a5d0 f i cinder:App.obj
 0001:00009690       ??$_Uninit_move@PAVpath@filesystem3@boost@@PAV123@V?$allocator@Vpath@filesystem3@boost@@@std@@V123@@std@@YAPAVpath@filesystem3@boost@@PAV123@00AAV?$allocator@Vpath@filesystem3@boost@@@0@0U_Nonscalar_ptr_iterator_tag@0@@Z 0040a690 f i cinder:App.obj
 0001:00009750       ?string@path@filesystem3@boost@@QBE?BV?$basic_string@DU?$char_traits@D@std@@V?$allocator@D@2@@std@@ABV?$codecvt@_WDH@5@@Z 0040a750 f i cinder:App.obj
 0001:000097e0       ?sync@?$basic_debugbuf@DU?$char_traits@D@std@@@msw@cinder@@MAEHXZ 0040a7e0 f i cinder:App.obj
 0001:000098a0       ?string@path@filesystem3@boost@@QBE?BV?$basic_string@DU?$char_traits@D@std@@V?$allocator@D@2@@std@@XZ 0040a8a0 f i cinder:App.obj
 0001:000098d0       ??_E?$basic_debugbuf@DU?$char_traits@D@std@@@msw@cinder@@UAEPAXI@Z 0040a8d0 f i cinder:App.obj
 0001:000098d0       ??_G?$basic_debugbuf@DU?$char_traits@D@std@@@msw@cinder@@UAEPAXI@Z 0040a8d0 f i cinder:App.obj
 0001:00009950       ?reserve@?$vector@Vpath@filesystem3@boost@@V?$allocator@Vpath@filesystem3@boost@@@std@@@std@@QAEXI@Z 0040a950 f i cinder:App.obj
 0001:00009a70       ??0?$vector@Vpath@filesystem3@boost@@V?$allocator@Vpath@filesystem3@boost@@@std@@@std@@QAE@ABV01@@Z 0040aa70 f i cinder:App.obj
 0001:00009b50       ?_Reserve@?$vector@Vpath@filesystem3@boost@@V?$allocator@Vpath@filesystem3@boost@@@std@@@std@@IAEXI@Z 0040ab50 f i cinder:App.obj
 0001:00009bd0       ??1App@app@cinder@@UAE@XZ  0040abd0 f   cinder:App.obj
 0001:00009f50       ?isBorderless@App@app@cinder@@UBE_NXZ 0040af50 f i cinder:App.obj
 0001:00009f50       ?updateAtLoopStart@TimelineItem@cinder@@UAE_NXZ 0040af50 f i cinder:Timeline.obj
 0001:00009f50       ?do_always_noconv@windows_file_codecvt@@MBE_NXZ 0040af50 f i libboost_filesystem-vc100-mt-s-1_48:path.obj
 0001:00009f50       ?isAlwaysOnTop@App@app@cinder@@UBE_NXZ 0040af50 f i cinder:App.obj
 0001:00009f50       ?do_always_noconv@?$codecvt@_WDH@std@@MBE_NXZ 0040af50 f i libboost_filesystem-vc100-mt-s-1_48:path.obj
 0001:00009f60       ?getWindowPos@App@app@cinder@@UBE?AV?$Vec2@H@3@XZ 0040af60 f i cinder:App.obj
 0001:00009f80       ??R?$_Function_impl1@_NVFileDropEvent@app@cinder@@@tr1@std@@QBE_NVFileDropEvent@app@cinder@@@Z 0040af80 f i cinder:App.obj
 0001:0000a040       ??_GFileDropEvent@app@cinder@@UAEPAXI@Z 0040b040 f i cinder:App.obj
 0001:0000a040       ??_EFileDropEvent@app@cinder@@UAEPAXI@Z 0040b040 f i cinder:App.obj
 0001:0000a0a0       ??0App@app@cinder@@QAE@XZ  0040b0a0 f   cinder:App.obj
 0001:0000a1d0       ??_GApp@app@cinder@@UAEPAXI@Z 0040b1d0 f i cinder:App.obj
 0001:0000a1d0       ??_EApp@app@cinder@@UAEPAXI@Z 0040b1d0 f i cinder:App.obj
 0001:0000a200       ?privateFileDrop__@App@app@cinder@@QAEXABVFileDropEvent@23@@Z 0040b200 f   cinder:App.obj
 0001:0000a300       ??0Exception@cinder@@QAE@ABV01@@Z 0040b300 f i cinder:App.obj
 0001:0000a320       ?hasAlpha@ImageIo@cinder@@UBE_NXZ 0040b320 f i cinder:Surface.obj
 0001:0000a330       ??1ImageSource@cinder@@UAE@XZ 0040b330 f i cinder:Surface.obj
 0001:0000a340       ??_EImageSource@cinder@@UAEPAXI@Z 0040b340 f i cinder:Surface.obj
 0001:0000a340       ??_GImageSource@cinder@@UAEPAXI@Z 0040b340 f i cinder:Surface.obj
 0001:0000a370       ??1ImageTarget@cinder@@UAE@XZ 0040b370 f i cinder:Surface.obj
 0001:0000a380       ?getDc@Renderer@app@cinder@@UAEPAUHDC__@@XZ 0040b380 f i cinder:Renderer.obj
 0001:0000a380       ?setRow@ImageTarget@cinder@@UAEXHPBX@Z 0040b380 f i cinder:Surface.obj
 0001:0000a390       ??_EImageTarget@cinder@@UAEPAXI@Z 0040b390 f i cinder:Surface.obj
 0001:0000a390       ??_GImageTarget@cinder@@UAEPAXI@Z 0040b390 f i cinder:Surface.obj
 0001:0000a3c0       ??0SurfaceChannelOrder@cinder@@QAE@ABV01@@Z 0040b3c0 f   cinder:Surface.obj
 0001:0000a400       ??0SurfaceChannelOrder@cinder@@QAE@H@Z 0040b400 f   cinder:Surface.obj
 0001:0000a500       ?setDeallocator@?$SurfaceT@E@cinder@@QAEXP6AXPAX@Z0@Z 0040b500 f i cinder:Surface.obj
 0001:0000a520       ??0?$ChannelT@E@cinder@@QAE@XZ 0040b520 f i cinder:Surface.obj
 0001:0000a530       ??4?$shared_ptr@UObj@?$ChannelT@E@cinder@@@tr1@std@@QAEAAV012@ABV012@@Z 0040b530 f i cinder:Surface.obj
 0001:0000a530       ??4?$shared_ptr@UObj@?$SurfaceT@E@cinder@@@tr1@std@@QAEAAV012@ABV012@@Z 0040b530 f i cinder:Surface.obj
 0001:0000a5a0       ??_GObj@?$SurfaceT@E@cinder@@QAEPAXI@Z 0040b5a0 f i cinder:Surface.obj
 0001:0000a630       ?_Destroy@?$_Ref_count@UObj@?$SurfaceT@E@cinder@@@tr1@std@@EAEXXZ 0040b630 f i cinder:Surface.obj
 0001:0000a6c0       ??$_Resetp@UObj@?$SurfaceT@E@cinder@@@?$shared_ptr@UObj@?$SurfaceT@E@cinder@@@tr1@std@@AAEXPAUObj@?$SurfaceT@E@cinder@@@Z 0040b6c0 f i cinder:Surface.obj
 0001:0000a760       ?initChannels@Obj@?$SurfaceT@E@cinder@@QAEXXZ 0040b760 f i cinder:Surface.obj
 0001:0000a950       ??0Obj@?$SurfaceT@E@cinder@@QAE@HHVSurfaceChannelOrder@2@PAE_NH@Z 0040b950 f i cinder:Surface.obj
 0001:0000aa10       ??0?$SurfaceT@E@cinder@@QAE@PAEHHHVSurfaceChannelOrder@1@@Z 0040ba10 f i cinder:Surface.obj
 0001:0000ab20       ??0?$SurfaceT@E@cinder@@QAE@HH_NVSurfaceChannelOrder@1@@Z 0040bb20 f i cinder:Surface.obj
 0001:0000ac90       ?compare@?$char_traits@D@std@@SAHPBD0I@Z 0040bc90 f i cinder:gl.obj
 0001:0000ad10       ??_ECamera@cinder@@UAEPAXI@Z 0040bd10 f i cinder:gl.obj
 0001:0000ad10       ??_GCamera@cinder@@UAEPAXI@Z 0040bd10 f i cinder:gl.obj
 0001:0000ad10       ??_GCameraPersp@cinder@@UAEPAXI@Z 0040bd10 f i cinder:Camera.obj
 0001:0000ad10       ??_ECameraPersp@cinder@@UAEPAXI@Z 0040bd10 f i cinder:Camera.obj
 0001:0000ad40       ?clear@gl@cinder@@YAXABV?$ColorAT@M@2@_N@Z 0040bd40 f   cinder:gl.obj
 0001:0000ada0       ??1Camera@cinder@@UAE@XZ   0040bda0 f i cinder:gl.obj
 0001:0000ada0       ??1CameraPersp@cinder@@UAE@XZ 0040bda0 f i cinder:gl.obj
 0001:0000adb0       ?enableAlphaBlending@gl@cinder@@YAX_N@Z 0040bdb0 f   cinder:gl.obj
 0001:0000ade0       ?drawCubeImpl@?A0xc4fbf8fd@gl@cinder@@YAXABV?$Vec3@M@3@0_N@Z 0040bde0 f   cinder:gl.obj
 0001:0000b0d0       ?drawCube@gl@cinder@@YAXABV?$Vec3@M@2@0@Z 0040c0d0 f   cinder:gl.obj
 0001:0000b0f0       ??1SaveTextureBindState@gl@cinder@@QAE@XZ 0040c0f0 f   cinder:gl.obj
 0001:0000b100       ??1BoolState@gl@cinder@@QAE@XZ 0040c100 f   cinder:gl.obj
 0001:0000b120       ??1ClientBoolState@gl@cinder@@QAE@XZ 0040c120 f   cinder:gl.obj
 0001:0000b140       ??1ExceptionUnknownTarget@gl@cinder@@UAE@XZ 0040c140 f i cinder:gl.obj
 0001:0000b140       ??1ImageIoExceptionIllegalDataType@cinder@@UAE@XZ 0040c140 f i cinder:ImageIo.obj
 0001:0000b140       ??1ImageIoExceptionFailedLoad@cinder@@UAE@XZ 0040c140 f i cinder:ImageIo.obj
 0001:0000b140       ??1CaptureExcInitFail@cinder@@UAE@XZ 0040c140 f i cinder:CaptureImplDirectShow.obj
 0001:0000b140       ??1ImageIoExceptionIllegalChannelOrder@cinder@@UAE@XZ 0040c140 f i cinder:ImageIo.obj
 0001:0000b140       ??1ImageIoExceptionIllegalColorModel@cinder@@UAE@XZ 0040c140 f i cinder:Texture.obj
 0001:0000b150       ?compare@?$basic_string@DU?$char_traits@D@std@@V?$allocator@D@2@@std@@QBEHIIPBDI@Z 0040c150 f i cinder:gl.obj
 0001:0000b1c0       ??0SaveTextureBindState@gl@cinder@@QAE@H@Z 0040c1c0 f   cinder:gl.obj
 0001:0000b280       ??0Exception@gl@cinder@@QAE@ABV012@@Z 0040c280 f i cinder:gl.obj
 0001:0000b2a0       ??0ExceptionUnknownTarget@gl@cinder@@QAE@ABV012@@Z 0040c2a0 f i cinder:gl.obj
 0001:0000b2c0       ?draw@gl@cinder@@YAXABVTexture@12@ABV?$AreaT@H@2@ABV?$RectT@M@2@@Z 0040c2c0 f   cinder:gl.obj
 0001:0000b470       ??R?$less@V?$basic_string@DU?$char_traits@D@std@@V?$allocator@D@2@@std@@@std@@QBE_NABV?$basic_string@DU?$char_traits@D@std@@V?$allocator@D@2@@1@0@Z 0040c470 f i cinder:gl.obj
 0001:0000b4a0       ?draw@gl@cinder@@YAXABVTexture@12@ABV?$RectT@M@2@@Z 0040c4a0 f   cinder:gl.obj
 0001:0000b4e0       ??0Format@Texture@gl@cinder@@QAE@XZ 0040c4e0 f   cinder:Texture.obj
 0001:0000b510       ??$checked_array_delete@E@boost@@YAXPAE@Z 0040c510 f i cinder:Texture.obj
 0001:0000b520       ??_GObj@Texture@gl@cinder@@QAEPAXI@Z 0040c520 f i cinder:Texture.obj
 0001:0000b570       ?_Destroy@?$_Ref_count@UObj@Texture@gl@cinder@@@tr1@std@@EAEXXZ 0040c570 f i cinder:Texture.obj
 0001:0000b5b0       ?_Get_deleter@?$_Ref_count_del@EU?$checked_array_deleter@E@boost@@@tr1@std@@UBEPAXABVtype_info@@@Z 0040c5b0 f i cinder:Texture.obj
 0001:0000b5e0       ?_Destroy@?$_Ref_count_del@UtagTOUCHINPUT@@U?$checked_array_deleter@UtagTOUCHINPUT@@@boost@@@tr1@std@@EAEXXZ 0040c5e0 f i cinder:AppImplMswBasic.obj
 0001:0000b5e0       ?_Destroy@?$_Ref_count_del@EU?$checked_array_deleter@E@boost@@@tr1@std@@EAEXXZ 0040c5e0 f i cinder:Texture.obj
 0001:0000b5f0       ?_Get_deleter@?$_Ref_count_del@EP6AXPAE@Z@tr1@std@@UBEPAXABVtype_info@@@Z 0040c5f0 f i cinder:Texture.obj
 0001:0000b620       ?getFilePath@DataTarget@cinder@@QBEABVpath@filesystem3@boost@@XZ 0040c620 f i cinder:DataTarget.obj
 0001:0000b620       ?what@TextureDataExc@gl@cinder@@UBEPBDXZ 0040c620 f i cinder:Texture.obj
 0001:0000b620       ?getFilePath@DataSource@cinder@@QAEABVpath@filesystem3@boost@@XZ 0040c620 f i cinder:DataSource.obj
 0001:0000b630       ?init@Texture@gl@cinder@@IAEXPBEHIIABUFormat@123@@Z 0040c630 f   cinder:Texture.obj
 0001:0000b740       ?enableAndBind@Texture@gl@cinder@@QBEXXZ 0040c740 f   cinder:Texture.obj
 0001:0000b770       ??$_Resetp@UObj@Texture@gl@cinder@@@?$shared_ptr@UObj@Texture@gl@cinder@@@tr1@std@@AAEXPAUObj@Texture@gl@cinder@@@Z 0040c770 f i cinder:Texture.obj
 0001:0000b810       ?getWidth@Texture@gl@cinder@@QBEHXZ 0040c810 f   cinder:Texture.obj
 0001:0000b890       ?getHeight@Texture@gl@cinder@@QBEHXZ 0040c890 f   cinder:Texture.obj
 0001:0000b910       ?getCleanWidth@Texture@gl@cinder@@QBEHXZ 0040c910 f   cinder:Texture.obj
 0001:0000b990       ?getCleanHeight@Texture@gl@cinder@@QBEHXZ 0040c990 f   cinder:Texture.obj
 0001:0000ba10       ?getAreaTexCoords@Texture@gl@cinder@@QBE?AV?$RectT@M@3@ABV?$AreaT@H@3@@Z 0040ca10 f   cinder:Texture.obj
 0001:0000bae0       ??$_Resetp@EU?$checked_array_deleter@E@boost@@@?$shared_ptr@E@tr1@std@@AAEXPAEU?$checked_array_deleter@E@boost@@@Z 0040cae0 f i cinder:Texture.obj
 0001:0000bb80       ??$_Resetp@EP6AXPAE@Z@?$shared_ptr@E@tr1@std@@AAEXPAEP6AX0@Z@Z 0040cb80 f i cinder:Texture.obj
 0001:0000bc20       ??$?0EP6AXPAE@Z@?$shared_ptr@E@tr1@std@@QAE@PAEP6AX0@Z@Z 0040cc20 f i cinder:Texture.obj
 0001:0000bc50       ??0ImageIoException@cinder@@QAE@ABV01@@Z 0040cc50 f i cinder:Texture.obj
 0001:0000bc70       ??0ImageIoExceptionIllegalColorModel@cinder@@QAE@ABV01@@Z 0040cc70 f i cinder:Texture.obj
 0001:0000bc90       ??0TextureDataExc@gl@cinder@@QAE@ABV012@@Z 0040cc90 f i cinder:Texture.obj
 0001:0000bcd0       ?SurfaceChannelOrderToDataFormatAndType@Texture@gl@cinder@@SAXABVSurfaceChannelOrder@3@PAHPAI@Z 0040ccd0 f   cinder:Texture.obj
 0001:0000be00       ??0Texture@gl@cinder@@QAE@ABV?$SurfaceT@E@2@UFormat@012@@Z 0040ce00 f   cinder:Texture.obj
 0001:0000bef0       ??$fill_impl@E@ip@cinder@@YAXPAV?$SurfaceT@E@1@ABV?$ColorT@E@1@ABV?$AreaT@H@1@@Z 0040cef0 f i cinder:Fill.obj
 0001:0000bff0       ??$fill@EE@ip@cinder@@YAXPAV?$SurfaceT@E@1@ABV?$ColorT@E@1@ABV?$AreaT@H@1@@Z 0040cff0 f i cinder:Fill.obj
 0001:0000c020       ?getDevices@Capture@cinder@@SAABV?$vector@V?$shared_ptr@VDevice@Capture@cinder@@@tr1@std@@V?$allocator@V?$shared_ptr@VDevice@Capture@cinder@@@tr1@std@@@3@@std@@_N@Z 0040d020 f   cinder:Capture.obj
 0001:0000c030       ??_EObj@Capture@cinder@@UAEPAXI@Z 0040d030 f i cinder:Capture.obj
 0001:0000c030       ??_GObj@Capture@cinder@@UAEPAXI@Z 0040d030 f i cinder:Capture.obj
 0001:0000c070       ?start@Capture@cinder@@QAEXXZ 0040d070 f   cinder:Capture.obj
 0001:0000c080       ?getWidth@Capture@cinder@@QBEHXZ 0040d080 f   cinder:Capture.obj
 0001:0000c090       ?getHeight@Capture@cinder@@QBEHXZ 0040d090 f   cinder:Capture.obj
 0001:0000c0a0       ??$_Resetp@UObj@Capture@cinder@@@?$shared_ptr@UObj@Capture@cinder@@@tr1@std@@AAEXPAUObj@Capture@cinder@@@Z 0040d0a0 f i cinder:Capture.obj
 0001:0000c140       ?getSurface@Capture@cinder@@QBE?AV?$SurfaceT@E@2@XZ 0040d140 f   cinder:Capture.obj
 0001:0000c170       ??0Obj@Capture@cinder@@QAE@HHV?$shared_ptr@VDevice@Capture@cinder@@@tr1@std@@@Z 0040d170 f   cinder:Capture.obj
 0001:0000c240       ??0Capture@cinder@@QAE@HHV?$shared_ptr@VDevice@Capture@cinder@@@tr1@std@@@Z 0040d240 f   cinder:Capture.obj
 0001:0000c360       ??0AppImplMswRendererGl@app@cinder@@QAE@PAVApp@12@PAVRendererGl@12@@Z 0040d360 f   cinder:AppImplMswRendererGl.obj
 0001:0000c390       ?prepareToggleFullScreen@AppImplMswRendererGl@app@cinder@@UAEXXZ 0040d390 f   cinder:AppImplMswRendererGl.obj
 0001:0000c3a0       ?finishToggleFullScreen@AppImplMswRendererGl@app@cinder@@UAEXXZ 0040d3a0 f   cinder:AppImplMswRendererGl.obj
 0001:0000c3b0       ?swapBuffers@AppImplMswRendererGl@app@cinder@@UBEXXZ 0040d3b0 f   cinder:AppImplMswRendererGl.obj
 0001:0000c3c0       ?makeCurrentContext@AppImplMswRendererGl@app@cinder@@UAEXXZ 0040d3c0 f   cinder:AppImplMswRendererGl.obj
 0001:0000c3d0       ?createDummyWindow@app@cinder@@YAPAUHWND__@@PAH0_N@Z 0040d3d0 f   cinder:AppImplMswRendererGl.obj
 0001:0000c560       ?initMultisample@AppImplMswRendererGl@app@cinder@@IAEHUtagPIXELFORMATDESCRIPTOR@@HPAUHDC__@@@Z 0040d560 f   cinder:AppImplMswRendererGl.obj
 0001:0000c690       ?kill@AppImplMswRendererGl@app@cinder@@UAEXXZ 0040d690 f   cinder:AppImplMswRendererGl.obj
 0001:0000c6c0       ?defaultResize@AppImplMswRendererGl@app@cinder@@UBEXXZ 0040d6c0 f   cinder:AppImplMswRendererGl.obj
 0001:0000c7d0       ?initializeInternal@AppImplMswRendererGl@app@cinder@@IAE_NPAUHWND__@@PAUHDC__@@@Z 0040d7d0 f   cinder:AppImplMswRendererGl.obj
 0001:0000c8d0       ?initialize@AppImplMswRendererGl@app@cinder@@UAE_NPAUHWND__@@PAUHDC__@@@Z 0040d8d0 f   cinder:AppImplMswRendererGl.obj
 0001:0000c990       ??$flipVertical@E@ip@cinder@@YAXPAV?$SurfaceT@E@1@@Z 0040d990 f i cinder:Flip.obj
 0001:0000ca30       ?sleep@AppImplMswBasic@app@cinder@@IAEXN@Z 0040da30 f   cinder:AppImplMswBasic.obj
 0001:0000cb20       ?setBorderless@AppImplMswBasic@app@cinder@@QAEX_N@Z 0040db20 f   cinder:AppImplMswBasic.obj
 0001:0000cc40       ?setAlwaysOnTop@AppImplMswBasic@app@cinder@@QAEX_N@Z 0040dc40 f   cinder:AppImplMswBasic.obj
 0001:0000ccc0       ?enableMultiTouch@AppImplMswBasic@app@cinder@@IAEXXZ 0040dcc0 f   cinder:AppImplMswBasic.obj
 0001:0000cd00       ?setWindowPos@AppImplMswBasic@app@cinder@@QAEXABV?$Vec2@H@3@@Z 0040dd00 f   cinder:AppImplMswBasic.obj
 0001:0000cd90       ?setFrameRate@AppImplMswBasic@app@cinder@@UAEMM@Z 0040dd90 f   cinder:AppImplMswBasic.obj
 0001:0000cda0       ?prepMouseEventModifiers@app@cinder@@YAII@Z 0040dda0 f   cinder:AppImplMswBasic.obj
 0001:0000ce00       ?prepNativeKeyCode@app@cinder@@YAHI@Z 0040de00 f   cinder:AppImplMswBasic.obj
 0001:0000ce70       ?mapVirtualKey@app@cinder@@YADI@Z 0040de70 f   cinder:AppImplMswBasic.obj
 0001:0000cee0       ?prepKeyEventModifiers@app@cinder@@YAIXZ 0040dee0 f   cinder:AppImplMswBasic.obj
 0001:0000cf50       ?_Min@?$_Tree_val@V?$_Tmap_traits@PAXV?$shared_ptr@VTimelineItem@cinder@@@tr1@std@@U?$less@PAX@3@V?$allocator@U?$pair@QAXV?$shared_ptr@VTimelineItem@cinder@@@tr1@std@@@std@@@3@$00@std@@@std@@SAPAU_Node@?$_Tree_nod@V?$_Tmap_traits@PAXV?$shared_ptr@VTimelineItem@cinder@@@tr1@std@@U?$less@PAX@3@V?$allocator@U?$pair@QAXV?$shared_ptr@VTimelineItem@cinder@@@tr1@std@@@std@@@3@$00@std@@@2@PAU342@@Z 0040df50 f i cinder:Timeline.obj
 0001:0000cf50       ?_Min@?$_Tree_val@V?$_Tmap_traits@KV?$Vec2@M@cinder@@U?$less@K@std@@V?$allocator@U?$pair@$$CBKV?$Vec2@M@cinder@@@std@@@4@$0A@@std@@@std@@SAPAU_Node@?$_Tree_nod@V?$_Tmap_traits@KV?$Vec2@M@cinder@@U?$less@K@std@@V?$allocator@U?$pair@$$CBKV?$Vec2@M@cinder@@@std@@@4@$0A@@std@@@2@PAU342@@Z 0040df50 f i cinder:AppImplMswBasic.obj
 0001:0000cf70       ??F?$_Tree_unchecked_const_iterator@V?$_Tree_val@V?$_Tmap_traits@KV?$Vec2@M@cinder@@U?$less@K@std@@V?$allocator@U?$pair@$$CBKV?$Vec2@M@cinder@@@std@@@4@$0A@@std@@@std@@U_Iterator_base0@2@@std@@QAEAAV01@XZ 0040df70 f i cinder:AppImplMswBasic.obj
 0001:0000cfd0       ?_Get_deleter@?$_Ref_count_del@UtagTOUCHINPUT@@U?$checked_array_deleter@UtagTOUCHINPUT@@@boost@@@tr1@std@@UBEPAXABVtype_info@@@Z 0040dfd0 f i cinder:AppImplMswBasic.obj
 0001:0000d000       ?setWindowWidth@AppImplMswBasic@app@cinder@@UAEXH@Z 0040e000 f   cinder:AppImplMswBasic.obj
 0001:0000d080       ?setWindowHeight@AppImplMswBasic@app@cinder@@UAEXH@Z 0040e080 f   cinder:AppImplMswBasic.obj
 0001:0000d100       ?setWindowSize@AppImplMswBasic@app@cinder@@UAEXHH@Z 0040e100 f   cinder:AppImplMswBasic.obj
 0001:0000d180       ?_Rrotate@?$_Tree@V?$_Tmap_traits@KV?$Vec2@M@cinder@@U?$less@K@std@@V?$allocator@U?$pair@$$CBKV?$Vec2@M@cinder@@@std@@@4@$0A@@std@@@std@@IAEXPAU_Node@?$_Tree_nod@V?$_Tmap_traits@KV?$Vec2@M@cinder@@U?$less@K@std@@V?$allocator@U?$pair@$$CBKV?$Vec2@M@cinder@@@std@@@4@$0A@@std@@@2@@Z 0040e180 f i cinder:AppImplMswBasic.obj
 0001:0000d180       ?_Rrotate@?$_Tree@V?$_Tmap_traits@PAXV?$shared_ptr@VTimelineItem@cinder@@@tr1@std@@U?$less@PAX@3@V?$allocator@U?$pair@QAXV?$shared_ptr@VTimelineItem@cinder@@@tr1@std@@@std@@@3@$00@std@@@std@@IAEXPAU_Node@?$_Tree_nod@V?$_Tmap_traits@PAXV?$shared_ptr@VTimelineItem@cinder@@@tr1@std@@U?$less@PAX@3@V?$allocator@U?$pair@QAXV?$shared_ptr@VTimelineItem@cinder@@@tr1@std@@@std@@@3@$00@std@@@2@@Z 0040e180 f i cinder:Timeline.obj
 0001:0000d1e0       ??$_Copy_impl@PAVTouch@TouchEvent@app@cinder@@PAV1234@@std@@YAPAVTouch@TouchEvent@app@cinder@@PAV1234@00U_Nonscalar_ptr_iterator_tag@0@@Z 0040e1e0 f i cinder:AppImplMswBasic.obj
 0001:0000d1e0       ??$_Move@PAVTouch@TouchEvent@app@cinder@@PAV1234@@std@@YAPAVTouch@TouchEvent@app@cinder@@PAV1234@00U_Nonscalar_ptr_iterator_tag@0@@Z 0040e1e0 f i cinder:AppImplMswBasic.obj
 0001:0000d240       ?killWindow@AppImplMswBasic@app@cinder@@IAEX_N@Z 0040e240 f   cinder:AppImplMswBasic.obj
 0001:0000d2c0       ?_Lrotate@?$_Tree@V?$_Tmap_traits@PAXV?$shared_ptr@VTimelineItem@cinder@@@tr1@std@@U?$less@PAX@3@V?$allocator@U?$pair@QAXV?$shared_ptr@VTimelineItem@cinder@@@tr1@std@@@std@@@3@$00@std@@@std@@IAEXPAU_Node@?$_Tree_nod@V?$_Tmap_traits@PAXV?$shared_ptr@VTimelineItem@cinder@@@tr1@std@@U?$less@PAX@3@V?$allocator@U?$pair@QAXV?$shared_ptr@VTimelineItem@cinder@@@tr1@std@@@std@@@3@$00@std@@@2@@Z 0040e2c0 f i cinder:Timeline.obj
 0001:0000d2c0       ?_Lrotate@?$_Tree@V?$_Tmap_traits@KV?$Vec2@M@cinder@@U?$less@K@std@@V?$allocator@U?$pair@$$CBKV?$Vec2@M@cinder@@@std@@@4@$0A@@std@@@std@@IAEXPAU_Node@?$_Tree_nod@V?$_Tmap_traits@KV?$Vec2@M@cinder@@U?$less@K@std@@V?$allocator@U?$pair@$$CBKV?$Vec2@M@cinder@@@std@@@4@$0A@@std@@@2@@Z 0040e2c0 f i cinder:AppImplMswBasic.obj
 0001:0000d320       ?_Insert@?$_Tree@V?$_Tmap_traits@KV?$Vec2@M@cinder@@U?$less@K@std@@V?$allocator@U?$pair@$$CBKV?$Vec2@M@cinder@@@std@@@4@$0A@@std@@@std@@IAE?AV?$_Tree_iterator@V?$_Tree_val@V?$_Tmap_traits@KV?$Vec2@M@cinder@@U?$less@K@std@@V?$allocator@U?$pair@$$CBKV?$Vec2@M@cinder@@@std@@@4@$0A@@std@@@std@@@2@_NPAU_Node@?$_Tree_nod@V?$_Tmap_traits@KV?$Vec2@M@cinder@@U?$less@K@std@@V?$allocator@U?$pair@$$CBKV?$Vec2@M@cinder@@@std@@@4@$0A@@std@@@2@1@Z 0040e320 f i cinder:AppImplMswBasic.obj
 0001:0000d550       ??$_Uninit_copy@PAVTouch@TouchEvent@app@cinder@@PAV1234@V?$allocator@VTouch@TouchEvent@app@cinder@@@std@@@std@@YAPAVTouch@TouchEvent@app@cinder@@PAV1234@00AAV?$allocator@VTouch@TouchEvent@app@cinder@@@0@U_Nonscalar_ptr_iterator_tag@0@@Z 0040e550 f i cinder:AppImplMswBasic.obj
 0001:0000d550       ??$_Uninit_move@PAVTouch@TouchEvent@app@cinder@@PAV1234@V?$allocator@VTouch@TouchEvent@app@cinder@@@std@@V1234@@std@@YAPAVTouch@TouchEvent@app@cinder@@PAV1234@00AAV?$allocator@VTouch@TouchEvent@app@cinder@@@0@0U_Nonscalar_ptr_iterator_tag@0@@Z 0040e550 f i cinder:AppImplMswBasic.obj
 0001:0000d5b0       ?erase@?$_Tree@V?$_Tmap_traits@KV?$Vec2@M@cinder@@U?$less@K@std@@V?$allocator@U?$pair@$$CBKV?$Vec2@M@cinder@@@std@@@4@$0A@@std@@@std@@QAE?AV?$_Tree_iterator@V?$_Tree_val@V?$_Tmap_traits@KV?$Vec2@M@cinder@@U?$less@K@std@@V?$allocator@U?$pair@$$CBKV?$Vec2@M@cinder@@@std@@@4@$0A@@std@@@std@@@2@V?$_Tree_const_iterator@V?$_Tree_val@V?$_Tmap_traits@KV?$Vec2@M@cinder@@U?$less@K@std@@V?$allocator@U?$pair@$$CBKV?$Vec2@M@cinder@@@std@@@4@$0A@@std@@@std@@@2@@Z 0040e5b0 f i cinder:AppImplMswBasic.obj
 0001:0000d800       ?_Eqrange@?$_Tree@V?$_Tmap_traits@KV?$Vec2@M@cinder@@U?$less@K@std@@V?$allocator@U?$pair@$$CBKV?$Vec2@M@cinder@@@std@@@4@$0A@@std@@@std@@IAE?AU?$pair@V?$_Tree_iterator@V?$_Tree_val@V?$_Tmap_traits@KV?$Vec2@M@cinder@@U?$less@K@std@@V?$allocator@U?$pair@$$CBKV?$Vec2@M@cinder@@@std@@@4@$0A@@std@@@std@@@std@@V12@@2@ABK@Z 0040e800 f i cinder:AppImplMswBasic.obj
 0001:0000d890       ?_Erase@?$_Tree@V?$_Tmap_traits@KV?$Vec2@M@cinder@@U?$less@K@std@@V?$allocator@U?$pair@$$CBKV?$Vec2@M@cinder@@@std@@@4@$0A@@std@@@std@@IAEXPAU_Node@?$_Tree_nod@V?$_Tmap_traits@KV?$Vec2@M@cinder@@U?$less@K@std@@V?$allocator@U?$pair@$$CBKV?$Vec2@M@cinder@@@std@@@4@$0A@@std@@@2@@Z 0040e890 f i cinder:AppImplMswBasic.obj
 0001:0000d8d0       ?_Linsert@?$_Tree@V?$_Tmap_traits@KV?$Vec2@M@cinder@@U?$less@K@std@@V?$allocator@U?$pair@$$CBKV?$Vec2@M@cinder@@@std@@@4@$0A@@std@@@std@@QAE?AU?$pair@V?$_Tree_iterator@V?$_Tree_val@V?$_Tmap_traits@KV?$Vec2@M@cinder@@U?$less@K@std@@V?$allocator@U?$pair@$$CBKV?$Vec2@M@cinder@@@std@@@4@$0A@@std@@@std@@@std@@_N@2@PAU_Node@?$_Tree_nod@V?$_Tmap_traits@KV?$Vec2@M@cinder@@U?$less@K@std@@V?$allocator@U?$pair@$$CBKV?$Vec2@M@cinder@@@std@@@4@$0A@@std@@@2@_N@Z 0040e8d0 f i cinder:AppImplMswBasic.obj
 0001:0000d9b0       ??$_Resetp@UtagTOUCHINPUT@@U?$checked_array_deleter@UtagTOUCHINPUT@@@boost@@@?$shared_ptr@UtagTOUCHINPUT@@@tr1@std@@AAEXPAUtagTOUCHINPUT@@U?$checked_array_deleter@UtagTOUCHINPUT@@@boost@@@Z 0040e9b0 f i cinder:AppImplMswBasic.obj
 0001:0000da50       ?clear@?$_Tree@V?$_Tmap_traits@KV?$Vec2@M@cinder@@U?$less@K@std@@V?$allocator@U?$pair@$$CBKV?$Vec2@M@cinder@@@std@@@4@$0A@@std@@@std@@QAEXXZ 0040ea50 f i cinder:AppImplMswBasic.obj
 0001:0000daa0       ?_Insert@?$_Tree@V?$_Tmap_traits@KV?$Vec2@M@cinder@@U?$less@K@std@@V?$allocator@U?$pair@$$CBKV?$Vec2@M@cinder@@@std@@@4@$0A@@std@@@std@@QAE?AV?$_Tree_iterator@V?$_Tree_val@V?$_Tmap_traits@KV?$Vec2@M@cinder@@U?$less@K@std@@V?$allocator@U?$pair@$$CBKV?$Vec2@M@cinder@@@std@@@4@$0A@@std@@@std@@@2@V?$_Tree_const_iterator@V?$_Tree_val@V?$_Tmap_traits@KV?$Vec2@M@cinder@@U?$less@K@std@@V?$allocator@U?$pair@$$CBKV?$Vec2@M@cinder@@@std@@@4@$0A@@std@@@std@@@2@PAU_Node@?$_Tree_nod@V?$_Tmap_traits@KV?$Vec2@M@cinder@@U?$less@K@std@@V?$allocator@U?$pair@$$CBKV?$Vec2@M@cinder@@@std@@@4@$0A@@std@@@2@@Z 0040eaa0 f i cinder:AppImplMswBasic.obj
 0001:0000dc00       ?erase@?$_Tree@V?$_Tmap_traits@KV?$Vec2@M@cinder@@U?$less@K@std@@V?$allocator@U?$pair@$$CBKV?$Vec2@M@cinder@@@std@@@4@$0A@@std@@@std@@QAE?AV?$_Tree_iterator@V?$_Tree_val@V?$_Tmap_traits@KV?$Vec2@M@cinder@@U?$less@K@std@@V?$allocator@U?$pair@$$CBKV?$Vec2@M@cinder@@@std@@@4@$0A@@std@@@std@@@2@V?$_Tree_const_iterator@V?$_Tree_val@V?$_Tmap_traits@KV?$Vec2@M@cinder@@U?$less@K@std@@V?$allocator@U?$pair@$$CBKV?$Vec2@M@cinder@@@std@@@4@$0A@@std@@@std@@@2@0@Z 0040ec00 f i cinder:AppImplMswBasic.obj
 0001:0000dca0       ?reserve@?$vector@VTouch@TouchEvent@app@cinder@@V?$allocator@VTouch@TouchEvent@app@cinder@@@std@@@std@@QAEXI@Z 0040eca0 f i cinder:AppImplMswBasic.obj
 0001:0000dda0       ??$_Ucopy@PAVTouch@TouchEvent@app@cinder@@@?$vector@VTouch@TouchEvent@app@cinder@@V?$allocator@VTouch@TouchEvent@app@cinder@@@std@@@std@@IAEPAVTouch@TouchEvent@app@cinder@@PAV2345@00@Z 0040eda0 f i cinder:AppImplMswBasic.obj
 0001:0000ddd0       ??$_Buynode@U?$pair@$$CBKV?$Vec2@M@cinder@@@std@@@?$_Tree_val@V?$_Tmap_traits@KV?$Vec2@M@cinder@@U?$less@K@std@@V?$allocator@U?$pair@$$CBKV?$Vec2@M@cinder@@@std@@@4@$0A@@std@@@std@@QAEPAU_Node@?$_Tree_nod@V?$_Tmap_traits@KV?$Vec2@M@cinder@@U?$less@K@std@@V?$allocator@U?$pair@$$CBKV?$Vec2@M@cinder@@@std@@@4@$0A@@std@@@1@$$QAU?$pair@$$CBKV?$Vec2@M@cinder@@@1@@Z 0040edd0 f i cinder:AppImplMswBasic.obj
 0001:0000de50       ?_Reserve@?$vector@VTouch@TouchEvent@app@cinder@@V?$allocator@VTouch@TouchEvent@app@cinder@@@std@@@std@@IAEXI@Z 0040ee50 f i cinder:AppImplMswBasic.obj
 0001:0000ded0       ??A?$map@KV?$Vec2@M@cinder@@U?$less@K@std@@V?$allocator@U?$pair@$$CBKV?$Vec2@M@cinder@@@std@@@4@@std@@QAEAAV?$Vec2@M@cinder@@ABK@Z 0040eed0 f i cinder:AppImplMswBasic.obj
 0001:0000df50       ??4?$vector@VTouch@TouchEvent@app@cinder@@V?$allocator@VTouch@TouchEvent@app@cinder@@@std@@@std@@QAEAAV01@ABV01@@Z 0040ef50 f i cinder:AppImplMswBasic.obj
 0001:0000e0a0       ?push_back@?$vector@VTouch@TouchEvent@app@cinder@@V?$allocator@VTouch@TouchEvent@app@cinder@@@std@@@std@@QAEX$$QAVTouch@TouchEvent@app@cinder@@@Z 0040f0a0 f i cinder:AppImplMswBasic.obj
 0001:0000e0a0       ?push_back@?$vector@VTouch@TouchEvent@app@cinder@@V?$allocator@VTouch@TouchEvent@app@cinder@@@std@@@std@@QAEXABVTouch@TouchEvent@app@cinder@@@Z 0040f0a0 f i cinder:AppImplMswBasic.obj
 0001:0000e160       ??0AppImplMswBasic@app@cinder@@QAE@PAVAppBasic@12@@Z 0040f160 f   cinder:AppImplMswBasic.obj
 0001:0000e220       ?quit@AppImplMswBasic@app@cinder@@UAEXXZ 0040f220 f i cinder:AppImplMswBasic.obj
 0001:0000e230       ?privateSetWindowOffset__@AppImplMsw@app@cinder@@UAEXABV?$Vec2@H@3@@Z 0040f230 f i cinder:AppImplMswBasic.obj
 0001:0000e250       ??_EAppImplMswBasic@app@cinder@@UAEPAXI@Z 0040f250 f i cinder:AppImplMswBasic.obj
 0001:0000e250       ??_GAppImplMswBasic@app@cinder@@UAEPAXI@Z 0040f250 f i cinder:AppImplMswBasic.obj
 0001:0000e2e0       ?onTouch@AppImplMswBasic@app@cinder@@IAEXPAUHWND__@@IJ@Z 0040f2e0 f   cinder:AppImplMswBasic.obj
 0001:0000e7f0       ?push_back@?$vector@Vpath@filesystem3@boost@@V?$allocator@Vpath@filesystem3@boost@@@std@@@std@@QAEX$$QAVpath@filesystem3@boost@@@Z 0040f7f0 f i cinder:AppImplMswBasic.obj
 0001:0000e8e0       _WndProc@16                0040f8e0 f   cinder:AppImplMswBasic.obj
 0001:0000f250       ?createWindow@AppImplMswBasic@app@cinder@@IAE_NPAH0@Z 00410250 f   cinder:AppImplMswBasic.obj
 0001:0000f540       ?toggleFullScreen@AppImplMswBasic@app@cinder@@UAEXXZ 00410540 f   cinder:AppImplMswBasic.obj
 0001:0000f6f0       ?run@AppImplMswBasic@app@cinder@@QAEXXZ 004106f0 f   cinder:AppImplMswBasic.obj
 0001:0000fa60       ??1AppImplMsw@app@cinder@@UAE@XZ 00410a60 f   cinder:AppImplMsw.obj
 0001:0000fa70       ?setWindowSize@AppImplMsw@app@cinder@@UAEXHH@Z 00410a70 f i cinder:AppImplMsw.obj
 0001:0000fa80       ?setFrameRate@AppImplMsw@app@cinder@@UAEMM@Z 00410a80 f i cinder:AppImplMsw.obj
 0001:0000fa90       ??0AppImplMsw@app@cinder@@QAE@PAVApp@12@@Z 00410a90 f   cinder:AppImplMsw.obj
 0001:0000fae0       ??_GAppImplMsw@app@cinder@@UAEPAXI@Z 00410ae0 f i cinder:AppImplMsw.obj
 0001:0000fae0       ??_EAppImplMsw@app@cinder@@UAEPAXI@Z 00410ae0 f i cinder:AppImplMsw.obj
 0001:0000fb10       ?mouseLocation@AppImplMsw@app@cinder@@UAE?AV?$Vec2@H@3@XZ 00410b10 f   cinder:AppImplMsw.obj
 0001:0000fb40       ?getAppPath@AppImplMsw@app@cinder@@SA?AVpath@filesystem3@boost@@XZ 00410b40 f   cinder:AppImplMsw.obj
 0001:0000fc90       ?_Destroy@?$_Ref_count@VDisplay@cinder@@@tr1@std@@EAEXXZ 00410c90 f i cinder:Display.obj
 0001:0000fca0       ??$_Resetp@VDisplay@cinder@@@?$shared_ptr@VDisplay@cinder@@@tr1@std@@AAEXPAVDisplay@cinder@@@Z 00410ca0 f i cinder:Display.obj
 0001:0000fd40       ?push_back@?$vector@V?$shared_ptr@VDisplay@cinder@@@tr1@std@@V?$allocator@V?$shared_ptr@VDisplay@cinder@@@tr1@std@@@3@@std@@QAEXABV?$shared_ptr@VDisplay@cinder@@@tr1@2@@Z 00410d40 f i cinder:Display.obj
 0001:0000fdf0       ?enumMonitorProc@Display@cinder@@SGHPAUHMONITOR__@@PAUHDC__@@PAUtagRECT@@J@Z 00410df0 f   cinder:Display.obj
 0001:0000ff50       ?enumerateDisplays@Display@cinder@@CAXXZ 00410f50 f   cinder:Display.obj
 0001:0000ffd0       ?getMainDisplay@Display@cinder@@SA?AV?$shared_ptr@VDisplay@cinder@@@tr1@std@@XZ 00410fd0 f   cinder:Display.obj
 0001:00010010       ?findFromHmonitor@Display@cinder@@SA?AV?$shared_ptr@VDisplay@cinder@@@tr1@std@@PAUHMONITOR__@@@Z 00411010 f   cinder:Display.obj
 0001:000100b0       _wmemset                   004110b0 f i cinder:Utilities.obj
 0001:000100f0       ??1clone_base@exception_detail@boost@@UAE@XZ 004110f0 f i cinder:Utilities.obj
 0001:00010100       ??_Eclone_base@exception_detail@boost@@UAEPAXI@Z 00411100 f i cinder:Utilities.obj
 0001:00010100       ??_Gclone_base@exception_detail@boost@@UAEPAXI@Z 00411100 f i cinder:Utilities.obj
 0001:00010130       ?_Chassign@?$basic_string@_WU?$char_traits@_W@std@@V?$allocator@_W@2@@std@@QAEXII_W@Z 00411130 f i cinder:Utilities.obj
 0001:00010190       ??1?$refcount_ptr@Uerror_info_container@exception_detail@boost@@@exception_detail@boost@@QAE@XZ 00411190 f i cinder:Utilities.obj
 0001:000101b0       ??0exception@boost@@QAE@ABV01@@Z 004111b0 f i cinder:Utilities.obj
 0001:000101f0       ?copy_boost_exception@exception_detail@boost@@YAXPAVexception@2@PBV32@@Z 004111f0 f i cinder:Utilities.obj
 0001:000102d0       ?reserve@?$vector@_WV?$allocator@_W@std@@@std@@QAEXI@Z 004112d0 f i cinder:Utilities.obj
 0001:00010350       ?reserve@?$vector@DV?$allocator@D@std@@@std@@QAEXI@Z 00411350 f i cinder:Utilities.obj
 0001:000103c0       ?append@?$basic_string@_WU?$char_traits@_W@std@@V?$allocator@_W@2@@std@@QAEAAV12@I_W@Z 004113c0 f i cinder:Utilities.obj
 0001:00010480       ??0clone_base@exception_detail@boost@@QAE@ABV012@@Z 00411480 f i cinder:Utilities.obj
 0001:00010490       ?assign@?$basic_string@DU?$char_traits@D@std@@V?$allocator@D@2@@std@@QAEAAV12@ID@Z 00411490 f i cinder:Utilities.obj
 0001:00010550       ?_Reserve@?$vector@_WV?$allocator@_W@std@@@std@@IAEXI@Z 00411550 f i cinder:Utilities.obj
 0001:000105b0       ?_Reserve@?$vector@DV?$allocator@D@std@@@std@@IAEXI@Z 004115b0 f i cinder:Utilities.obj
 0001:00010610       ?resize@?$vector@_WV?$allocator@_W@std@@@std@@QAEXI@Z 00411610 f i cinder:Utilities.obj
 0001:000106a0       ?resize@?$vector@DV?$allocator@D@std@@@std@@QAEXI@Z 004116a0 f i cinder:Utilities.obj
 0001:00010710       ?toUtf16@cinder@@YA?AV?$basic_string@_WU?$char_traits@_W@std@@V?$allocator@_W@2@@std@@ABV?$basic_string@DU?$char_traits@D@std@@V?$allocator@D@2@@3@@Z 00411710 f   cinder:Utilities.obj
 0001:00010840       ?toUtf8@cinder@@YA?AV?$basic_string@DU?$char_traits@D@std@@V?$allocator@D@2@@std@@ABV?$basic_string@_WU?$char_traits@_W@std@@V?$allocator@_W@2@@3@@Z 00411840 f   cinder:Utilities.obj
 0001:00010980       ?reset@TimelineItem@cinder@@UAEX_N@Z 00411980 f i cinder:Timeline.obj
 0001:000109a0       ?loopStart@Timeline@cinder@@MAEXXZ 004119a0 f   cinder:Timeline.obj
 0001:000109b0       ?_Max@?$_Tree_val@V?$_Tmap_traits@PAXV?$shared_ptr@VTimelineItem@cinder@@@tr1@std@@U?$less@PAX@3@V?$allocator@U?$pair@QAXV?$shared_ptr@VTimelineItem@cinder@@@tr1@std@@@std@@@3@$00@std@@@std@@SAPAU_Node@?$_Tree_nod@V?$_Tmap_traits@PAXV?$shared_ptr@VTimelineItem@cinder@@@tr1@std@@U?$less@PAX@3@V?$allocator@U?$pair@QAXV?$shared_ptr@VTimelineItem@cinder@@@tr1@std@@@std@@@3@$00@std@@@2@PAU342@@Z 004119b0 f i cinder:Timeline.obj
 0001:000109b0       ?_Max@?$_Tree_val@V?$_Tmap_traits@KV?$Vec2@M@cinder@@U?$less@K@std@@V?$allocator@U?$pair@$$CBKV?$Vec2@M@cinder@@@std@@@4@$0A@@std@@@std@@SAPAU_Node@?$_Tree_nod@V?$_Tmap_traits@KV?$Vec2@M@cinder@@U?$less@K@std@@V?$allocator@U?$pair@$$CBKV?$Vec2@M@cinder@@@std@@@4@$0A@@std@@@2@PAU342@@Z 004119b0 f i cinder:AppImplMswBasic.obj
 0001:000109d0       ??E?$_Tree_unchecked_const_iterator@V?$_Tree_val@V?$_Tmap_traits@KV?$Vec2@M@cinder@@U?$less@K@std@@V?$allocator@U?$pair@$$CBKV?$Vec2@M@cinder@@@std@@@4@$0A@@std@@@std@@U_Iterator_base0@2@@std@@QAEAAV01@XZ 004119d0 f i cinder:AppImplMswBasic.obj
 0001:000109d0       ??E?$_Tree_unchecked_const_iterator@V?$_Tree_val@V?$_Tmap_traits@PAXV?$shared_ptr@VTimelineItem@cinder@@@tr1@std@@U?$less@PAX@3@V?$allocator@U?$pair@QAXV?$shared_ptr@VTimelineItem@cinder@@@tr1@std@@@std@@@3@$00@std@@@std@@U_Iterator_base0@2@@std@@QAEAAV01@XZ 004119d0 f i cinder:Timeline.obj
 0001:00010a20       ??1?$_Tree_val@V?$_Tmap_traits@HU?$pair@P6A?AV?$shared_ptr@VImageTarget@cinder@@@tr1@std@@V?$shared_ptr@VDataTarget@cinder@@@23@V?$shared_ptr@VImageSource@cinder@@@23@VOptions@ImageTarget@cinder@@ABV?$basic_string@DU?$char_traits@D@std@@V?$allocator@D@2@@3@@ZV93@@std@@U?$less@H@2@V?$allocator@U?$pair@$$CBHU?$pair@P6A?AV?$shared_ptr@VImageTarget@cinder@@@tr1@std@@V?$shared_ptr@VDataTarget@cinder@@@23@V?$shared_ptr@VImageSource@cinder@@@23@VOptions@ImageTarget@cinder@@ABV?$basic_string@DU?$char_traits@D@std@@V?$allocator@D@2@@3@@ZV93@@std@@@std@@@2@$00@std@@@std@@QAE@XZ 00411a20 f i cinder:ImageIo.obj
 0001:00010a20       ??1?$_Tree_val@V?$_Tmap_traits@HP6A?AV?$shared_ptr@VImageSource@cinder@@@tr1@std@@V?$shared_ptr@VDataSource@cinder@@@23@VOptions@ImageSource@cinder@@@ZU?$less@H@3@V?$allocator@U?$pair@$$CBHP6A?AV?$shared_ptr@VImageSource@cinder@@@tr1@std@@V?$shared_ptr@VDataSource@cinder@@@23@VOptions@ImageSource@cinder@@@Z@std@@@3@$00@std@@@std@@QAE@XZ 00411a20 f i cinder:ImageIo.obj
 0001:00010a20       ??1?$_Tree_val@V?$_Tmap_traits@V?$basic_string@DU?$char_traits@D@std@@V?$allocator@D@2@@std@@V?$multimap@HP6A?AV?$shared_ptr@VImageSource@cinder@@@tr1@std@@V?$shared_ptr@VDataSource@cinder@@@23@VOptions@ImageSource@cinder@@@ZU?$less@H@3@V?$allocator@U?$pair@$$CBHP6A?AV?$shared_ptr@VImageSource@cinder@@@tr1@std@@V?$shared_ptr@VDataSource@cinder@@@23@VOptions@ImageSource@cinder@@@Z@std@@@3@@2@U?$less@V?$basic_string@DU?$char_traits@D@std@@V?$allocator@D@2@@std@@@2@V?$allocator@U?$pair@$$CBV?$basic_string@DU?$char_traits@D@std@@V?$allocator@D@2@@std@@V?$multimap@HP6A?AV?$shared_ptr@VImageSource@cinder@@@tr1@std@@V?$shared_ptr@VDataSource@cinder@@@23@VOptions@ImageSource@cinder@@@ZU?$less@H@3@V?$allocator@U?$pair@$$CBHP6A?AV?$shared_ptr@VImageSource@cinder@@@tr1@std@@V?$shared_ptr@VDataSource@cinder@@@23@VOptions@ImageSource@cinder@@@Z@std@@@3@@2@@std@@@2@$0A@@std@@@std@@QAE@XZ 00411a20 f i cinder:ImageIo.obj
 0001:00010a20       ??1?$_Tree_val@V?$_Tmap_traits@PAXV?$shared_ptr@VTimelineItem@cinder@@@tr1@std@@U?$less@PAX@3@V?$allocator@U?$pair@QAXV?$shared_ptr@VTimelineItem@cinder@@@tr1@std@@@std@@@3@$00@std@@@std@@QAE@XZ 00411a20 f i cinder:Timeline.obj
 0001:00010a20       ??1?$_Tree_val@V?$_Tmap_traits@HP6A?AV?$shared_ptr@VImageSource@cinder@@@tr1@std@@V?$shared_ptr@VDataSource@cinder@@@23@VOptions@ImageSource@cinder@@@ZU?$less@H@3@V?$allocator@U?$pair@$$CBHP6A?AV?$shared_ptr@VImageSource@cinder@@@tr1@std@@V?$shared_ptr@VDataSource@cinder@@@23@VOptions@ImageSource@cinder@@@Z@std@@@3@$0A@@std@@@std@@QAE@XZ 00411a20 f i cinder:ImageIo.obj
 0001:00010a20       ??1?$_Tree_val@V?$_Tmap_traits@V?$basic_string@DU?$char_traits@D@std@@V?$allocator@D@2@@std@@PBU_GUID@@U?$less@V?$basic_string@DU?$char_traits@D@std@@V?$allocator@D@2@@std@@@2@V?$allocator@U?$pair@$$CBV?$basic_string@DU?$char_traits@D@std@@V?$allocator@D@2@@std@@PBU_GUID@@@std@@@2@$0A@@std@@@std@@QAE@XZ 00411a20 f i cinder:ImageTargetFileWic.obj
 0001:00010a20       ??1?$_Tree_val@V?$_Tmap_traits@V?$basic_string@DU?$char_traits@D@std@@V?$allocator@D@2@@std@@V?$multimap@HU?$pair@P6A?AV?$shared_ptr@VImageTarget@cinder@@@tr1@std@@V?$shared_ptr@VDataTarget@cinder@@@23@V?$shared_ptr@VImageSource@cinder@@@23@VOptions@ImageTarget@cinder@@ABV?$basic_string@DU?$char_traits@D@std@@V?$allocator@D@2@@3@@ZV93@@std@@U?$less@H@2@V?$allocator@U?$pair@$$CBHU?$pair@P6A?AV?$shared_ptr@VImageTarget@cinder@@@tr1@std@@V?$shared_ptr@VDataTarget@cinder@@@23@V?$shared_ptr@VImageSource@cinder@@@23@VOptions@ImageTarget@cinder@@ABV?$basic_string@DU?$char_traits@D@std@@V?$allocator@D@2@@3@@ZV93@@std@@@std@@@2@@2@U?$less@V?$basic_string@DU?$char_traits@D@std@@V?$allocator@D@2@@std@@@2@V?$allocator@U?$pair@$$CBV?$basic_string@DU?$char_traits@D@std@@V?$allocator@D@2@@std@@V?$multimap@HU?$pair@P6A?AV?$shared_ptr@VImageTarget@cinder@@@tr1@std@@V?$shared_ptr@VDataTarget@cinder@@@23@V?$shared_ptr@VImageSource@cinder@@@23@VOptions@ImageTarget@cinder@@ABV?$basic_string@DU?$char_traits@D@std@@V?$allocator@D@2@@3@@ZV93@@std@@U?$less@H@2@V?$allocator@U?$pair@$$CBHU?$pair@P6A?AV?$shared_ptr@VImageTarget@cinder@@@tr1@std@@V?$shared_ptr@VDataTarget@cinder@@@23@V?$shared_ptr@VImageSource@cinder@@@23@VOptions@ImageTarget@cinder@@ABV?$basic_string@DU?$char_traits@D@std@@V?$allocator@D@2@@3@@ZV93@@std@@@std@@@2@@2@@std@@@2@$0A@@std@@@std@@QAE@XZ 00411a20 f i cinder:ImageIo.obj
 0001:00010a20       ??1?$_Tree_val@V?$_Tmap_traits@KV?$Vec2@M@cinder@@U?$less@K@std@@V?$allocator@U?$pair@$$CBKV?$Vec2@M@cinder@@@std@@@4@$0A@@std@@@std@@QAE@XZ 00411a20 f i cinder:AppImplMswBasic.obj
 0001:00010a30       ?_Reset0@?$_Ptr_base@V?$basic_dostream@DU?$char_traits@D@std@@@msw@cinder@@@tr1@std@@QAEXPAV?$basic_dostream@DU?$char_traits@D@std@@@msw@cinder@@PAV_Ref_count_base@23@@Z 00411a30 f i cinder:App.obj
 0001:00010a30       ?_Reset0@?$_Ptr_base@VImageTarget@cinder@@@tr1@std@@QAEXPAVImageTarget@cinder@@PAV_Ref_count_base@23@@Z 00411a30 f i cinder:Surface.obj
 0001:00010a30       ?_Reset0@?$_Ptr_base@UIWICBitmapFrameDecode@@@tr1@std@@QAEXPAUIWICBitmapFrameDecode@@PAV_Ref_count_base@23@@Z 00411a30 f i cinder:ImageSourceFileWic.obj
 0001:00010a30       ?_Reset0@?$_Ptr_base@VDisplay@cinder@@@tr1@std@@QAEXPAVDisplay@cinder@@PAV_Ref_count_base@23@@Z 00411a30 f i cinder:Display.obj
 0001:00010a30       ?_Reset0@?$_Ptr_base@VDataSource@cinder@@@tr1@std@@QAEXPAVDataSource@cinder@@PAV_Ref_count_base@23@@Z 00411a30 f i cinder:Utilities.obj
 0001:00010a30       ?_Reset0@?$_Ptr_base@UObj@?$ChannelT@E@cinder@@@tr1@std@@QAEXPAUObj@?$ChannelT@E@cinder@@PAV_Ref_count_base@23@@Z 00411a30 f i cinder:Surface.obj
 0001:00010a30       ?_Reset0@?$_Ptr_base@VImageSourceFileWic@cinder@@@tr1@std@@QAEXPAVImageSourceFileWic@cinder@@PAV_Ref_count_base@23@@Z 00411a30 f i cinder:ImageSourceFileWic.obj
 0001:00010a30       ?_Reset0@?$_Ptr_base@VOStream@cinder@@@tr1@std@@QAEXPAVOStream@cinder@@PAV_Ref_count_base@23@@Z 00411a30 f i cinder:ImageTargetFileWic.obj
 0001:00010a30       ?_Reset0@?$_Ptr_base@VRenderer@app@cinder@@@tr1@std@@QAEXPAVRenderer@app@cinder@@PAV_Ref_count_base@23@@Z 00411a30 f i cinder:App.obj
 0001:00010a30       ?_Reset0@?$_Ptr_base@E@tr1@std@@QAEXPAEPAV_Ref_count_base@23@@Z 00411a30 f i cinder:Texture.obj
 0001:00010a30       ?_Reset0@?$_Ptr_base@VCaptureMgr@cinder@@@tr1@std@@QAEXPAVCaptureMgr@cinder@@PAV_Ref_count_base@23@@Z 00411a30 f i cinder:CaptureImplDirectShow.obj
 0001:00010a30       ?_Reset0@?$_Ptr_base@VTimelineItem@cinder@@@tr1@std@@QAEXPAVTimelineItem@cinder@@PAV_Ref_count_base@23@@Z 00411a30 f i cinder:Timeline.obj
 0001:00010a30       ?_Reset0@?$_Ptr_base@UIWICImagingFactory@@@tr1@std@@QAEXPAUIWICImagingFactory@@PAV_Ref_count_base@23@@Z 00411a30 f i cinder:ImageSourceFileWic.obj
 0001:00010a30       ?_Reset0@?$_Ptr_base@VSurfaceCache@cinder@@@tr1@std@@QAEXPAVSurfaceCache@cinder@@PAV_Ref_count_base@23@@Z 00411a30 f i cinder:CaptureImplDirectShow.obj
 0001:00010a30       ?_Reset0@?$_Ptr_base@UIWICBitmapFrameEncode@@@tr1@std@@QAEXPAUIWICBitmapFrameEncode@@PAV_Ref_count_base@23@@Z 00411a30 f i cinder:ImageTargetFileWic.obj
 0001:00010a30       ?_Reset0@?$_Ptr_base@UObj@Capture@cinder@@@tr1@std@@QAEXPAUObj@Capture@cinder@@PAV_Ref_count_base@23@@Z 00411a30 f i CinderProjectEx1App.obj
 0001:00010a30       ?_Reset0@?$_Ptr_base@UIWICBitmapDecoder@@@tr1@std@@QAEXPAUIWICBitmapDecoder@@PAV_Ref_count_base@23@@Z 00411a30 f i cinder:ImageSourceFileWic.obj
 0001:00010a30       ?_Reset0@?$_Ptr_base@VComOStream@msw@cinder@@@tr1@std@@QAEXPAVComOStream@msw@cinder@@PAV_Ref_count_base@23@@Z 00411a30 f i cinder:ImageTargetFileWic.obj
 0001:00010a30       ?_Reset0@?$_Ptr_base@UIWICBitmapEncoder@@@tr1@std@@QAEXPAUIWICBitmapEncoder@@PAV_Ref_count_base@23@@Z 00411a30 f i cinder:ImageTargetFileWic.obj
 0001:00010a30       ?_Reset0@?$_Ptr_base@UIWICStream@@@tr1@std@@QAEXPAUIWICStream@@PAV_Ref_count_base@23@@Z 00411a30 f i cinder:ImageSourceFileWic.obj
 0001:00010a30       ?_Reset0@?$_Ptr_base@UObj@?$SurfaceT@E@cinder@@@tr1@std@@QAEXPAUObj@?$SurfaceT@E@cinder@@PAV_Ref_count_base@23@@Z 00411a30 f i cinder:Renderer.obj
 0001:00010a30       ?_Reset0@?$_Ptr_base@V?$map@V?$basic_string@DU?$char_traits@D@std@@V?$allocator@D@2@@std@@PBU_GUID@@U?$less@V?$basic_string@DU?$char_traits@D@std@@V?$allocator@D@2@@std@@@2@V?$allocator@U?$pair@$$CBV?$basic_string@DU?$char_traits@D@std@@V?$allocator@D@2@@std@@PBU_GUID@@@std@@@2@@std@@@tr1@std@@QAEXPAV?$map@V?$basic_string@DU?$char_traits@D@std@@V?$allocator@D@2@@std@@PBU_GUID@@U?$less@V?$basic_string@DU?$char_traits@D@std@@V?$allocator@D@2@@std@@@2@V?$allocator@U?$pair@$$CBV?$basic_string@DU?$char_traits@D@std@@V?$allocator@D@2@@std@@PBU_GUID@@@std@@@2@@3@PAV_Ref_count_base@23@@Z 00411a30 f i cinder:ImageTargetFileWic.obj
 0001:00010a30       ?_Reset0@?$_Ptr_base@UObj@Buffer@cinder@@@tr1@std@@QAEXPAUObj@Buffer@cinder@@PAV_Ref_count_base@23@@Z 00411a30 f i cinder:DataSource.obj
 0001:00010a30       ?_Reset0@?$_Ptr_base@UtagTOUCHINPUT@@@tr1@std@@QAEXPAUtagTOUCHINPUT@@PAV_Ref_count_base@23@@Z 00411a30 f i cinder:AppImplMswBasic.obj
 0001:00010a30       ?_Reset0@?$_Ptr_base@VDataTarget@cinder@@@tr1@std@@QAEXPAVDataTarget@cinder@@PAV_Ref_count_base@23@@Z 00411a30 f i cinder:ImageIo.obj
 0001:00010a30       ?_Reset0@?$_Ptr_base@UIWICFormatConverter@@@tr1@std@@QAEXPAUIWICFormatConverter@@PAV_Ref_count_base@23@@Z 00411a30 f i cinder:ImageSourceFileWic.obj
 0001:00010a30       ?_Reset0@?$_Ptr_base@VImageSource@cinder@@@tr1@std@@QAEXPAVImageSource@cinder@@PAV_Ref_count_base@23@@Z 00411a30 f i cinder:Surface.obj
 0001:00010a30       ?_Reset0@?$_Ptr_base@VDevice@Capture@cinder@@@tr1@std@@QAEXPAVDevice@Capture@cinder@@PAV_Ref_count_base@23@@Z 00411a30 f i CinderProjectEx1App.obj
 0001:00010a30       ?_Reset0@?$_Ptr_base@UInst@ImageIoRegistrar@cinder@@@tr1@std@@QAEXPAUInst@ImageIoRegistrar@cinder@@PAV_Ref_count_base@23@@Z 00411a30 f i cinder:ImageIo.obj
 0001:00010a30       ?_Reset0@?$_Ptr_base@VTimeline@cinder@@@tr1@std@@QAEXPAVTimeline@cinder@@PAV_Ref_count_base@23@@Z 00411a30 f i cinder:App.obj
 0001:00010a30       ?_Reset0@?$_Ptr_base@UObj@Texture@gl@cinder@@@tr1@std@@QAEXPAUObj@Texture@gl@cinder@@PAV_Ref_count_base@23@@Z 00411a30 f i CinderProjectEx1App.obj
 0001:00010aa0       ??1TimelineItem@cinder@@UAE@XZ 00411aa0 f i cinder:Timeline.obj
 0001:00010ad0       ?calcDuration@TimelineItem@cinder@@UBEMXZ 00411ad0 f i cinder:Timeline.obj
 0001:00010ae0       ??_GTimelineItem@cinder@@UAEPAXI@Z 00411ae0 f i cinder:Timeline.obj
 0001:00010ae0       ??_ETimelineItem@cinder@@UAEPAXI@Z 00411ae0 f i cinder:Timeline.obj
 0001:00010b20       ??0TimelineItem@cinder@@QAE@ABV01@@Z 00411b20 f i cinder:Timeline.obj
 0001:00010bb0       ?calcDuration@Timeline@cinder@@MBEMXZ 00411bb0 f   cinder:Timeline.obj
 0001:00010c40       ?reset@Timeline@cinder@@UAEX_N@Z 00411c40 f   cinder:Timeline.obj
 0001:00010cc0       ?reverse@Timeline@cinder@@MAEXXZ 00411cc0 f   cinder:Timeline.obj
 0001:00010d30       ??1?$pair@PAXV?$shared_ptr@VTimelineItem@cinder@@@tr1@std@@@std@@QAE@XZ 00411d30 f i cinder:Timeline.obj
 0001:00010d70       ??$make_pair@PAXV?$shared_ptr@VTimelineItem@cinder@@@tr1@std@@@std@@YA?AU?$pair@PAXV?$shared_ptr@VTimelineItem@cinder@@@tr1@std@@@0@ABQAX$$QAV?$shared_ptr@VTimelineItem@cinder@@@tr1@0@@Z 00411d70 f i cinder:Timeline.obj
 0001:00010db0       ?_Insert@?$_Tree@V?$_Tmap_traits@PAXV?$shared_ptr@VTimelineItem@cinder@@@tr1@std@@U?$less@PAX@3@V?$allocator@U?$pair@QAXV?$shared_ptr@VTimelineItem@cinder@@@tr1@std@@@std@@@3@$00@std@@@std@@IAE?AV?$_Tree_iterator@V?$_Tree_val@V?$_Tmap_traits@PAXV?$shared_ptr@VTimelineItem@cinder@@@tr1@std@@U?$less@PAX@3@V?$allocator@U?$pair@QAXV?$shared_ptr@VTimelineItem@cinder@@@tr1@std@@@std@@@3@$00@std@@@std@@@2@_NPAU_Node@?$_Tree_nod@V?$_Tmap_traits@PAXV?$shared_ptr@VTimelineItem@cinder@@@tr1@std@@U?$less@PAX@3@V?$allocator@U?$pair@QAXV?$shared_ptr@VTimelineItem@cinder@@@tr1@std@@@std@@@3@$00@std@@@2@1@Z 00411db0 f i cinder:Timeline.obj
 0001:00011000       ?erase@?$_Tree@V?$_Tmap_traits@PAXV?$shared_ptr@VTimelineItem@cinder@@@tr1@std@@U?$less@PAX@3@V?$allocator@U?$pair@QAXV?$shared_ptr@VTimelineItem@cinder@@@tr1@std@@@std@@@3@$00@std@@@std@@QAE?AV?$_Tree_iterator@V?$_Tree_val@V?$_Tmap_traits@PAXV?$shared_ptr@VTimelineItem@cinder@@@tr1@std@@U?$less@PAX@3@V?$allocator@U?$pair@QAXV?$shared_ptr@VTimelineItem@cinder@@@tr1@std@@@std@@@3@$00@std@@@std@@@2@V?$_Tree_const_iterator@V?$_Tree_val@V?$_Tmap_traits@PAXV?$shared_ptr@VTimelineItem@cinder@@@tr1@std@@U?$less@PAX@3@V?$allocator@U?$pair@QAXV?$shared_ptr@VTimelineItem@cinder@@@tr1@std@@@std@@@3@$00@std@@@std@@@2@@Z 00412000 f i cinder:Timeline.obj
 0001:00011280       ?_Erase@?$_Tree@V?$_Tmap_traits@PAXV?$shared_ptr@VTimelineItem@cinder@@@tr1@std@@U?$less@PAX@3@V?$allocator@U?$pair@QAXV?$shared_ptr@VTimelineItem@cinder@@@tr1@std@@@std@@@3@$00@std@@@std@@IAEXPAU_Node@?$_Tree_nod@V?$_Tmap_traits@PAXV?$shared_ptr@VTimelineItem@cinder@@@tr1@std@@U?$less@PAX@3@V?$allocator@U?$pair@QAXV?$shared_ptr@VTimelineItem@cinder@@@tr1@std@@@std@@@3@$00@std@@@2@@Z 00412280 f i cinder:Timeline.obj
 0001:000112f0       ?eraseMarked@Timeline@cinder@@IAEXXZ 004122f0 f   cinder:Timeline.obj
 0001:000113d0       ?erase@?$_Tree@V?$_Tmap_traits@PAXV?$shared_ptr@VTimelineItem@cinder@@@tr1@std@@U?$less@PAX@3@V?$allocator@U?$pair@QAXV?$shared_ptr@VTimelineItem@cinder@@@tr1@std@@@std@@@3@$00@std@@@std@@QAE?AV?$_Tree_iterator@V?$_Tree_val@V?$_Tmap_traits@PAXV?$shared_ptr@VTimelineItem@cinder@@@tr1@std@@U?$less@PAX@3@V?$allocator@U?$pair@QAXV?$shared_ptr@VTimelineItem@cinder@@@tr1@std@@@std@@@3@$00@std@@@std@@@2@V?$_Tree_const_iterator@V?$_Tree_val@V?$_Tmap_traits@PAXV?$shared_ptr@VTimelineItem@cinder@@@tr1@std@@U?$less@PAX@3@V?$allocator@U?$pair@QAXV?$shared_ptr@VTimelineItem@cinder@@@tr1@std@@@std@@@3@$00@std@@@std@@@2@0@Z 004123d0 f i cinder:Timeline.obj
 0001:00011490       ??$_Buynode@U?$pair@PAXV?$shared_ptr@VTimelineItem@cinder@@@tr1@std@@@std@@@?$_Tree_val@V?$_Tmap_traits@PAXV?$shared_ptr@VTimelineItem@cinder@@@tr1@std@@U?$less@PAX@3@V?$allocator@U?$pair@QAXV?$shared_ptr@VTimelineItem@cinder@@@tr1@std@@@std@@@3@$00@std@@@std@@QAEPAU_Node@?$_Tree_nod@V?$_Tmap_traits@PAXV?$shared_ptr@VTimelineItem@cinder@@@tr1@std@@U?$less@PAX@3@V?$allocator@U?$pair@QAXV?$shared_ptr@VTimelineItem@cinder@@@tr1@std@@@std@@@3@$00@std@@@1@$$QAU?$pair@PAXV?$shared_ptr@VTimelineItem@cinder@@@tr1@std@@@1@@Z 00412490 f i cinder:Timeline.obj
 0001:00011520       ?stepTo@Timeline@cinder@@QAEXM@Z 00412520 f   cinder:Timeline.obj
 0001:000115e0       ?update@Timeline@cinder@@MAEXM@Z 004125e0 f   cinder:Timeline.obj
 0001:00011610       ??1?$multimap@PAXV?$shared_ptr@VTimelineItem@cinder@@@tr1@std@@U?$less@PAX@3@V?$allocator@U?$pair@QAXV?$shared_ptr@VTimelineItem@cinder@@@tr1@std@@@std@@@3@@std@@QAE@XZ 00412610 f i cinder:Timeline.obj
 0001:00011670       ??0Timeline@cinder@@IAE@XZ 00412670 f   cinder:Timeline.obj
 0001:00011740       ?setBorderless@App@app@cinder@@UAEX_N@Z 00412740 f i cinder:App.obj
 0001:00011740       ?setWindowPos@App@app@cinder@@UAEXABV?$Vec2@H@3@@Z 00412740 f i cinder:App.obj
 0001:00011740       ?complete@Timeline@cinder@@MAEX_N@Z 00412740 f i cinder:Timeline.obj
 0001:00011740       ?start@Timeline@cinder@@MAEX_N@Z 00412740 f i cinder:Timeline.obj
 0001:00011740       ?imbue@?$basic_streambuf@DU?$char_traits@D@std@@@std@@MAEXABVlocale@2@@Z 00412740 f i cinder:App.obj
 0001:00011740       ?prepareSettings@AppBasic@app@cinder@@UAEXPAVSettings@123@@Z 00412740 f i CinderProjectEx1App.obj
 0001:00011740       ?setWindowHeight@AppImplMsw@app@cinder@@UAEXH@Z 00412740 f i cinder:AppImplMsw.obj
 0001:00011740       ?setAlwaysOnTop@App@app@cinder@@UAEX_N@Z 00412740 f i cinder:App.obj
 0001:00011740       ?setWindowWidth@AppImplMsw@app@cinder@@UAEXH@Z 00412740 f i cinder:AppImplMsw.obj
 0001:00011750       ?stepTo@Timeline@cinder@@UAEXM_N@Z 00412750 f i cinder:Timeline.obj
 0001:00011770       ??1Timeline@cinder@@UAE@XZ 00412770 f i cinder:Timeline.obj
 0001:00011810       ??_GTimeline@cinder@@UAEPAXI@Z 00412810 f i cinder:Timeline.obj
 0001:00011810       ??_ETimeline@cinder@@UAEPAXI@Z 00412810 f i cinder:Timeline.obj
 0001:00011840       ??0Timeline@cinder@@AAE@ABV01@@Z 00412840 f   cinder:Timeline.obj
 0001:00011a40       ?clone@Timeline@cinder@@MBE?AV?$shared_ptr@VTimelineItem@cinder@@@tr1@std@@XZ 00412a40 f   cinder:Timeline.obj
 0001:00011ad0       ?cloneReverse@Timeline@cinder@@MBE?AV?$shared_ptr@VTimelineItem@cinder@@@tr1@std@@XZ 00412ad0 f   cinder:Timeline.obj
 0001:00011bd0       ??0Exception@cinder@@QAE@XZ 00412bd0 f   cinder:Exception.obj
 0001:00011bf0       ?getBuffer@DataSource@cinder@@QAEAAVBuffer@2@XZ 00412bf0 f   cinder:DataSource.obj
 0001:00011c10       ??0ImageIo@cinder@@IAE@XZ  00412c10 f   cinder:ImageIo.obj
 0001:00011c30       ?channelOrderHasAlpha@ImageIo@cinder@@SA_NW4ChannelOrder@12@@Z 00412c30 f   cinder:ImageIo.obj
 0001:00011c50       ?dataTypeBytes@ImageIo@cinder@@SAEW4DataType@12@@Z 00412c50 f   cinder:ImageIo.obj
 0001:00011c80       ?isPremultiplied@ImageSource@cinder@@QBE_NXZ 00412c80 f   cinder:ImageIo.obj
 0001:00011c90       ?_Min@?$_Tree_val@V?$_Tmap_traits@V?$basic_string@DU?$char_traits@D@std@@V?$allocator@D@2@@std@@V?$multimap@HU?$pair@P6A?AV?$shared_ptr@VImageTarget@cinder@@@tr1@std@@V?$shared_ptr@VDataTarget@cinder@@@23@V?$shared_ptr@VImageSource@cinder@@@23@VOptions@ImageTarget@cinder@@ABV?$basic_string@DU?$char_traits@D@std@@V?$allocator@D@2@@3@@ZV93@@std@@U?$less@H@2@V?$allocator@U?$pair@$$CBHU?$pair@P6A?AV?$shared_ptr@VImageTarget@cinder@@@tr1@std@@V?$shared_ptr@VDataTarget@cinder@@@23@V?$shared_ptr@VImageSource@cinder@@@23@VOptions@ImageTarget@cinder@@ABV?$basic_string@DU?$char_traits@D@std@@V?$allocator@D@2@@3@@ZV93@@std@@@std@@@2@@2@U?$less@V?$basic_string@DU?$char_traits@D@std@@V?$allocator@D@2@@std@@@2@V?$allocator@U?$pair@$$CBV?$basic_string@DU?$char_traits@D@std@@V?$allocator@D@2@@std@@V?$multimap@HU?$pair@P6A?AV?$shared_ptr@VImageTarget@cinder@@@tr1@std@@V?$shared_ptr@VDataTarget@cinder@@@23@V?$shared_ptr@VImageSource@cinder@@@23@VOptions@ImageTarget@cinder@@ABV?$basic_string@DU?$char_traits@D@std@@V?$allocator@D@2@@3@@ZV93@@std@@U?$less@H@2@V?$allocator@U?$pair@$$CBHU?$pair@P6A?AV?$shared_ptr@VImageTarget@cinder@@@tr1@std@@V?$shared_ptr@VDataTarget@cinder@@@23@V?$shared_ptr@VImageSource@cinder@@@23@VOptions@ImageTarget@cinder@@ABV?$basic_string@DU?$char_traits@D@std@@V?$allocator@D@2@@3@@ZV93@@std@@@std@@@2@@2@@std@@@2@$0A@@std@@@std@@SAPAU_Node@?$_Tree_nod@V?$_Tmap_traits@V?$basic_string@DU?$char_traits@D@std@@V?$allocator@D@2@@std@@V?$multimap@HU?$pair@P6A?AV?$shared_ptr@VImageTarget@cinder@@@tr1@std@@V?$shared_ptr@VDataTarget@cinder@@@23@V?$shared_ptr@VImageSource@cinder@@@23@VOptions@ImageTarget@cinder@@ABV?$basic_string@DU?$char_traits@D@std@@V?$allocator@D@2@@3@@ZV93@@std@@U?$less@H@2@V?$allocator@U?$pair@$$CBHU?$pair@P6A?AV?$shared_ptr@VImageTarget@cinder@@@tr1@std@@V?$shared_ptr@VDataTarget@cinder@@@23@V?$shared_ptr@VImageSource@cinder@@@23@VOptions@ImageTarget@cinder@@ABV?$basic_string@DU?$char_traits@D@std@@V?$allocator@D@2@@3@@ZV93@@std@@@std@@@2@@2@U?$less@V?$basic_string@DU?$char_traits@D@std@@V?$allocator@D@2@@std@@@2@V?$allocator@U?$pair@$$CBV?$basic_string@DU?$char_traits@D@std@@V?$allocator@D@2@@std@@V?$multimap@HU?$pair@P6A?AV?$shared_ptr@VImageTarget@cinder@@@tr1@std@@V?$shared_ptr@VDataTarget@cinder@@@23@V?$shared_ptr@VImageSource@cinder@@@23@VOptions@ImageTarget@cinder@@ABV?$basic_string@DU?$char_traits@D@std@@V?$allocator@D@2@@3@@ZV93@@std@@U?$less@H@2@V?$allocator@U?$pair@$$CBHU?$pair@P6A?AV?$shared_ptr@VImageTarget@cinder@@@tr1@std@@V?$shared_ptr@VDataTarget@cinder@@@23@V?$shared_ptr@VImageSource@cinder@@@23@VOptions@ImageTarget@cinder@@ABV?$basic_string@DU?$char_traits@D@std@@V?$allocator@D@2@@3@@ZV93@@std@@@std@@@2@@2@@std@@@2@$0A@@std@@@2@PAU342@@Z 00412c90 f i cinder:ImageIo.obj
 0001:00011c90       ?_Min@?$_Tree_val@V?$_Tmap_traits@V?$basic_string@DU?$char_traits@D@std@@V?$allocator@D@2@@std@@V?$multimap@HP6A?AV?$shared_ptr@VImageSource@cinder@@@tr1@std@@V?$shared_ptr@VDataSource@cinder@@@23@VOptions@ImageSource@cinder@@@ZU?$less@H@3@V?$allocator@U?$pair@$$CBHP6A?AV?$shared_ptr@VImageSource@cinder@@@tr1@std@@V?$shared_ptr@VDataSource@cinder@@@23@VOptions@ImageSource@cinder@@@Z@std@@@3@@2@U?$less@V?$basic_string@DU?$char_traits@D@std@@V?$allocator@D@2@@std@@@2@V?$allocator@U?$pair@$$CBV?$basic_string@DU?$char_traits@D@std@@V?$allocator@D@2@@std@@V?$multimap@HP6A?AV?$shared_ptr@VImageSource@cinder@@@tr1@std@@V?$shared_ptr@VDataSource@cinder@@@23@VOptions@ImageSource@cinder@@@ZU?$less@H@3@V?$allocator@U?$pair@$$CBHP6A?AV?$shared_ptr@VImageSource@cinder@@@tr1@std@@V?$shared_ptr@VDataSource@cinder@@@23@VOptions@ImageSource@cinder@@@Z@std@@@3@@2@@std@@@2@$0A@@std@@@std@@SAPAU_Node@?$_Tree_nod@V?$_Tmap_traits@V?$basic_string@DU?$char_traits@D@std@@V?$allocator@D@2@@std@@V?$multimap@HP6A?AV?$shared_ptr@VImageSource@cinder@@@tr1@std@@V?$shared_ptr@VDataSource@cinder@@@23@VOptions@ImageSource@cinder@@@ZU?$less@H@3@V?$allocator@U?$pair@$$CBHP6A?AV?$shared_ptr@VImageSource@cinder@@@tr1@std@@V?$shared_ptr@VDataSource@cinder@@@23@VOptions@ImageSource@cinder@@@Z@std@@@3@@2@U?$less@V?$basic_string@DU?$char_traits@D@std@@V?$allocator@D@2@@std@@@2@V?$allocator@U?$pair@$$CBV?$basic_string@DU?$char_traits@D@std@@V?$allocator@D@2@@std@@V?$multimap@HP6A?AV?$shared_ptr@VImageSource@cinder@@@tr1@std@@V?$shared_ptr@VDataSource@cinder@@@23@VOptions@ImageSource@cinder@@@ZU?$less@H@3@V?$allocator@U?$pair@$$CBHP6A?AV?$shared_ptr@VImageSource@cinder@@@tr1@std@@V?$shared_ptr@VDataSource@cinder@@@23@VOptions@ImageSource@cinder@@@Z@std@@@3@@2@@std@@@2@$0A@@std@@@2@PAU342@@Z 00412c90 f i cinder:ImageIo.obj
 0001:00011cb0       ?_Min@?$_Tree_val@V?$_Tmap_traits@HP6A?AV?$shared_ptr@VImageSource@cinder@@@tr1@std@@V?$shared_ptr@VDataSource@cinder@@@23@VOptions@ImageSource@cinder@@@ZU?$less@H@3@V?$allocator@U?$pair@$$CBHP6A?AV?$shared_ptr@VImageSource@cinder@@@tr1@std@@V?$shared_ptr@VDataSource@cinder@@@23@VOptions@ImageSource@cinder@@@Z@std@@@3@$00@std@@@std@@SAPAU_Node@?$_Tree_nod@V?$_Tmap_traits@HP6A?AV?$shared_ptr@VImageSource@cinder@@@tr1@std@@V?$shared_ptr@VDataSource@cinder@@@23@VOptions@ImageSource@cinder@@@ZU?$less@H@3@V?$allocator@U?$pair@$$CBHP6A?AV?$shared_ptr@VImageSource@cinder@@@tr1@std@@V?$shared_ptr@VDataSource@cinder@@@23@VOptions@ImageSource@cinder@@@Z@std@@@3@$00@std@@@2@PAU342@@Z 00412cb0 f i cinder:ImageIo.obj
 0001:00011cb0       ?_Min@?$_Tree_val@V?$_Tmap_traits@HP6A?AV?$shared_ptr@VImageSource@cinder@@@tr1@std@@V?$shared_ptr@VDataSource@cinder@@@23@VOptions@ImageSource@cinder@@@ZU?$less@H@3@V?$allocator@U?$pair@$$CBHP6A?AV?$shared_ptr@VImageSource@cinder@@@tr1@std@@V?$shared_ptr@VDataSource@cinder@@@23@VOptions@ImageSource@cinder@@@Z@std@@@3@$0A@@std@@@std@@SAPAU_Node@?$_Tree_nod@V?$_Tmap_traits@HP6A?AV?$shared_ptr@VImageSource@cinder@@@tr1@std@@V?$shared_ptr@VDataSource@cinder@@@23@VOptions@ImageSource@cinder@@@ZU?$less@H@3@V?$allocator@U?$pair@$$CBHP6A?AV?$shared_ptr@VImageSource@cinder@@@tr1@std@@V?$shared_ptr@VDataSource@cinder@@@23@VOptions@ImageSource@cinder@@@Z@std@@@3@$0A@@std@@@2@PAU342@@Z 00412cb0 f i cinder:ImageIo.obj
 0001:00011cd0       ?_Lrotate@?$_Tree@V?$_Tmap_traits@V?$basic_string@DU?$char_traits@D@std@@V?$allocator@D@2@@std@@V?$multimap@HP6A?AV?$shared_ptr@VImageSource@cinder@@@tr1@std@@V?$shared_ptr@VDataSource@cinder@@@23@VOptions@ImageSource@cinder@@@ZU?$less@H@3@V?$allocator@U?$pair@$$CBHP6A?AV?$shared_ptr@VImageSource@cinder@@@tr1@std@@V?$shared_ptr@VDataSource@cinder@@@23@VOptions@ImageSource@cinder@@@Z@std@@@3@@2@U?$less@V?$basic_string@DU?$char_traits@D@std@@V?$allocator@D@2@@std@@@2@V?$allocator@U?$pair@$$CBV?$basic_string@DU?$char_traits@D@std@@V?$allocator@D@2@@std@@V?$multimap@HP6A?AV?$shared_ptr@VImageSource@cinder@@@tr1@std@@V?$shared_ptr@VDataSource@cinder@@@23@VOptions@ImageSource@cinder@@@ZU?$less@H@3@V?$allocator@U?$pair@$$CBHP6A?AV?$shared_ptr@VImageSource@cinder@@@tr1@std@@V?$shared_ptr@VDataSource@cinder@@@23@VOptions@ImageSource@cinder@@@Z@std@@@3@@2@@std@@@2@$0A@@std@@@std@@IAEXPAU_Node@?$_Tree_nod@V?$_Tmap_traits@V?$basic_string@DU?$char_traits@D@std@@V?$allocator@D@2@@std@@V?$multimap@HP6A?AV?$shared_ptr@VImageSource@cinder@@@tr1@std@@V?$shared_ptr@VDataSource@cinder@@@23@VOptions@ImageSource@cinder@@@ZU?$less@H@3@V?$allocator@U?$pair@$$CBHP6A?AV?$shared_ptr@VImageSource@cinder@@@tr1@std@@V?$shared_ptr@VDataSource@cinder@@@23@VOptions@ImageSource@cinder@@@Z@std@@@3@@2@U?$less@V?$basic_string@DU?$char_traits@D@std@@V?$allocator@D@2@@std@@@2@V?$allocator@U?$pair@$$CBV?$basic_string@DU?$char_traits@D@std@@V?$allocator@D@2@@std@@V?$multimap@HP6A?AV?$shared_ptr@VImageSource@cinder@@@tr1@std@@V?$shared_ptr@VDataSource@cinder@@@23@VOptions@ImageSource@cinder@@@ZU?$less@H@3@V?$allocator@U?$pair@$$CBHP6A?AV?$shared_ptr@VImageSource@cinder@@@tr1@std@@V?$shared_ptr@VDataSource@cinder@@@23@VOptions@ImageSource@cinder@@@Z@std@@@3@@2@@std@@@2@$0A@@std@@@2@@Z 00412cd0 f i cinder:ImageIo.obj
 0001:00011cd0       ?_Lrotate@?$_Tree@V?$_Tmap_traits@V?$basic_string@DU?$char_traits@D@std@@V?$allocator@D@2@@std@@V?$multimap@HU?$pair@P6A?AV?$shared_ptr@VImageTarget@cinder@@@tr1@std@@V?$shared_ptr@VDataTarget@cinder@@@23@V?$shared_ptr@VImageSource@cinder@@@23@VOptions@ImageTarget@cinder@@ABV?$basic_string@DU?$char_traits@D@std@@V?$allocator@D@2@@3@@ZV93@@std@@U?$less@H@2@V?$allocator@U?$pair@$$CBHU?$pair@P6A?AV?$shared_ptr@VImageTarget@cinder@@@tr1@std@@V?$shared_ptr@VDataTarget@cinder@@@23@V?$shared_ptr@VImageSource@cinder@@@23@VOptions@ImageTarget@cinder@@ABV?$basic_string@DU?$char_traits@D@std@@V?$allocator@D@2@@3@@ZV93@@std@@@std@@@2@@2@U?$less@V?$basic_string@DU?$char_traits@D@std@@V?$allocator@D@2@@std@@@2@V?$allocator@U?$pair@$$CBV?$basic_string@DU?$char_traits@D@std@@V?$allocator@D@2@@std@@V?$multimap@HU?$pair@P6A?AV?$shared_ptr@VImageTarget@cinder@@@tr1@std@@V?$shared_ptr@VDataTarget@cinder@@@23@V?$shared_ptr@VImageSource@cinder@@@23@VOptions@ImageTarget@cinder@@ABV?$basic_string@DU?$char_traits@D@std@@V?$allocator@D@2@@3@@ZV93@@std@@U?$less@H@2@V?$allocator@U?$pair@$$CBHU?$pair@P6A?AV?$shared_ptr@VImageTarget@cinder@@@tr1@std@@V?$shared_ptr@VDataTarget@cinder@@@23@V?$shared_ptr@VImageSource@cinder@@@23@VOptions@ImageTarget@cinder@@ABV?$basic_string@DU?$char_traits@D@std@@V?$allocator@D@2@@3@@ZV93@@std@@@std@@@2@@2@@std@@@2@$0A@@std@@@std@@IAEXPAU_Node@?$_Tree_nod@V?$_Tmap_traits@V?$basic_string@DU?$char_traits@D@std@@V?$allocator@D@2@@std@@V?$multimap@HU?$pair@P6A?AV?$shared_ptr@VImageTarget@cinder@@@tr1@std@@V?$shared_ptr@VDataTarget@cinder@@@23@V?$shared_ptr@VImageSource@cinder@@@23@VOptions@ImageTarget@cinder@@ABV?$basic_string@DU?$char_traits@D@std@@V?$allocator@D@2@@3@@ZV93@@std@@U?$less@H@2@V?$allocator@U?$pair@$$CBHU?$pair@P6A?AV?$shared_ptr@VImageTarget@cinder@@@tr1@std@@V?$shared_ptr@VDataTarget@cinder@@@23@V?$shared_ptr@VImageSource@cinder@@@23@VOptions@ImageTarget@cinder@@ABV?$basic_string@DU?$char_traits@D@std@@V?$allocator@D@2@@3@@ZV93@@std@@@std@@@2@@2@U?$less@V?$basic_string@DU?$char_traits@D@std@@V?$allocator@D@2@@std@@@2@V?$allocator@U?$pair@$$CBV?$basic_string@DU?$char_traits@D@std@@V?$allocator@D@2@@std@@V?$multimap@HU?$pair@P6A?AV?$shared_ptr@VImageTarget@cinder@@@tr1@std@@V?$shared_ptr@VDataTarget@cinder@@@23@V?$shared_ptr@VImageSource@cinder@@@23@VOptions@ImageTarget@cinder@@ABV?$basic_string@DU?$char_traits@D@std@@V?$allocator@D@2@@3@@ZV93@@std@@U?$less@H@2@V?$allocator@U?$pair@$$CBHU?$pair@P6A?AV?$shared_ptr@VImageTarget@cinder@@@tr1@std@@V?$shared_ptr@VDataTarget@cinder@@@23@V?$shared_ptr@VImageSource@cinder@@@23@VOptions@ImageTarget@cinder@@ABV?$basic_string@DU?$char_traits@D@std@@V?$allocator@D@2@@3@@ZV93@@std@@@std@@@2@@2@@std@@@2@$0A@@std@@@2@@Z 00412cd0 f i cinder:ImageIo.obj
 0001:00011d30       ?_Rrotate@?$_Tree@V?$_Tmap_traits@V?$basic_string@DU?$char_traits@D@std@@V?$allocator@D@2@@std@@V?$multimap@HP6A?AV?$shared_ptr@VImageSource@cinder@@@tr1@std@@V?$shared_ptr@VDataSource@cinder@@@23@VOptions@ImageSource@cinder@@@ZU?$less@H@3@V?$allocator@U?$pair@$$CBHP6A?AV?$shared_ptr@VImageSource@cinder@@@tr1@std@@V?$shared_ptr@VDataSource@cinder@@@23@VOptions@ImageSource@cinder@@@Z@std@@@3@@2@U?$less@V?$basic_string@DU?$char_traits@D@std@@V?$allocator@D@2@@std@@@2@V?$allocator@U?$pair@$$CBV?$basic_string@DU?$char_traits@D@std@@V?$allocator@D@2@@std@@V?$multimap@HP6A?AV?$shared_ptr@VImageSource@cinder@@@tr1@std@@V?$shared_ptr@VDataSource@cinder@@@23@VOptions@ImageSource@cinder@@@ZU?$less@H@3@V?$allocator@U?$pair@$$CBHP6A?AV?$shared_ptr@VImageSource@cinder@@@tr1@std@@V?$shared_ptr@VDataSource@cinder@@@23@VOptions@ImageSource@cinder@@@Z@std@@@3@@2@@std@@@2@$0A@@std@@@std@@IAEXPAU_Node@?$_Tree_nod@V?$_Tmap_traits@V?$basic_string@DU?$char_traits@D@std@@V?$allocator@D@2@@std@@V?$multimap@HP6A?AV?$shared_ptr@VImageSource@cinder@@@tr1@std@@V?$shared_ptr@VDataSource@cinder@@@23@VOptions@ImageSource@cinder@@@ZU?$less@H@3@V?$allocator@U?$pair@$$CBHP6A?AV?$shared_ptr@VImageSource@cinder@@@tr1@std@@V?$shared_ptr@VDataSource@cinder@@@23@VOptions@ImageSource@cinder@@@Z@std@@@3@@2@U?$less@V?$basic_string@DU?$char_traits@D@std@@V?$allocator@D@2@@std@@@2@V?$allocator@U?$pair@$$CBV?$basic_string@DU?$char_traits@D@std@@V?$allocator@D@2@@std@@V?$multimap@HP6A?AV?$shared_ptr@VImageSource@cinder@@@tr1@std@@V?$shared_ptr@VDataSource@cinder@@@23@VOptions@ImageSource@cinder@@@ZU?$less@H@3@V?$allocator@U?$pair@$$CBHP6A?AV?$shared_ptr@VImageSource@cinder@@@tr1@std@@V?$shared_ptr@VDataSource@cinder@@@23@VOptions@ImageSource@cinder@@@Z@std@@@3@@2@@std@@@2@$0A@@std@@@2@@Z 00412d30 f i cinder:ImageIo.obj
 0001:00011d30       ?_Rrotate@?$_Tree@V?$_Tmap_traits@V?$basic_string@DU?$char_traits@D@std@@V?$allocator@D@2@@std@@V?$multimap@HU?$pair@P6A?AV?$shared_ptr@VImageTarget@cinder@@@tr1@std@@V?$shared_ptr@VDataTarget@cinder@@@23@V?$shared_ptr@VImageSource@cinder@@@23@VOptions@ImageTarget@cinder@@ABV?$basic_string@DU?$char_traits@D@std@@V?$allocator@D@2@@3@@ZV93@@std@@U?$less@H@2@V?$allocator@U?$pair@$$CBHU?$pair@P6A?AV?$shared_ptr@VImageTarget@cinder@@@tr1@std@@V?$shared_ptr@VDataTarget@cinder@@@23@V?$shared_ptr@VImageSource@cinder@@@23@VOptions@ImageTarget@cinder@@ABV?$basic_string@DU?$char_traits@D@std@@V?$allocator@D@2@@3@@ZV93@@std@@@std@@@2@@2@U?$less@V?$basic_string@DU?$char_traits@D@std@@V?$allocator@D@2@@std@@@2@V?$allocator@U?$pair@$$CBV?$basic_string@DU?$char_traits@D@std@@V?$allocator@D@2@@std@@V?$multimap@HU?$pair@P6A?AV?$shared_ptr@VImageTarget@cinder@@@tr1@std@@V?$shared_ptr@VDataTarget@cinder@@@23@V?$shared_ptr@VImageSource@cinder@@@23@VOptions@ImageTarget@cinder@@ABV?$basic_string@DU?$char_traits@D@std@@V?$allocator@D@2@@3@@ZV93@@std@@U?$less@H@2@V?$allocator@U?$pair@$$CBHU?$pair@P6A?AV?$shared_ptr@VImageTarget@cinder@@@tr1@std@@V?$shared_ptr@VDataTarget@cinder@@@23@V?$shared_ptr@VImageSource@cinder@@@23@VOptions@ImageTarget@cinder@@ABV?$basic_string@DU?$char_traits@D@std@@V?$allocator@D@2@@3@@ZV93@@std@@@std@@@2@@2@@std@@@2@$0A@@std@@@std@@IAEXPAU_Node@?$_Tree_nod@V?$_Tmap_traits@V?$basic_string@DU?$char_traits@D@std@@V?$allocator@D@2@@std@@V?$multimap@HU?$pair@P6A?AV?$shared_ptr@VImageTarget@cinder@@@tr1@std@@V?$shared_ptr@VDataTarget@cinder@@@23@V?$shared_ptr@VImageSource@cinder@@@23@VOptions@ImageTarget@cinder@@ABV?$basic_string@DU?$char_traits@D@std@@V?$allocator@D@2@@3@@ZV93@@std@@U?$less@H@2@V?$allocator@U?$pair@$$CBHU?$pair@P6A?AV?$shared_ptr@VImageTarget@cinder@@@tr1@std@@V?$shared_ptr@VDataTarget@cinder@@@23@V?$shared_ptr@VImageSource@cinder@@@23@VOptions@ImageTarget@cinder@@ABV?$basic_string@DU?$char_traits@D@std@@V?$allocator@D@2@@3@@ZV93@@std@@@std@@@2@@2@U?$less@V?$basic_string@DU?$char_traits@D@std@@V?$allocator@D@2@@std@@@2@V?$allocator@U?$pair@$$CBV?$basic_string@DU?$char_traits@D@std@@V?$allocator@D@2@@std@@V?$multimap@HU?$pair@P6A?AV?$shared_ptr@VImageTarget@cinder@@@tr1@std@@V?$shared_ptr@VDataTarget@cinder@@@23@V?$shared_ptr@VImageSource@cinder@@@23@VOptions@ImageTarget@cinder@@ABV?$basic_string@DU?$char_traits@D@std@@V?$allocator@D@2@@3@@ZV93@@std@@U?$less@H@2@V?$allocator@U?$pair@$$CBHU?$pair@P6A?AV?$shared_ptr@VImageTarget@cinder@@@tr1@std@@V?$shared_ptr@VDataTarget@cinder@@@23@V?$shared_ptr@VImageSource@cinder@@@23@VOptions@ImageTarget@cinder@@ABV?$basic_string@DU?$char_traits@D@std@@V?$allocator@D@2@@3@@ZV93@@std@@@std@@@2@@2@@std@@@2@$0A@@std@@@2@@Z 00412d30 f i cinder:ImageIo.obj
 0001:00011d90       ?_Rrotate@?$_Tree@V?$_Tmap_traits@HP6A?AV?$shared_ptr@VImageSource@cinder@@@tr1@std@@V?$shared_ptr@VDataSource@cinder@@@23@VOptions@ImageSource@cinder@@@ZU?$less@H@3@V?$allocator@U?$pair@$$CBHP6A?AV?$shared_ptr@VImageSource@cinder@@@tr1@std@@V?$shared_ptr@VDataSource@cinder@@@23@VOptions@ImageSource@cinder@@@Z@std@@@3@$0A@@std@@@std@@IAEXPAU_Node@?$_Tree_nod@V?$_Tmap_traits@HP6A?AV?$shared_ptr@VImageSource@cinder@@@tr1@std@@V?$shared_ptr@VDataSource@cinder@@@23@VOptions@ImageSource@cinder@@@ZU?$less@H@3@V?$allocator@U?$pair@$$CBHP6A?AV?$shared_ptr@VImageSource@cinder@@@tr1@std@@V?$shared_ptr@VDataSource@cinder@@@23@VOptions@ImageSource@cinder@@@Z@std@@@3@$0A@@std@@@2@@Z 00412d90 f i cinder:ImageIo.obj
 0001:00011d90       ?_Rrotate@?$_Tree@V?$_Tmap_traits@HP6A?AV?$shared_ptr@VImageSource@cinder@@@tr1@std@@V?$shared_ptr@VDataSource@cinder@@@23@VOptions@ImageSource@cinder@@@ZU?$less@H@3@V?$allocator@U?$pair@$$CBHP6A?AV?$shared_ptr@VImageSource@cinder@@@tr1@std@@V?$shared_ptr@VDataSource@cinder@@@23@VOptions@ImageSource@cinder@@@Z@std@@@3@$00@std@@@std@@IAEXPAU_Node@?$_Tree_nod@V?$_Tmap_traits@HP6A?AV?$shared_ptr@VImageSource@cinder@@@tr1@std@@V?$shared_ptr@VDataSource@cinder@@@23@VOptions@ImageSource@cinder@@@ZU?$less@H@3@V?$allocator@U?$pair@$$CBHP6A?AV?$shared_ptr@VImageSource@cinder@@@tr1@std@@V?$shared_ptr@VDataSource@cinder@@@23@VOptions@ImageSource@cinder@@@Z@std@@@3@$00@std@@@2@@Z 00412d90 f i cinder:ImageIo.obj
 0001:00011df0       ?_Max@?$_Tree_val@V?$_Tmap_traits@HP6A?AV?$shared_ptr@VImageSource@cinder@@@tr1@std@@V?$shared_ptr@VDataSource@cinder@@@23@VOptions@ImageSource@cinder@@@ZU?$less@H@3@V?$allocator@U?$pair@$$CBHP6A?AV?$shared_ptr@VImageSource@cinder@@@tr1@std@@V?$shared_ptr@VDataSource@cinder@@@23@VOptions@ImageSource@cinder@@@Z@std@@@3@$0A@@std@@@std@@SAPAU_Node@?$_Tree_nod@V?$_Tmap_traits@HP6A?AV?$shared_ptr@VImageSource@cinder@@@tr1@std@@V?$shared_ptr@VDataSource@cinder@@@23@VOptions@ImageSource@cinder@@@ZU?$less@H@3@V?$allocator@U?$pair@$$CBHP6A?AV?$shared_ptr@VImageSource@cinder@@@tr1@std@@V?$shared_ptr@VDataSource@cinder@@@23@VOptions@ImageSource@cinder@@@Z@std@@@3@$0A@@std@@@2@PAU342@@Z 00412df0 f i cinder:ImageIo.obj
 0001:00011df0       ?_Max@?$_Tree_val@V?$_Tmap_traits@HP6A?AV?$shared_ptr@VImageSource@cinder@@@tr1@std@@V?$shared_ptr@VDataSource@cinder@@@23@VOptions@ImageSource@cinder@@@ZU?$less@H@3@V?$allocator@U?$pair@$$CBHP6A?AV?$shared_ptr@VImageSource@cinder@@@tr1@std@@V?$shared_ptr@VDataSource@cinder@@@23@VOptions@ImageSource@cinder@@@Z@std@@@3@$00@std@@@std@@SAPAU_Node@?$_Tree_nod@V?$_Tmap_traits@HP6A?AV?$shared_ptr@VImageSource@cinder@@@tr1@std@@V?$shared_ptr@VDataSource@cinder@@@23@VOptions@ImageSource@cinder@@@ZU?$less@H@3@V?$allocator@U?$pair@$$CBHP6A?AV?$shared_ptr@VImageSource@cinder@@@tr1@std@@V?$shared_ptr@VDataSource@cinder@@@23@VOptions@ImageSource@cinder@@@Z@std@@@3@$00@std@@@2@PAU342@@Z 00412df0 f i cinder:ImageIo.obj
 0001:00011e10       ?_Max@?$_Tree_val@V?$_Tmap_traits@V?$basic_string@DU?$char_traits@D@std@@V?$allocator@D@2@@std@@V?$multimap@HP6A?AV?$shared_ptr@VImageSource@cinder@@@tr1@std@@V?$shared_ptr@VDataSource@cinder@@@23@VOptions@ImageSource@cinder@@@ZU?$less@H@3@V?$allocator@U?$pair@$$CBHP6A?AV?$shared_ptr@VImageSource@cinder@@@tr1@std@@V?$shared_ptr@VDataSource@cinder@@@23@VOptions@ImageSource@cinder@@@Z@std@@@3@@2@U?$less@V?$basic_string@DU?$char_traits@D@std@@V?$allocator@D@2@@std@@@2@V?$allocator@U?$pair@$$CBV?$basic_string@DU?$char_traits@D@std@@V?$allocator@D@2@@std@@V?$multimap@HP6A?AV?$shared_ptr@VImageSource@cinder@@@tr1@std@@V?$shared_ptr@VDataSource@cinder@@@23@VOptions@ImageSource@cinder@@@ZU?$less@H@3@V?$allocator@U?$pair@$$CBHP6A?AV?$shared_ptr@VImageSource@cinder@@@tr1@std@@V?$shared_ptr@VDataSource@cinder@@@23@VOptions@ImageSource@cinder@@@Z@std@@@3@@2@@std@@@2@$0A@@std@@@std@@SAPAU_Node@?$_Tree_nod@V?$_Tmap_traits@V?$basic_string@DU?$char_traits@D@std@@V?$allocator@D@2@@std@@V?$multimap@HP6A?AV?$shared_ptr@VImageSource@cinder@@@tr1@std@@V?$shared_ptr@VDataSource@cinder@@@23@VOptions@ImageSource@cinder@@@ZU?$less@H@3@V?$allocator@U?$pair@$$CBHP6A?AV?$shared_ptr@VImageSource@cinder@@@tr1@std@@V?$shared_ptr@VDataSource@cinder@@@23@VOptions@ImageSource@cinder@@@Z@std@@@3@@2@U?$less@V?$basic_string@DU?$char_traits@D@std@@V?$allocator@D@2@@std@@@2@V?$allocator@U?$pair@$$CBV?$basic_string@DU?$char_traits@D@std@@V?$allocator@D@2@@std@@V?$multimap@HP6A?AV?$shared_ptr@VImageSource@cinder@@@tr1@std@@V?$shared_ptr@VDataSource@cinder@@@23@VOptions@ImageSource@cinder@@@ZU?$less@H@3@V?$allocator@U?$pair@$$CBHP6A?AV?$shared_ptr@VImageSource@cinder@@@tr1@std@@V?$shared_ptr@VDataSource@cinder@@@23@VOptions@ImageSource@cinder@@@Z@std@@@3@@2@@std@@@2@$0A@@std@@@2@PAU342@@Z 00412e10 f i cinder:ImageIo.obj
 0001:00011e10       ?_Max@?$_Tree_val@V?$_Tmap_traits@V?$basic_string@DU?$char_traits@D@std@@V?$allocator@D@2@@std@@V?$multimap@HU?$pair@P6A?AV?$shared_ptr@VImageTarget@cinder@@@tr1@std@@V?$shared_ptr@VDataTarget@cinder@@@23@V?$shared_ptr@VImageSource@cinder@@@23@VOptions@ImageTarget@cinder@@ABV?$basic_string@DU?$char_traits@D@std@@V?$allocator@D@2@@3@@ZV93@@std@@U?$less@H@2@V?$allocator@U?$pair@$$CBHU?$pair@P6A?AV?$shared_ptr@VImageTarget@cinder@@@tr1@std@@V?$shared_ptr@VDataTarget@cinder@@@23@V?$shared_ptr@VImageSource@cinder@@@23@VOptions@ImageTarget@cinder@@ABV?$basic_string@DU?$char_traits@D@std@@V?$allocator@D@2@@3@@ZV93@@std@@@std@@@2@@2@U?$less@V?$basic_string@DU?$char_traits@D@std@@V?$allocator@D@2@@std@@@2@V?$allocator@U?$pair@$$CBV?$basic_string@DU?$char_traits@D@std@@V?$allocator@D@2@@std@@V?$multimap@HU?$pair@P6A?AV?$shared_ptr@VImageTarget@cinder@@@tr1@std@@V?$shared_ptr@VDataTarget@cinder@@@23@V?$shared_ptr@VImageSource@cinder@@@23@VOptions@ImageTarget@cinder@@ABV?$basic_string@DU?$char_traits@D@std@@V?$allocator@D@2@@3@@ZV93@@std@@U?$less@H@2@V?$allocator@U?$pair@$$CBHU?$pair@P6A?AV?$shared_ptr@VImageTarget@cinder@@@tr1@std@@V?$shared_ptr@VDataTarget@cinder@@@23@V?$shared_ptr@VImageSource@cinder@@@23@VOptions@ImageTarget@cinder@@ABV?$basic_string@DU?$char_traits@D@std@@V?$allocator@D@2@@3@@ZV93@@std@@@std@@@2@@2@@std@@@2@$0A@@std@@@std@@SAPAU_Node@?$_Tree_nod@V?$_Tmap_traits@V?$basic_string@DU?$char_traits@D@std@@V?$allocator@D@2@@std@@V?$multimap@HU?$pair@P6A?AV?$shared_ptr@VImageTarget@cinder@@@tr1@std@@V?$shared_ptr@VDataTarget@cinder@@@23@V?$shared_ptr@VImageSource@cinder@@@23@VOptions@ImageTarget@cinder@@ABV?$basic_string@DU?$char_traits@D@std@@V?$allocator@D@2@@3@@ZV93@@std@@U?$less@H@2@V?$allocator@U?$pair@$$CBHU?$pair@P6A?AV?$shared_ptr@VImageTarget@cinder@@@tr1@std@@V?$shared_ptr@VDataTarget@cinder@@@23@V?$shared_ptr@VImageSource@cinder@@@23@VOptions@ImageTarget@cinder@@ABV?$basic_string@DU?$char_traits@D@std@@V?$allocator@D@2@@3@@ZV93@@std@@@std@@@2@@2@U?$less@V?$basic_string@DU?$char_traits@D@std@@V?$allocator@D@2@@std@@@2@V?$allocator@U?$pair@$$CBV?$basic_string@DU?$char_traits@D@std@@V?$allocator@D@2@@std@@V?$multimap@HU?$pair@P6A?AV?$shared_ptr@VImageTarget@cinder@@@tr1@std@@V?$shared_ptr@VDataTarget@cinder@@@23@V?$shared_ptr@VImageSource@cinder@@@23@VOptions@ImageTarget@cinder@@ABV?$basic_string@DU?$char_traits@D@std@@V?$allocator@D@2@@3@@ZV93@@std@@U?$less@H@2@V?$allocator@U?$pair@$$CBHU?$pair@P6A?AV?$shared_ptr@VImageTarget@cinder@@@tr1@std@@V?$shared_ptr@VDataTarget@cinder@@@23@V?$shared_ptr@VImageSource@cinder@@@23@VOptions@ImageTarget@cinder@@ABV?$basic_string@DU?$char_traits@D@std@@V?$allocator@D@2@@3@@ZV93@@std@@@std@@@2@@2@@std@@@2@$0A@@std@@@2@PAU342@@Z 00412e10 f i cinder:ImageIo.obj
 0001:00011e30       ?_Rrotate@?$_Tree@V?$_Tmap_traits@HU?$pair@P6A?AV?$shared_ptr@VImageTarget@cinder@@@tr1@std@@V?$shared_ptr@VDataTarget@cinder@@@23@V?$shared_ptr@VImageSource@cinder@@@23@VOptions@ImageTarget@cinder@@ABV?$basic_string@DU?$char_traits@D@std@@V?$allocator@D@2@@3@@ZV93@@std@@U?$less@H@2@V?$allocator@U?$pair@$$CBHU?$pair@P6A?AV?$shared_ptr@VImageTarget@cinder@@@tr1@std@@V?$shared_ptr@VDataTarget@cinder@@@23@V?$shared_ptr@VImageSource@cinder@@@23@VOptions@ImageTarget@cinder@@ABV?$basic_string@DU?$char_traits@D@std@@V?$allocator@D@2@@3@@ZV93@@std@@@std@@@2@$00@std@@@std@@IAEXPAU_Node@?$_Tree_nod@V?$_Tmap_traits@HU?$pair@P6A?AV?$shared_ptr@VImageTarget@cinder@@@tr1@std@@V?$shared_ptr@VDataTarget@cinder@@@23@V?$shared_ptr@VImageSource@cinder@@@23@VOptions@ImageTarget@cinder@@ABV?$basic_string@DU?$char_traits@D@std@@V?$allocator@D@2@@3@@ZV93@@std@@U?$less@H@2@V?$allocator@U?$pair@$$CBHU?$pair@P6A?AV?$shared_ptr@VImageTarget@cinder@@@tr1@std@@V?$shared_ptr@VDataTarget@cinder@@@23@V?$shared_ptr@VImageSource@cinder@@@23@VOptions@ImageTarget@cinder@@ABV?$basic_string@DU?$char_traits@D@std@@V?$allocator@D@2@@3@@ZV93@@std@@@std@@@2@$00@std@@@2@@Z 00412e30 f i cinder:ImageIo.obj
 0001:00011e90       ?_Max@?$_Tree_val@V?$_Tmap_traits@HU?$pair@P6A?AV?$shared_ptr@VImageTarget@cinder@@@tr1@std@@V?$shared_ptr@VDataTarget@cinder@@@23@V?$shared_ptr@VImageSource@cinder@@@23@VOptions@ImageTarget@cinder@@ABV?$basic_string@DU?$char_traits@D@std@@V?$allocator@D@2@@3@@ZV93@@std@@U?$less@H@2@V?$allocator@U?$pair@$$CBHU?$pair@P6A?AV?$shared_ptr@VImageTarget@cinder@@@tr1@std@@V?$shared_ptr@VDataTarget@cinder@@@23@V?$shared_ptr@VImageSource@cinder@@@23@VOptions@ImageTarget@cinder@@ABV?$basic_string@DU?$char_traits@D@std@@V?$allocator@D@2@@3@@ZV93@@std@@@std@@@2@$00@std@@@std@@SAPAU_Node@?$_Tree_nod@V?$_Tmap_traits@HU?$pair@P6A?AV?$shared_ptr@VImageTarget@cinder@@@tr1@std@@V?$shared_ptr@VDataTarget@cinder@@@23@V?$shared_ptr@VImageSource@cinder@@@23@VOptions@ImageTarget@cinder@@ABV?$basic_string@DU?$char_traits@D@std@@V?$allocator@D@2@@3@@ZV93@@std@@U?$less@H@2@V?$allocator@U?$pair@$$CBHU?$pair@P6A?AV?$shared_ptr@VImageTarget@cinder@@@tr1@std@@V?$shared_ptr@VDataTarget@cinder@@@23@V?$shared_ptr@VImageSource@cinder@@@23@VOptions@ImageTarget@cinder@@ABV?$basic_string@DU?$char_traits@D@std@@V?$allocator@D@2@@3@@ZV93@@std@@@std@@@2@$00@std@@@2@PAU342@@Z 00412e90 f i cinder:ImageIo.obj
 0001:00011eb0       ?_Min@?$_Tree_val@V?$_Tmap_traits@HU?$pair@P6A?AV?$shared_ptr@VImageTarget@cinder@@@tr1@std@@V?$shared_ptr@VDataTarget@cinder@@@23@V?$shared_ptr@VImageSource@cinder@@@23@VOptions@ImageTarget@cinder@@ABV?$basic_string@DU?$char_traits@D@std@@V?$allocator@D@2@@3@@ZV93@@std@@U?$less@H@2@V?$allocator@U?$pair@$$CBHU?$pair@P6A?AV?$shared_ptr@VImageTarget@cinder@@@tr1@std@@V?$shared_ptr@VDataTarget@cinder@@@23@V?$shared_ptr@VImageSource@cinder@@@23@VOptions@ImageTarget@cinder@@ABV?$basic_string@DU?$char_traits@D@std@@V?$allocator@D@2@@3@@ZV93@@std@@@std@@@2@$00@std@@@std@@SAPAU_Node@?$_Tree_nod@V?$_Tmap_traits@HU?$pair@P6A?AV?$shared_ptr@VImageTarget@cinder@@@tr1@std@@V?$shared_ptr@VDataTarget@cinder@@@23@V?$shared_ptr@VImageSource@cinder@@@23@VOptions@ImageTarget@cinder@@ABV?$basic_string@DU?$char_traits@D@std@@V?$allocator@D@2@@3@@ZV93@@std@@U?$less@H@2@V?$allocator@U?$pair@$$CBHU?$pair@P6A?AV?$shared_ptr@VImageTarget@cinder@@@tr1@std@@V?$shared_ptr@VDataTarget@cinder@@@23@V?$shared_ptr@VImageSource@cinder@@@23@VOptions@ImageTarget@cinder@@ABV?$basic_string@DU?$char_traits@D@std@@V?$allocator@D@2@@3@@ZV93@@std@@@std@@@2@$00@std@@@2@PAU342@@Z 00412eb0 f i cinder:ImageIo.obj
 0001:00011ed0       ??E?$_Tree_unchecked_const_iterator@V?$_Tree_val@V?$_Tmap_traits@HU?$pair@P6A?AV?$shared_ptr@VImageTarget@cinder@@@tr1@std@@V?$shared_ptr@VDataTarget@cinder@@@23@V?$shared_ptr@VImageSource@cinder@@@23@VOptions@ImageTarget@cinder@@ABV?$basic_string@DU?$char_traits@D@std@@V?$allocator@D@2@@3@@ZV93@@std@@U?$less@H@2@V?$allocator@U?$pair@$$CBHU?$pair@P6A?AV?$shared_ptr@VImageTarget@cinder@@@tr1@std@@V?$shared_ptr@VDataTarget@cinder@@@23@V?$shared_ptr@VImageSource@cinder@@@23@VOptions@ImageTarget@cinder@@ABV?$basic_string@DU?$char_traits@D@std@@V?$allocator@D@2@@3@@ZV93@@std@@@std@@@2@$00@std@@@std@@U_Iterator_base0@2@@std@@QAEAAV01@XZ 00412ed0 f i cinder:ImageIo.obj
 0001:00011f20       ??F?$_Tree_unchecked_const_iterator@V?$_Tree_val@V?$_Tmap_traits@V?$basic_string@DU?$char_traits@D@std@@V?$allocator@D@2@@std@@V?$multimap@HU?$pair@P6A?AV?$shared_ptr@VImageTarget@cinder@@@tr1@std@@V?$shared_ptr@VDataTarget@cinder@@@23@V?$shared_ptr@VImageSource@cinder@@@23@VOptions@ImageTarget@cinder@@ABV?$basic_string@DU?$char_traits@D@std@@V?$allocator@D@2@@3@@ZV93@@std@@U?$less@H@2@V?$allocator@U?$pair@$$CBHU?$pair@P6A?AV?$shared_ptr@VImageTarget@cinder@@@tr1@std@@V?$shared_ptr@VDataTarget@cinder@@@23@V?$shared_ptr@VImageSource@cinder@@@23@VOptions@ImageTarget@cinder@@ABV?$basic_string@DU?$char_traits@D@std@@V?$allocator@D@2@@3@@ZV93@@std@@@std@@@2@@2@U?$less@V?$basic_string@DU?$char_traits@D@std@@V?$allocator@D@2@@std@@@2@V?$allocator@U?$pair@$$CBV?$basic_string@DU?$char_traits@D@std@@V?$allocator@D@2@@std@@V?$multimap@HU?$pair@P6A?AV?$shared_ptr@VImageTarget@cinder@@@tr1@std@@V?$shared_ptr@VDataTarget@cinder@@@23@V?$shared_ptr@VImageSource@cinder@@@23@VOptions@ImageTarget@cinder@@ABV?$basic_string@DU?$char_traits@D@std@@V?$allocator@D@2@@3@@ZV93@@std@@U?$less@H@2@V?$allocator@U?$pair@$$CBHU?$pair@P6A?AV?$shared_ptr@VImageTarget@cinder@@@tr1@std@@V?$shared_ptr@VDataTarget@cinder@@@23@V?$shared_ptr@VImageSource@cinder@@@23@VOptions@ImageTarget@cinder@@ABV?$basic_string@DU?$char_traits@D@std@@V?$allocator@D@2@@3@@ZV93@@std@@@std@@@2@@2@@std@@@2@$0A@@std@@@std@@U_Iterator_base0@2@@std@@QAEAAV01@XZ 00412f20 f i cinder:ImageIo.obj
 0001:00011f80       ??F?$_Tree_unchecked_const_iterator@V?$_Tree_val@V?$_Tmap_traits@HP6A?AV?$shared_ptr@VImageSource@cinder@@@tr1@std@@V?$shared_ptr@VDataSource@cinder@@@23@VOptions@ImageSource@cinder@@@ZU?$less@H@3@V?$allocator@U?$pair@$$CBHP6A?AV?$shared_ptr@VImageSource@cinder@@@tr1@std@@V?$shared_ptr@VDataSource@cinder@@@23@VOptions@ImageSource@cinder@@@Z@std@@@3@$0A@@std@@@std@@U_Iterator_base0@2@@std@@QAEAAV01@XZ 00412f80 f i cinder:ImageIo.obj
 0001:00011fe0       ?channelOrderNumChannels@ImageIo@cinder@@SACW4ChannelOrder@12@@Z 00412fe0 f   cinder:ImageIo.obj
 0001:00012060       ??E?$_Tree_unchecked_const_iterator@V?$_Tree_val@V?$_Tmap_traits@V?$basic_string@DU?$char_traits@D@std@@V?$allocator@D@2@@std@@V?$multimap@HP6A?AV?$shared_ptr@VImageSource@cinder@@@tr1@std@@V?$shared_ptr@VDataSource@cinder@@@23@VOptions@ImageSource@cinder@@@ZU?$less@H@3@V?$allocator@U?$pair@$$CBHP6A?AV?$shared_ptr@VImageSource@cinder@@@tr1@std@@V?$shared_ptr@VDataSource@cinder@@@23@VOptions@ImageSource@cinder@@@Z@std@@@3@@2@U?$less@V?$basic_string@DU?$char_traits@D@std@@V?$allocator@D@2@@std@@@2@V?$allocator@U?$pair@$$CBV?$basic_string@DU?$char_traits@D@std@@V?$allocator@D@2@@std@@V?$multimap@HP6A?AV?$shared_ptr@VImageSource@cinder@@@tr1@std@@V?$shared_ptr@VDataSource@cinder@@@23@VOptions@ImageSource@cinder@@@ZU?$less@H@3@V?$allocator@U?$pair@$$CBHP6A?AV?$shared_ptr@VImageSource@cinder@@@tr1@std@@V?$shared_ptr@VDataSource@cinder@@@23@VOptions@ImageSource@cinder@@@Z@std@@@3@@2@@std@@@2@$0A@@std@@@std@@U_Iterator_base0@2@@std@@QAEAAV01@XZ 00413060 f i cinder:ImageIo.obj
 0001:00012060       ??E?$_Tree_unchecked_const_iterator@V?$_Tree_val@V?$_Tmap_traits@V?$basic_string@DU?$char_traits@D@std@@V?$allocator@D@2@@std@@V?$multimap@HU?$pair@P6A?AV?$shared_ptr@VImageTarget@cinder@@@tr1@std@@V?$shared_ptr@VDataTarget@cinder@@@23@V?$shared_ptr@VImageSource@cinder@@@23@VOptions@ImageTarget@cinder@@ABV?$basic_string@DU?$char_traits@D@std@@V?$allocator@D@2@@3@@ZV93@@std@@U?$less@H@2@V?$allocator@U?$pair@$$CBHU?$pair@P6A?AV?$shared_ptr@VImageTarget@cinder@@@tr1@std@@V?$shared_ptr@VDataTarget@cinder@@@23@V?$shared_ptr@VImageSource@cinder@@@23@VOptions@ImageTarget@cinder@@ABV?$basic_string@DU?$char_traits@D@std@@V?$allocator@D@2@@3@@ZV93@@std@@@std@@@2@@2@U?$less@V?$basic_string@DU?$char_traits@D@std@@V?$allocator@D@2@@std@@@2@V?$allocator@U?$pair@$$CBV?$basic_string@DU?$char_traits@D@std@@V?$allocator@D@2@@std@@V?$multimap@HU?$pair@P6A?AV?$shared_ptr@VImageTarget@cinder@@@tr1@std@@V?$shared_ptr@VDataTarget@cinder@@@23@V?$shared_ptr@VImageSource@cinder@@@23@VOptions@ImageTarget@cinder@@ABV?$basic_string@DU?$char_traits@D@std@@V?$allocator@D@2@@3@@ZV93@@std@@U?$less@H@2@V?$allocator@U?$pair@$$CBHU?$pair@P6A?AV?$shared_ptr@VImageTarget@cinder@@@tr1@std@@V?$shared_ptr@VDataTarget@cinder@@@23@V?$shared_ptr@VImageSource@cinder@@@23@VOptions@ImageTarget@cinder@@ABV?$basic_string@DU?$char_traits@D@std@@V?$allocator@D@2@@3@@ZV93@@std@@@std@@@2@@2@@std@@@2@$0A@@std@@@std@@U_Iterator_base0@2@@std@@QAEAAV01@XZ 00413060 f i cinder:ImageIo.obj
 0001:000120b0       ??E?$_Tree_unchecked_const_iterator@V?$_Tree_val@V?$_Tmap_traits@HP6A?AV?$shared_ptr@VImageSource@cinder@@@tr1@std@@V?$shared_ptr@VDataSource@cinder@@@23@VOptions@ImageSource@cinder@@@ZU?$less@H@3@V?$allocator@U?$pair@$$CBHP6A?AV?$shared_ptr@VImageSource@cinder@@@tr1@std@@V?$shared_ptr@VDataSource@cinder@@@23@VOptions@ImageSource@cinder@@@Z@std@@@3@$0A@@std@@@std@@U_Iterator_base0@2@@std@@QAEAAV01@XZ 004130b0 f i cinder:ImageIo.obj
 0001:000120b0       ??E?$_Tree_unchecked_const_iterator@V?$_Tree_val@V?$_Tmap_traits@HP6A?AV?$shared_ptr@VImageSource@cinder@@@tr1@std@@V?$shared_ptr@VDataSource@cinder@@@23@VOptions@ImageSource@cinder@@@ZU?$less@H@3@V?$allocator@U?$pair@$$CBHP6A?AV?$shared_ptr@VImageSource@cinder@@@tr1@std@@V?$shared_ptr@VDataSource@cinder@@@23@VOptions@ImageSource@cinder@@@Z@std@@@3@$00@std@@@std@@U_Iterator_base0@2@@std@@QAEAAV01@XZ 004130b0 f i cinder:ImageIo.obj
 0001:00012100       ?_Lrotate@?$_Tree@V?$_Tmap_traits@HP6A?AV?$shared_ptr@VImageSource@cinder@@@tr1@std@@V?$shared_ptr@VDataSource@cinder@@@23@VOptions@ImageSource@cinder@@@ZU?$less@H@3@V?$allocator@U?$pair@$$CBHP6A?AV?$shared_ptr@VImageSource@cinder@@@tr1@std@@V?$shared_ptr@VDataSource@cinder@@@23@VOptions@ImageSource@cinder@@@Z@std@@@3@$00@std@@@std@@IAEXPAU_Node@?$_Tree_nod@V?$_Tmap_traits@HP6A?AV?$shared_ptr@VImageSource@cinder@@@tr1@std@@V?$shared_ptr@VDataSource@cinder@@@23@VOptions@ImageSource@cinder@@@ZU?$less@H@3@V?$allocator@U?$pair@$$CBHP6A?AV?$shared_ptr@VImageSource@cinder@@@tr1@std@@V?$shared_ptr@VDataSource@cinder@@@23@VOptions@ImageSource@cinder@@@Z@std@@@3@$00@std@@@2@@Z 00413100 f i cinder:ImageIo.obj
 0001:00012100       ?_Lrotate@?$_Tree@V?$_Tmap_traits@HP6A?AV?$shared_ptr@VImageSource@cinder@@@tr1@std@@V?$shared_ptr@VDataSource@cinder@@@23@VOptions@ImageSource@cinder@@@ZU?$less@H@3@V?$allocator@U?$pair@$$CBHP6A?AV?$shared_ptr@VImageSource@cinder@@@tr1@std@@V?$shared_ptr@VDataSource@cinder@@@23@VOptions@ImageSource@cinder@@@Z@std@@@3@$0A@@std@@@std@@IAEXPAU_Node@?$_Tree_nod@V?$_Tmap_traits@HP6A?AV?$shared_ptr@VImageSource@cinder@@@tr1@std@@V?$shared_ptr@VDataSource@cinder@@@23@VOptions@ImageSource@cinder@@@ZU?$less@H@3@V?$allocator@U?$pair@$$CBHP6A?AV?$shared_ptr@VImageSource@cinder@@@tr1@std@@V?$shared_ptr@VDataSource@cinder@@@23@VOptions@ImageSource@cinder@@@Z@std@@@3@$0A@@std@@@2@@Z 00413100 f i cinder:ImageIo.obj
 0001:00012160       ?_Lrotate@?$_Tree@V?$_Tmap_traits@HU?$pair@P6A?AV?$shared_ptr@VImageTarget@cinder@@@tr1@std@@V?$shared_ptr@VDataTarget@cinder@@@23@V?$shared_ptr@VImageSource@cinder@@@23@VOptions@ImageTarget@cinder@@ABV?$basic_string@DU?$char_traits@D@std@@V?$allocator@D@2@@3@@ZV93@@std@@U?$less@H@2@V?$allocator@U?$pair@$$CBHU?$pair@P6A?AV?$shared_ptr@VImageTarget@cinder@@@tr1@std@@V?$shared_ptr@VDataTarget@cinder@@@23@V?$shared_ptr@VImageSource@cinder@@@23@VOptions@ImageTarget@cinder@@ABV?$basic_string@DU?$char_traits@D@std@@V?$allocator@D@2@@3@@ZV93@@std@@@std@@@2@$00@std@@@std@@IAEXPAU_Node@?$_Tree_nod@V?$_Tmap_traits@HU?$pair@P6A?AV?$shared_ptr@VImageTarget@cinder@@@tr1@std@@V?$shared_ptr@VDataTarget@cinder@@@23@V?$shared_ptr@VImageSource@cinder@@@23@VOptions@ImageTarget@cinder@@ABV?$basic_string@DU?$char_traits@D@std@@V?$allocator@D@2@@3@@ZV93@@std@@U?$less@H@2@V?$allocator@U?$pair@$$CBHU?$pair@P6A?AV?$shared_ptr@VImageTarget@cinder@@@tr1@std@@V?$shared_ptr@VDataTarget@cinder@@@23@V?$shared_ptr@VImageSource@cinder@@@23@VOptions@ImageTarget@cinder@@ABV?$basic_string@DU?$char_traits@D@std@@V?$allocator@D@2@@3@@ZV93@@std@@@std@@@2@$00@std@@@2@@Z 00413160 f i cinder:ImageIo.obj
 0001:000121c0       ?translateRgbColorModelToOffsets@ImageIo@cinder@@SAXW4ChannelOrder@12@PAC1111@Z 004131c0 f   cinder:ImageIo.obj
 0001:00012380       ??0ImageIoExceptionIllegalChannelOrder@cinder@@QAE@ABV01@@Z 00413380 f i cinder:ImageIo.obj
 0001:000123a0       ??1?$shared_ptr@UIWICFormatConverter@@@tr1@std@@QAE@XZ 004133a0 f i cinder:ImageSourceFileWic.obj
 0001:000123a0       ??1?$shared_ptr@UIWICBitmapDecoder@@@tr1@std@@QAE@XZ 004133a0 f i cinder:ImageSourceFileWic.obj
 0001:000123a0       ??1?$shared_ptr@UObj@?$SurfaceT@E@cinder@@@tr1@std@@QAE@XZ 004133a0 f i CinderProjectEx1App.obj
 0001:000123a0       ??1?$shared_ptr@VImageSourceFileWic@cinder@@@tr1@std@@QAE@XZ 004133a0 f i cinder:ImageSourceFileWic.obj
 0001:000123a0       ??1?$shared_ptr@VDisplay@cinder@@@tr1@std@@QAE@XZ 004133a0 f i cinder:AppBasic.obj
 0001:000123a0       ??1?$shared_ptr@VComOStream@msw@cinder@@@tr1@std@@QAE@XZ 004133a0 f i cinder:ImageTargetFileWic.obj
 0001:000123a0       ??1?$shared_ptr@E@tr1@std@@QAE@XZ 004133a0 f i cinder:Texture.obj
 0001:000123a0       ??1?$shared_ptr@VCaptureMgr@cinder@@@tr1@std@@QAE@XZ 004133a0 f i cinder:CaptureImplDirectShow.obj
 0001:000123a0       ??1?$SurfaceT@E@cinder@@QAE@XZ 004133a0 f i CinderProjectEx1App.obj
 0001:000123a0       ??1?$shared_ptr@VRenderer@app@cinder@@@tr1@std@@QAE@XZ 004133a0 f i cinder:App.obj
 0001:000123a0       ??1?$shared_ptr@VTimelineItem@cinder@@@tr1@std@@QAE@XZ 004133a0 f i cinder:Timeline.obj
 0001:000123a0       ??1?$shared_ptr@VImageTarget@cinder@@@tr1@std@@QAE@XZ 004133a0 f i cinder:Surface.obj
 0001:000123a0       ??1?$shared_ptr@UObj@Texture@gl@cinder@@@tr1@std@@QAE@XZ 004133a0 f i CinderProjectEx1App.obj
 0001:000123a0       ??1?$shared_ptr@UIWICBitmapFrameEncode@@@tr1@std@@QAE@XZ 004133a0 f i cinder:ImageTargetFileWic.obj
 0001:000123a0       ??1?$shared_ptr@UInst@ImageIoRegistrar@cinder@@@tr1@std@@QAE@XZ 004133a0 f i cinder:ImageIo.obj
 0001:000123a0       ??1?$shared_ptr@VTimeline@cinder@@@tr1@std@@QAE@XZ 004133a0 f i cinder:App.obj
 0001:000123a0       ??1?$shared_ptr@VOStream@cinder@@@tr1@std@@QAE@XZ 004133a0 f i cinder:CinderMsw.obj
 0001:000123a0       ??1?$shared_ptr@UIWICBitmapEncoder@@@tr1@std@@QAE@XZ 004133a0 f i cinder:ImageTargetFileWic.obj
 0001:000123a0       ??1?$shared_ptr@VDevice@Capture@cinder@@@tr1@std@@QAE@XZ 004133a0 f i CinderProjectEx1App.obj
 0001:000123a0       ??1?$shared_ptr@V?$map@V?$basic_string@DU?$char_traits@D@std@@V?$allocator@D@2@@std@@PBU_GUID@@U?$less@V?$basic_string@DU?$char_traits@D@std@@V?$allocator@D@2@@std@@@2@V?$allocator@U?$pair@$$CBV?$basic_string@DU?$char_traits@D@std@@V?$allocator@D@2@@std@@PBU_GUID@@@std@@@2@@std@@@tr1@std@@QAE@XZ 004133a0 f i cinder:ImageTargetFileWic.obj
 0001:000123a0       ??1Buffer@cinder@@QAE@XZ   004133a0 f i cinder:App.obj
 0001:000123a0       ??1?$shared_ptr@VDataSource@cinder@@@tr1@std@@QAE@XZ 004133a0 f i cinder:App.obj
 0001:000123a0       ??1?$shared_ptr@VImageSource@cinder@@@tr1@std@@QAE@XZ 004133a0 f i cinder:Surface.obj
 0001:000123a0       ??1?$shared_ptr@VDataTarget@cinder@@@tr1@std@@QAE@XZ 004133a0 f i cinder:ImageIo.obj
 0001:000123a0       ??1?$shared_ptr@V?$basic_dostream@DU?$char_traits@D@std@@@msw@cinder@@@tr1@std@@QAE@XZ 004133a0 f i cinder:App.obj
 0001:000123a0       ??1?$shared_ptr@VSurfaceCache@cinder@@@tr1@std@@QAE@XZ 004133a0 f i cinder:CaptureImplDirectShow.obj
 0001:000123a0       ??1?$ChannelT@E@cinder@@QAE@XZ 004133a0 f i cinder:Surface.obj
 0001:000123a0       ??1?$shared_ptr@UIWICBitmapFrameDecode@@@tr1@std@@QAE@XZ 004133a0 f i cinder:ImageSourceFileWic.obj
 0001:000123a0       ??1Texture@gl@cinder@@QAE@XZ 004133a0 f i CinderProjectEx1App.obj
 0001:000123a0       ??1?$shared_ptr@UIWICImagingFactory@@@tr1@std@@QAE@XZ 004133a0 f i cinder:ImageSourceFileWic.obj
 0001:000123a0       ??1?$shared_ptr@UtagTOUCHINPUT@@@tr1@std@@QAE@XZ 004133a0 f i cinder:AppImplMswBasic.obj
 0001:000123a0       ??1?$shared_ptr@UObj@Capture@cinder@@@tr1@std@@QAE@XZ 004133a0 f i CinderProjectEx1App.obj
 0001:000123a0       ??1?$shared_ptr@UIWICStream@@@tr1@std@@QAE@XZ 004133a0 f i cinder:ImageSourceFileWic.obj
 0001:000123e0       ?_Insert@?$_Tree@V?$_Tmap_traits@HP6A?AV?$shared_ptr@VImageSource@cinder@@@tr1@std@@V?$shared_ptr@VDataSource@cinder@@@23@VOptions@ImageSource@cinder@@@ZU?$less@H@3@V?$allocator@U?$pair@$$CBHP6A?AV?$shared_ptr@VImageSource@cinder@@@tr1@std@@V?$shared_ptr@VDataSource@cinder@@@23@VOptions@ImageSource@cinder@@@Z@std@@@3@$0A@@std@@@std@@IAE?AV?$_Tree_iterator@V?$_Tree_val@V?$_Tmap_traits@HP6A?AV?$shared_ptr@VImageSource@cinder@@@tr1@std@@V?$shared_ptr@VDataSource@cinder@@@23@VOptions@ImageSource@cinder@@@ZU?$less@H@3@V?$allocator@U?$pair@$$CBHP6A?AV?$shared_ptr@VImageSource@cinder@@@tr1@std@@V?$shared_ptr@VDataSource@cinder@@@23@VOptions@ImageSource@cinder@@@Z@std@@@3@$0A@@std@@@std@@@2@_NPAU_Node@?$_Tree_nod@V?$_Tmap_traits@HP6A?AV?$shared_ptr@VImageSource@cinder@@@tr1@std@@V?$shared_ptr@VDataSource@cinder@@@23@VOptions@ImageSource@cinder@@@ZU?$less@H@3@V?$allocator@U?$pair@$$CBHP6A?AV?$shared_ptr@VImageSource@cinder@@@tr1@std@@V?$shared_ptr@VDataSource@cinder@@@23@VOptions@ImageSource@cinder@@@Z@std@@@3@$0A@@std@@@2@1@Z 004133e0 f i cinder:ImageIo.obj
 0001:00012610       ??$_Transform@PADV?$_String_iterator@DU?$char_traits@D@std@@V?$allocator@D@2@@std@@P6AHH@Z@std@@YA?AV?$_String_iterator@DU?$char_traits@D@std@@V?$allocator@D@2@@0@PAD0V10@P6AHH@Z@Z 00413610 f i cinder:ImageIo.obj
 0001:00012650       ??$rowFuncSourceRgb@EE$0A@$00@ImageSource@cinder@@IAEXV?$shared_ptr@VImageTarget@cinder@@@tr1@std@@HPBX@Z 00413650 f i cinder:ImageIo.obj
 0001:00012740       ??$rowFuncSourceRgb@EE$0A@$0A@@ImageSource@cinder@@IAEXV?$shared_ptr@VImageTarget@cinder@@@tr1@std@@HPBX@Z 00413740 f i cinder:ImageIo.obj
 0001:00012820       ??$rowFuncSourceGray@EE$0A@$00@ImageSource@cinder@@IAEXV?$shared_ptr@VImageTarget@cinder@@@tr1@std@@HPBX@Z 00413820 f i cinder:ImageIo.obj
 0001:00012900       ??$rowFuncSourceGray@EE$0A@$0A@@ImageSource@cinder@@IAEXV?$shared_ptr@VImageTarget@cinder@@@tr1@std@@HPBX@Z 00413900 f i cinder:ImageIo.obj
 0001:000129d0       ??$rowFuncSourceRgb@EE$00$00@ImageSource@cinder@@IAEXV?$shared_ptr@VImageTarget@cinder@@@tr1@std@@HPBX@Z 004139d0 f i cinder:ImageIo.obj
 0001:00012ac0       ??$rowFuncSourceRgb@EE$00$0A@@ImageSource@cinder@@IAEXV?$shared_ptr@VImageTarget@cinder@@@tr1@std@@HPBX@Z 00413ac0 f i cinder:ImageIo.obj
 0001:00012ba0       ??$rowFuncSourceGray@EE$00$00@ImageSource@cinder@@IAEXV?$shared_ptr@VImageTarget@cinder@@@tr1@std@@HPBX@Z 00413ba0 f i cinder:ImageIo.obj
 0001:00012c60       ??$rowFuncSourceGray@EE$00$0A@@ImageSource@cinder@@IAEXV?$shared_ptr@VImageTarget@cinder@@@tr1@std@@HPBX@Z 00413c60 f i cinder:ImageIo.obj
 0001:00012d10       ??$rowFuncSourceRgb@EG$0A@$00@ImageSource@cinder@@IAEXV?$shared_ptr@VImageTarget@cinder@@@tr1@std@@HPBX@Z 00413d10 f i cinder:ImageIo.obj
 0001:00012e10       ??$rowFuncSourceRgb@EG$0A@$0A@@ImageSource@cinder@@IAEXV?$shared_ptr@VImageTarget@cinder@@@tr1@std@@HPBX@Z 00413e10 f i cinder:ImageIo.obj
 0001:00012f00       ??$rowFuncSourceGray@EG$0A@$00@ImageSource@cinder@@IAEXV?$shared_ptr@VImageTarget@cinder@@@tr1@std@@HPBX@Z 00413f00 f i cinder:ImageIo.obj
 0001:00012ff0       ??$rowFuncSourceGray@EG$0A@$0A@@ImageSource@cinder@@IAEXV?$shared_ptr@VImageTarget@cinder@@@tr1@std@@HPBX@Z 00413ff0 f i cinder:ImageIo.obj
 0001:000130c0       ??$rowFuncSourceRgb@EG$00$00@ImageSource@cinder@@IAEXV?$shared_ptr@VImageTarget@cinder@@@tr1@std@@HPBX@Z 004140c0 f i cinder:ImageIo.obj
 0001:000131c0       ??$rowFuncSourceRgb@EG$00$0A@@ImageSource@cinder@@IAEXV?$shared_ptr@VImageTarget@cinder@@@tr1@std@@HPBX@Z 004141c0 f i cinder:ImageIo.obj
 0001:000132b0       ??$rowFuncSourceGray@EG$00$00@ImageSource@cinder@@IAEXV?$shared_ptr@VImageTarget@cinder@@@tr1@std@@HPBX@Z 004142b0 f i cinder:ImageIo.obj
 0001:00013390       ??$rowFuncSourceGray@EG$00$0A@@ImageSource@cinder@@IAEXV?$shared_ptr@VImageTarget@cinder@@@tr1@std@@HPBX@Z 00414390 f i cinder:ImageIo.obj
 0001:00013450       ??$rowFuncSourceRgb@EM$0A@$00@ImageSource@cinder@@IAEXV?$shared_ptr@VImageTarget@cinder@@@tr1@std@@HPBX@Z 00414450 f i cinder:ImageIo.obj
 0001:000137b0       ??$rowFuncSourceRgb@EM$0A@$0A@@ImageSource@cinder@@IAEXV?$shared_ptr@VImageTarget@cinder@@@tr1@std@@HPBX@Z 004147b0 f i cinder:ImageIo.obj
 0001:00013a70       ??$rowFuncSourceGray@EM$0A@$00@ImageSource@cinder@@IAEXV?$shared_ptr@VImageTarget@cinder@@@tr1@std@@HPBX@Z 00414a70 f i cinder:ImageIo.obj
 0001:00013ce0       ??$rowFuncSourceGray@EM$0A@$0A@@ImageSource@cinder@@IAEXV?$shared_ptr@VImageTarget@cinder@@@tr1@std@@HPBX@Z 00414ce0 f i cinder:ImageIo.obj
 0001:00013ec0       ??$rowFuncSourceRgb@EM$00$00@ImageSource@cinder@@IAEXV?$shared_ptr@VImageTarget@cinder@@@tr1@std@@HPBX@Z 00414ec0 f i cinder:ImageIo.obj
 0001:000141b0       ??$rowFuncSourceRgb@EM$00$0A@@ImageSource@cinder@@IAEXV?$shared_ptr@VImageTarget@cinder@@@tr1@std@@HPBX@Z 004151b0 f i cinder:ImageIo.obj
 0001:00014410       ??$rowFuncSourceGray@EM$00$00@ImageSource@cinder@@IAEXV?$shared_ptr@VImageTarget@cinder@@@tr1@std@@HPBX@Z 00415410 f i cinder:ImageIo.obj
 0001:00014610       ??$rowFuncSourceGray@EM$00$0A@@ImageSource@cinder@@IAEXV?$shared_ptr@VImageTarget@cinder@@@tr1@std@@HPBX@Z 00415610 f i cinder:ImageIo.obj
 0001:00014780       ??$rowFuncSourceRgb@GE$0A@$00@ImageSource@cinder@@IAEXV?$shared_ptr@VImageTarget@cinder@@@tr1@std@@HPBX@Z 00415780 f i cinder:ImageIo.obj
 0001:000148b0       ??$rowFuncSourceRgb@GE$0A@$0A@@ImageSource@cinder@@IAEXV?$shared_ptr@VImageTarget@cinder@@@tr1@std@@HPBX@Z 004158b0 f i cinder:ImageIo.obj
 0001:000149c0       ??$rowFuncSourceGray@GE$0A@$00@ImageSource@cinder@@IAEXV?$shared_ptr@VImageTarget@cinder@@@tr1@std@@HPBX@Z 004159c0 f i cinder:ImageIo.obj
 0001:00014ac0       ??$rowFuncSourceGray@GE$0A@$0A@@ImageSource@cinder@@IAEXV?$shared_ptr@VImageTarget@cinder@@@tr1@std@@HPBX@Z 00415ac0 f i cinder:ImageIo.obj
 0001:00014ba0       ??$rowFuncSourceRgb@GE$00$00@ImageSource@cinder@@IAEXV?$shared_ptr@VImageTarget@cinder@@@tr1@std@@HPBX@Z 00415ba0 f i cinder:ImageIo.obj
 0001:00014cc0       ??$rowFuncSourceRgb@GE$00$0A@@ImageSource@cinder@@IAEXV?$shared_ptr@VImageTarget@cinder@@@tr1@std@@HPBX@Z 00415cc0 f i cinder:ImageIo.obj
 0001:00014dc0       ??$rowFuncSourceGray@GE$00$00@ImageSource@cinder@@IAEXV?$shared_ptr@VImageTarget@cinder@@@tr1@std@@HPBX@Z 00415dc0 f i cinder:ImageIo.obj
 0001:00014eb0       ??$rowFuncSourceGray@GE$00$0A@@ImageSource@cinder@@IAEXV?$shared_ptr@VImageTarget@cinder@@@tr1@std@@HPBX@Z 00415eb0 f i cinder:ImageIo.obj
 0001:00014f80       ??$rowFuncSourceRgb@GG$0A@$00@ImageSource@cinder@@IAEXV?$shared_ptr@VImageTarget@cinder@@@tr1@std@@HPBX@Z 00415f80 f i cinder:ImageIo.obj
 0001:00015070       ??$rowFuncSourceRgb@GG$0A@$0A@@ImageSource@cinder@@IAEXV?$shared_ptr@VImageTarget@cinder@@@tr1@std@@HPBX@Z 00416070 f i cinder:ImageIo.obj
 0001:00015150       ??$rowFuncSourceGray@GG$0A@$00@ImageSource@cinder@@IAEXV?$shared_ptr@VImageTarget@cinder@@@tr1@std@@HPBX@Z 00416150 f i cinder:ImageIo.obj
 0001:00015230       ??$rowFuncSourceGray@GG$0A@$0A@@ImageSource@cinder@@IAEXV?$shared_ptr@VImageTarget@cinder@@@tr1@std@@HPBX@Z 00416230 f i cinder:ImageIo.obj
 0001:00015300       ??$rowFuncSourceRgb@GG$00$00@ImageSource@cinder@@IAEXV?$shared_ptr@VImageTarget@cinder@@@tr1@std@@HPBX@Z 00416300 f i cinder:ImageIo.obj
 0001:00015400       ??$rowFuncSourceRgb@GG$00$0A@@ImageSource@cinder@@IAEXV?$shared_ptr@VImageTarget@cinder@@@tr1@std@@HPBX@Z 00416400 f i cinder:ImageIo.obj
 0001:000154f0       ??$rowFuncSourceGray@GG$00$00@ImageSource@cinder@@IAEXV?$shared_ptr@VImageTarget@cinder@@@tr1@std@@HPBX@Z 004164f0 f i cinder:ImageIo.obj
 0001:000155b0       ??$rowFuncSourceGray@GG$00$0A@@ImageSource@cinder@@IAEXV?$shared_ptr@VImageTarget@cinder@@@tr1@std@@HPBX@Z 004165b0 f i cinder:ImageIo.obj
 0001:00015660       ??$rowFuncSourceRgb@GM$0A@$00@ImageSource@cinder@@IAEXV?$shared_ptr@VImageTarget@cinder@@@tr1@std@@HPBX@Z 00416660 f i cinder:ImageIo.obj
 0001:000159c0       ??$rowFuncSourceRgb@GM$0A@$0A@@ImageSource@cinder@@IAEXV?$shared_ptr@VImageTarget@cinder@@@tr1@std@@HPBX@Z 004169c0 f i cinder:ImageIo.obj
 0001:00015c80       ??$rowFuncSourceGray@GM$0A@$00@ImageSource@cinder@@IAEXV?$shared_ptr@VImageTarget@cinder@@@tr1@std@@HPBX@Z 00416c80 f i cinder:ImageIo.obj
 0001:00015f00       ??$rowFuncSourceGray@GM$0A@$0A@@ImageSource@cinder@@IAEXV?$shared_ptr@VImageTarget@cinder@@@tr1@std@@HPBX@Z 00416f00 f i cinder:ImageIo.obj
 0001:000160f0       ??$rowFuncSourceRgb@GM$00$00@ImageSource@cinder@@IAEXV?$shared_ptr@VImageTarget@cinder@@@tr1@std@@HPBX@Z 004170f0 f i cinder:ImageIo.obj
 0001:00016400       ??$rowFuncSourceRgb@GM$00$0A@@ImageSource@cinder@@IAEXV?$shared_ptr@VImageTarget@cinder@@@tr1@std@@HPBX@Z 00417400 f i cinder:ImageIo.obj
 0001:00016680       ??$rowFuncSourceGray@GM$00$00@ImageSource@cinder@@IAEXV?$shared_ptr@VImageTarget@cinder@@@tr1@std@@HPBX@Z 00417680 f i cinder:ImageIo.obj
 0001:00016890       ??$rowFuncSourceGray@GM$00$0A@@ImageSource@cinder@@IAEXV?$shared_ptr@VImageTarget@cinder@@@tr1@std@@HPBX@Z 00417890 f i cinder:ImageIo.obj
 0001:00016a00       ??$rowFuncSourceRgb@ME$0A@$00@ImageSource@cinder@@IAEXV?$shared_ptr@VImageTarget@cinder@@@tr1@std@@HPBX@Z 00417a00 f i cinder:ImageIo.obj
 0001:00016b70       ??$rowFuncSourceRgb@ME$0A@$0A@@ImageSource@cinder@@IAEXV?$shared_ptr@VImageTarget@cinder@@@tr1@std@@HPBX@Z 00417b70 f i cinder:ImageIo.obj
 0001:00016cb0       ??$rowFuncSourceGray@ME$0A@$00@ImageSource@cinder@@IAEXV?$shared_ptr@VImageTarget@cinder@@@tr1@std@@HPBX@Z 00417cb0 f i cinder:ImageIo.obj
 0001:00016dc0       ??$rowFuncSourceGray@ME$0A@$0A@@ImageSource@cinder@@IAEXV?$shared_ptr@VImageTarget@cinder@@@tr1@std@@HPBX@Z 00417dc0 f i cinder:ImageIo.obj
 0001:00016eb0       ??$rowFuncSourceRgb@ME$00$00@ImageSource@cinder@@IAEXV?$shared_ptr@VImageTarget@cinder@@@tr1@std@@HPBX@Z 00417eb0 f i cinder:ImageIo.obj
 0001:00017000       ??$rowFuncSourceRgb@ME$00$0A@@ImageSource@cinder@@IAEXV?$shared_ptr@VImageTarget@cinder@@@tr1@std@@HPBX@Z 00418000 f i cinder:ImageIo.obj
 0001:00017110       ??$rowFuncSourceGray@ME$00$00@ImageSource@cinder@@IAEXV?$shared_ptr@VImageTarget@cinder@@@tr1@std@@HPBX@Z 00418110 f i cinder:ImageIo.obj
 0001:00017210       ??$rowFuncSourceGray@ME$00$0A@@ImageSource@cinder@@IAEXV?$shared_ptr@VImageTarget@cinder@@@tr1@std@@HPBX@Z 00418210 f i cinder:ImageIo.obj
 0001:000172f0       ??$rowFuncSourceRgb@MG$0A@$00@ImageSource@cinder@@IAEXV?$shared_ptr@VImageTarget@cinder@@@tr1@std@@HPBX@Z 004182f0 f i cinder:ImageIo.obj
 0001:00017460       ??$rowFuncSourceRgb@MG$0A@$0A@@ImageSource@cinder@@IAEXV?$shared_ptr@VImageTarget@cinder@@@tr1@std@@HPBX@Z 00418460 f i cinder:ImageIo.obj
 0001:000175a0       ??$rowFuncSourceGray@MG$0A@$00@ImageSource@cinder@@IAEXV?$shared_ptr@VImageTarget@cinder@@@tr1@std@@HPBX@Z 004185a0 f i cinder:ImageIo.obj
 0001:000176c0       ??$rowFuncSourceGray@MG$0A@$0A@@ImageSource@cinder@@IAEXV?$shared_ptr@VImageTarget@cinder@@@tr1@std@@HPBX@Z 004186c0 f i cinder:ImageIo.obj
 0001:000177b0       ??$rowFuncSourceRgb@MG$00$00@ImageSource@cinder@@IAEXV?$shared_ptr@VImageTarget@cinder@@@tr1@std@@HPBX@Z 004187b0 f i cinder:ImageIo.obj
 0001:00017900       ??$rowFuncSourceRgb@MG$00$0A@@ImageSource@cinder@@IAEXV?$shared_ptr@VImageTarget@cinder@@@tr1@std@@HPBX@Z 00418900 f i cinder:ImageIo.obj
 0001:00017a20       ??$rowFuncSourceGray@MG$00$00@ImageSource@cinder@@IAEXV?$shared_ptr@VImageTarget@cinder@@@tr1@std@@HPBX@Z 00418a20 f i cinder:ImageIo.obj
 0001:00017b30       ??$rowFuncSourceGray@MG$00$0A@@ImageSource@cinder@@IAEXV?$shared_ptr@VImageTarget@cinder@@@tr1@std@@HPBX@Z 00418b30 f i cinder:ImageIo.obj
 0001:00017c10       ??$rowFuncSourceRgb@MM$0A@$00@ImageSource@cinder@@IAEXV?$shared_ptr@VImageTarget@cinder@@@tr1@std@@HPBX@Z 00418c10 f i cinder:ImageIo.obj
 0001:00017e70       ??$rowFuncSourceRgb@MM$0A@$0A@@ImageSource@cinder@@IAEXV?$shared_ptr@VImageTarget@cinder@@@tr1@std@@HPBX@Z 00418e70 f i cinder:ImageIo.obj
 0001:00018070       ??$rowFuncSourceGray@MM$0A@$00@ImageSource@cinder@@IAEXV?$shared_ptr@VImageTarget@cinder@@@tr1@std@@HPBX@Z 00419070 f i cinder:ImageIo.obj
 0001:00018280       ??$rowFuncSourceGray@MM$0A@$0A@@ImageSource@cinder@@IAEXV?$shared_ptr@VImageTarget@cinder@@@tr1@std@@HPBX@Z 00419280 f i cinder:ImageIo.obj
 0001:00018430       ??$rowFuncSourceRgb@MM$00$00@ImageSource@cinder@@IAEXV?$shared_ptr@VImageTarget@cinder@@@tr1@std@@HPBX@Z 00419430 f i cinder:ImageIo.obj
 0001:00018680       ??$rowFuncSourceRgb@MM$00$0A@@ImageSource@cinder@@IAEXV?$shared_ptr@VImageTarget@cinder@@@tr1@std@@HPBX@Z 00419680 f i cinder:ImageIo.obj
 0001:00018880       ??$rowFuncSourceGray@MM$00$00@ImageSource@cinder@@IAEXV?$shared_ptr@VImageTarget@cinder@@@tr1@std@@HPBX@Z 00419880 f i cinder:ImageIo.obj
 0001:00018a40       ??$rowFuncSourceGray@MM$00$0A@@ImageSource@cinder@@IAEXV?$shared_ptr@VImageTarget@cinder@@@tr1@std@@HPBX@Z 00419a40 f i cinder:ImageIo.obj
 0001:00018ba0       ?setupRowFuncRgbSource@ImageSource@cinder@@IAEXV?$shared_ptr@VImageTarget@cinder@@@tr1@std@@@Z 00419ba0 f   cinder:ImageIo.obj
 0001:00018cb0       ?setupRowFuncGraySource@ImageSource@cinder@@IAEXV?$shared_ptr@VImageTarget@cinder@@@tr1@std@@@Z 00419cb0 f   cinder:ImageIo.obj
 0001:00018dd0       ?_Lbound@?$_Tree@V?$_Tmap_traits@V?$basic_string@DU?$char_traits@D@std@@V?$allocator@D@2@@std@@V?$multimap@HU?$pair@P6A?AV?$shared_ptr@VImageTarget@cinder@@@tr1@std@@V?$shared_ptr@VDataTarget@cinder@@@23@V?$shared_ptr@VImageSource@cinder@@@23@VOptions@ImageTarget@cinder@@ABV?$basic_string@DU?$char_traits@D@std@@V?$allocator@D@2@@3@@ZV93@@std@@U?$less@H@2@V?$allocator@U?$pair@$$CBHU?$pair@P6A?AV?$shared_ptr@VImageTarget@cinder@@@tr1@std@@V?$shared_ptr@VDataTarget@cinder@@@23@V?$shared_ptr@VImageSource@cinder@@@23@VOptions@ImageTarget@cinder@@ABV?$basic_string@DU?$char_traits@D@std@@V?$allocator@D@2@@3@@ZV93@@std@@@std@@@2@@2@U?$less@V?$basic_string@DU?$char_traits@D@std@@V?$allocator@D@2@@std@@@2@V?$allocator@U?$pair@$$CBV?$basic_string@DU?$char_traits@D@std@@V?$allocator@D@2@@std@@V?$multimap@HU?$pair@P6A?AV?$shared_ptr@VImageTarget@cinder@@@tr1@std@@V?$shared_ptr@VDataTarget@cinder@@@23@V?$shared_ptr@VImageSource@cinder@@@23@VOptions@ImageTarget@cinder@@ABV?$basic_string@DU?$char_traits@D@std@@V?$allocator@D@2@@3@@ZV93@@std@@U?$less@H@2@V?$allocator@U?$pair@$$CBHU?$pair@P6A?AV?$shared_ptr@VImageTarget@cinder@@@tr1@std@@V?$shared_ptr@VDataTarget@cinder@@@23@V?$shared_ptr@VImageSource@cinder@@@23@VOptions@ImageTarget@cinder@@ABV?$basic_string@DU?$char_traits@D@std@@V?$allocator@D@2@@3@@ZV93@@std@@@std@@@2@@2@@std@@@2@$0A@@std@@@std@@IAEPAU_Node@?$_Tree_nod@V?$_Tmap_traits@V?$basic_string@DU?$char_traits@D@std@@V?$allocator@D@2@@std@@V?$multimap@HU?$pair@P6A?AV?$shared_ptr@VImageTarget@cinder@@@tr1@std@@V?$shared_ptr@VDataTarget@cinder@@@23@V?$shared_ptr@VImageSource@cinder@@@23@VOptions@ImageTarget@cinder@@ABV?$basic_string@DU?$char_traits@D@std@@V?$allocator@D@2@@3@@ZV93@@std@@U?$less@H@2@V?$allocator@U?$pair@$$CBHU?$pair@P6A?AV?$shared_ptr@VImageTarget@cinder@@@tr1@std@@V?$shared_ptr@VDataTarget@cinder@@@23@V?$shared_ptr@VImageSource@cinder@@@23@VOptions@ImageTarget@cinder@@ABV?$basic_string@DU?$char_traits@D@std@@V?$allocator@D@2@@3@@ZV93@@std@@@std@@@2@@2@U?$less@V?$basic_string@DU?$char_traits@D@std@@V?$allocator@D@2@@std@@@2@V?$allocator@U?$pair@$$CBV?$basic_string@DU?$char_traits@D@std@@V?$allocator@D@2@@std@@V?$multimap@HU?$pair@P6A?AV?$shared_ptr@VImageTarget@cinder@@@tr1@std@@V?$shared_ptr@VDataTarget@cinder@@@23@V?$shared_ptr@VImageSource@cinder@@@23@VOptions@ImageTarget@cinder@@ABV?$basic_string@DU?$char_traits@D@std@@V?$allocator@D@2@@3@@ZV93@@std@@U?$less@H@2@V?$allocator@U?$pair@$$CBHU?$pair@P6A?AV?$shared_ptr@VImageTarget@cinder@@@tr1@std@@V?$shared_ptr@VDataTarget@cinder@@@23@V?$shared_ptr@VImageSource@cinder@@@23@VOptions@ImageTarget@cinder@@ABV?$basic_string@DU?$char_traits@D@std@@V?$allocator@D@2@@3@@ZV93@@std@@@std@@@2@@2@@std@@@2@$0A@@std@@@2@ABV?$basic_string@DU?$char_traits@D@std@@V?$allocator@D@2@@2@@Z 00419dd0 f i cinder:ImageIo.obj
 0001:00018e60       ?erase@?$_Tree@V?$_Tmap_traits@HP6A?AV?$shared_ptr@VImageSource@cinder@@@tr1@std@@V?$shared_ptr@VDataSource@cinder@@@23@VOptions@ImageSource@cinder@@@ZU?$less@H@3@V?$allocator@U?$pair@$$CBHP6A?AV?$shared_ptr@VImageSource@cinder@@@tr1@std@@V?$shared_ptr@VDataSource@cinder@@@23@VOptions@ImageSource@cinder@@@Z@std@@@3@$00@std@@@std@@QAE?AV?$_Tree_iterator@V?$_Tree_val@V?$_Tmap_traits@HP6A?AV?$shared_ptr@VImageSource@cinder@@@tr1@std@@V?$shared_ptr@VDataSource@cinder@@@23@VOptions@ImageSource@cinder@@@ZU?$less@H@3@V?$allocator@U?$pair@$$CBHP6A?AV?$shared_ptr@VImageSource@cinder@@@tr1@std@@V?$shared_ptr@VDataSource@cinder@@@23@VOptions@ImageSource@cinder@@@Z@std@@@3@$00@std@@@std@@@2@V?$_Tree_const_iterator@V?$_Tree_val@V?$_Tmap_traits@HP6A?AV?$shared_ptr@VImageSource@cinder@@@tr1@std@@V?$shared_ptr@VDataSource@cinder@@@23@VOptions@ImageSource@cinder@@@ZU?$less@H@3@V?$allocator@U?$pair@$$CBHP6A?AV?$shared_ptr@VImageSource@cinder@@@tr1@std@@V?$shared_ptr@VDataSource@cinder@@@23@VOptions@ImageSource@cinder@@@Z@std@@@3@$00@std@@@std@@@2@@Z 00419e60 f i cinder:ImageIo.obj
 0001:00018e60       ?erase@?$_Tree@V?$_Tmap_traits@HP6A?AV?$shared_ptr@VImageSource@cinder@@@tr1@std@@V?$shared_ptr@VDataSource@cinder@@@23@VOptions@ImageSource@cinder@@@ZU?$less@H@3@V?$allocator@U?$pair@$$CBHP6A?AV?$shared_ptr@VImageSource@cinder@@@tr1@std@@V?$shared_ptr@VDataSource@cinder@@@23@VOptions@ImageSource@cinder@@@Z@std@@@3@$0A@@std@@@std@@QAE?AV?$_Tree_iterator@V?$_Tree_val@V?$_Tmap_traits@HP6A?AV?$shared_ptr@VImageSource@cinder@@@tr1@std@@V?$shared_ptr@VDataSource@cinder@@@23@VOptions@ImageSource@cinder@@@ZU?$less@H@3@V?$allocator@U?$pair@$$CBHP6A?AV?$shared_ptr@VImageSource@cinder@@@tr1@std@@V?$shared_ptr@VDataSource@cinder@@@23@VOptions@ImageSource@cinder@@@Z@std@@@3@$0A@@std@@@std@@@2@V?$_Tree_const_iterator@V?$_Tree_val@V?$_Tmap_traits@HP6A?AV?$shared_ptr@VImageSource@cinder@@@tr1@std@@V?$shared_ptr@VDataSource@cinder@@@23@VOptions@ImageSource@cinder@@@ZU?$less@H@3@V?$allocator@U?$pair@$$CBHP6A?AV?$shared_ptr@VImageSource@cinder@@@tr1@std@@V?$shared_ptr@VDataSource@cinder@@@23@VOptions@ImageSource@cinder@@@Z@std@@@3@$0A@@std@@@std@@@2@@Z 00419e60 f i cinder:ImageIo.obj
 0001:000190b0       ?_Erase@?$_Tree@V?$_Tmap_traits@HP6A?AV?$shared_ptr@VImageSource@cinder@@@tr1@std@@V?$shared_ptr@VDataSource@cinder@@@23@VOptions@ImageSource@cinder@@@ZU?$less@H@3@V?$allocator@U?$pair@$$CBHP6A?AV?$shared_ptr@VImageSource@cinder@@@tr1@std@@V?$shared_ptr@VDataSource@cinder@@@23@VOptions@ImageSource@cinder@@@Z@std@@@3@$0A@@std@@@std@@IAEXPAU_Node@?$_Tree_nod@V?$_Tmap_traits@HP6A?AV?$shared_ptr@VImageSource@cinder@@@tr1@std@@V?$shared_ptr@VDataSource@cinder@@@23@VOptions@ImageSource@cinder@@@ZU?$less@H@3@V?$allocator@U?$pair@$$CBHP6A?AV?$shared_ptr@VImageSource@cinder@@@tr1@std@@V?$shared_ptr@VDataSource@cinder@@@23@VOptions@ImageSource@cinder@@@Z@std@@@3@$0A@@std@@@2@@Z 0041a0b0 f i cinder:ImageIo.obj
 0001:000190b0       ?_Erase@?$_Tree@V?$_Tmap_traits@HP6A?AV?$shared_ptr@VImageSource@cinder@@@tr1@std@@V?$shared_ptr@VDataSource@cinder@@@23@VOptions@ImageSource@cinder@@@ZU?$less@H@3@V?$allocator@U?$pair@$$CBHP6A?AV?$shared_ptr@VImageSource@cinder@@@tr1@std@@V?$shared_ptr@VDataSource@cinder@@@23@VOptions@ImageSource@cinder@@@Z@std@@@3@$00@std@@@std@@IAEXPAU_Node@?$_Tree_nod@V?$_Tmap_traits@HP6A?AV?$shared_ptr@VImageSource@cinder@@@tr1@std@@V?$shared_ptr@VDataSource@cinder@@@23@VOptions@ImageSource@cinder@@@ZU?$less@H@3@V?$allocator@U?$pair@$$CBHP6A?AV?$shared_ptr@VImageSource@cinder@@@tr1@std@@V?$shared_ptr@VDataSource@cinder@@@23@VOptions@ImageSource@cinder@@@Z@std@@@3@$00@std@@@2@@Z 0041a0b0 f i cinder:ImageIo.obj
 0001:000190f0       ??$_Reset@VCaptureMgr@cinder@@@?$_Ptr_base@VCaptureMgr@cinder@@@tr1@std@@QAEXABV012@@Z 0041a0f0 f i cinder:CaptureImplDirectShow.obj
 0001:000190f0       ??$_Reset@VImageTarget@cinder@@@?$_Ptr_base@VImageTarget@cinder@@@tr1@std@@QAEXABV012@@Z 0041a0f0 f i cinder:Surface.obj
 0001:000190f0       ??$_Reset@VDisplay@cinder@@@?$_Ptr_base@VDisplay@cinder@@@tr1@std@@QAEXABV012@@Z 0041a0f0 f i cinder:Display.obj
 0001:000190f0       ??$_Reset@UObj@?$ChannelT@E@cinder@@@?$_Ptr_base@UObj@?$ChannelT@E@cinder@@@tr1@std@@QAEXABV012@@Z 0041a0f0 f i cinder:Surface.obj
 0001:000190f0       ??$_Reset@VImageSource@cinder@@@?$_Ptr_base@VImageSource@cinder@@@tr1@std@@QAEXABV012@@Z 0041a0f0 f i cinder:Surface.obj
 0001:000190f0       ??$_Reset@VDataSource@cinder@@@?$_Ptr_base@VDataSource@cinder@@@tr1@std@@QAEXABV012@@Z 0041a0f0 f i cinder:Utilities.obj
 0001:000190f0       ??$_Reset@UObj@Buffer@cinder@@@?$_Ptr_base@UObj@Buffer@cinder@@@tr1@std@@QAEXABV012@@Z 0041a0f0 f i cinder:DataSource.obj
 0001:000190f0       ??$_Reset@UObj@?$SurfaceT@E@cinder@@@?$_Ptr_base@UObj@?$SurfaceT@E@cinder@@@tr1@std@@QAEXABV012@@Z 0041a0f0 f i cinder:Renderer.obj
 0001:000190f0       ??$_Reset@VOStream@cinder@@@?$_Ptr_base@VOStream@cinder@@@tr1@std@@QAEXABV012@@Z 0041a0f0 f i cinder:ImageTargetFileWic.obj
 0001:000190f0       ??$_Reset@VDevice@Capture@cinder@@@?$_Ptr_base@VDevice@Capture@cinder@@@tr1@std@@QAEXABV012@@Z 0041a0f0 f i CinderProjectEx1App.obj
 0001:000190f0       ??$_Reset@VDataTarget@cinder@@@?$_Ptr_base@VDataTarget@cinder@@@tr1@std@@QAEXABV012@@Z 0041a0f0 f i cinder:ImageIo.obj
 0001:00019150       ?_Linsert@?$_Tree@V?$_Tmap_traits@HP6A?AV?$shared_ptr@VImageSource@cinder@@@tr1@std@@V?$shared_ptr@VDataSource@cinder@@@23@VOptions@ImageSource@cinder@@@ZU?$less@H@3@V?$allocator@U?$pair@$$CBHP6A?AV?$shared_ptr@VImageSource@cinder@@@tr1@std@@V?$shared_ptr@VDataSource@cinder@@@23@VOptions@ImageSource@cinder@@@Z@std@@@3@$0A@@std@@@std@@QAE?AU?$pair@V?$_Tree_iterator@V?$_Tree_val@V?$_Tmap_traits@HP6A?AV?$shared_ptr@VImageSource@cinder@@@tr1@std@@V?$shared_ptr@VDataSource@cinder@@@23@VOptions@ImageSource@cinder@@@ZU?$less@H@3@V?$allocator@U?$pair@$$CBHP6A?AV?$shared_ptr@VImageSource@cinder@@@tr1@std@@V?$shared_ptr@VDataSource@cinder@@@23@VOptions@ImageSource@cinder@@@Z@std@@@3@$0A@@std@@@std@@@std@@_N@2@PAU_Node@?$_Tree_nod@V?$_Tmap_traits@HP6A?AV?$shared_ptr@VImageSource@cinder@@@tr1@std@@V?$shared_ptr@VDataSource@cinder@@@23@VOptions@ImageSource@cinder@@@ZU?$less@H@3@V?$allocator@U?$pair@$$CBHP6A?AV?$shared_ptr@VImageSource@cinder@@@tr1@std@@V?$shared_ptr@VDataSource@cinder@@@23@VOptions@ImageSource@cinder@@@Z@std@@@3@$0A@@std@@@2@_N@Z 0041a150 f i cinder:ImageIo.obj
 0001:00019230       ??1?$pair@P6A?AV?$shared_ptr@VImageTarget@cinder@@@tr1@std@@V?$shared_ptr@VDataTarget@cinder@@@23@V?$shared_ptr@VImageSource@cinder@@@23@VOptions@ImageTarget@cinder@@ABV?$basic_string@DU?$char_traits@D@std@@V?$allocator@D@2@@3@@ZV93@@std@@QAE@XZ 0041a230 f i cinder:ImageIo.obj
 0001:00019260       ?clear@?$_Tree@V?$_Tmap_traits@HP6A?AV?$shared_ptr@VImageSource@cinder@@@tr1@std@@V?$shared_ptr@VDataSource@cinder@@@23@VOptions@ImageSource@cinder@@@ZU?$less@H@3@V?$allocator@U?$pair@$$CBHP6A?AV?$shared_ptr@VImageSource@cinder@@@tr1@std@@V?$shared_ptr@VDataSource@cinder@@@23@VOptions@ImageSource@cinder@@@Z@std@@@3@$00@std@@@std@@QAEXXZ 0041a260 f i cinder:ImageIo.obj
 0001:00019260       ?clear@?$_Tree@V?$_Tmap_traits@HP6A?AV?$shared_ptr@VImageSource@cinder@@@tr1@std@@V?$shared_ptr@VDataSource@cinder@@@23@VOptions@ImageSource@cinder@@@ZU?$less@H@3@V?$allocator@U?$pair@$$CBHP6A?AV?$shared_ptr@VImageSource@cinder@@@tr1@std@@V?$shared_ptr@VDataSource@cinder@@@23@VOptions@ImageSource@cinder@@@Z@std@@@3@$0A@@std@@@std@@QAEXXZ 0041a260 f i cinder:ImageIo.obj
 0001:000192b0       ??$_Buynode@U?$pair@HP6A?AV?$shared_ptr@VImageSource@cinder@@@tr1@std@@V?$shared_ptr@VDataSource@cinder@@@23@VOptions@ImageSource@cinder@@@Z@std@@@?$_Tree_val@V?$_Tmap_traits@HP6A?AV?$shared_ptr@VImageSource@cinder@@@tr1@std@@V?$shared_ptr@VDataSource@cinder@@@23@VOptions@ImageSource@cinder@@@ZU?$less@H@3@V?$allocator@U?$pair@$$CBHP6A?AV?$shared_ptr@VImageSource@cinder@@@tr1@std@@V?$shared_ptr@VDataSource@cinder@@@23@VOptions@ImageSource@cinder@@@Z@std@@@3@$0A@@std@@@std@@QAEPAU_Node@?$_Tree_nod@V?$_Tmap_traits@HP6A?AV?$shared_ptr@VImageSource@cinder@@@tr1@std@@V?$shared_ptr@VDataSource@cinder@@@23@VOptions@ImageSource@cinder@@@ZU?$less@H@3@V?$allocator@U?$pair@$$CBHP6A?AV?$shared_ptr@VImageSource@cinder@@@tr1@std@@V?$shared_ptr@VDataSource@cinder@@@23@VOptions@ImageSource@cinder@@@Z@std@@@3@$0A@@std@@@1@$$QAU?$pair@HP6A?AV?$shared_ptr@VImageSource@cinder@@@tr1@std@@V?$shared_ptr@VDataSource@cinder@@@23@VOptions@ImageSource@cinder@@@Z@1@@Z 0041a2b0 f i cinder:ImageIo.obj
 0001:00019320       ??$setupRowFuncForTypesAndTargetColorModel@EE$0A@@ImageSource@cinder@@IAEP801@AEXV?$shared_ptr@VImageTarget@cinder@@@tr1@std@@HPBX@Z0@Z 0041a320 f i cinder:ImageIo.obj
 0001:00019510       ??$setupRowFuncForTypesAndTargetColorModel@EE$00@ImageSource@cinder@@IAEP801@AEXV?$shared_ptr@VImageTarget@cinder@@@tr1@std@@HPBX@Z0@Z 0041a510 f i cinder:ImageIo.obj
 0001:00019700       ??$setupRowFuncForTypesAndTargetColorModel@EG$0A@@ImageSource@cinder@@IAEP801@AEXV?$shared_ptr@VImageTarget@cinder@@@tr1@std@@HPBX@Z0@Z 0041a700 f i cinder:ImageIo.obj
 0001:000198f0       ??$setupRowFuncForTypesAndTargetColorModel@EG$00@ImageSource@cinder@@IAEP801@AEXV?$shared_ptr@VImageTarget@cinder@@@tr1@std@@HPBX@Z0@Z 0041a8f0 f i cinder:ImageIo.obj
 0001:00019ae0       ??$setupRowFuncForTypesAndTargetColorModel@EM$0A@@ImageSource@cinder@@IAEP801@AEXV?$shared_ptr@VImageTarget@cinder@@@tr1@std@@HPBX@Z0@Z 0041aae0 f i cinder:ImageIo.obj
 0001:00019cd0       ??$setupRowFuncForTypesAndTargetColorModel@EM$00@ImageSource@cinder@@IAEP801@AEXV?$shared_ptr@VImageTarget@cinder@@@tr1@std@@HPBX@Z0@Z 0041acd0 f i cinder:ImageIo.obj
 0001:00019ec0       ??$setupRowFuncForTypesAndTargetColorModel@GE$0A@@ImageSource@cinder@@IAEP801@AEXV?$shared_ptr@VImageTarget@cinder@@@tr1@std@@HPBX@Z0@Z 0041aec0 f i cinder:ImageIo.obj
 0001:0001a0b0       ??$setupRowFuncForTypesAndTargetColorModel@GE$00@ImageSource@cinder@@IAEP801@AEXV?$shared_ptr@VImageTarget@cinder@@@tr1@std@@HPBX@Z0@Z 0041b0b0 f i cinder:ImageIo.obj
 0001:0001a2a0       ??$setupRowFuncForTypesAndTargetColorModel@GG$0A@@ImageSource@cinder@@IAEP801@AEXV?$shared_ptr@VImageTarget@cinder@@@tr1@std@@HPBX@Z0@Z 0041b2a0 f i cinder:ImageIo.obj
 0001:0001a490       ??$setupRowFuncForTypesAndTargetColorModel@GG$00@ImageSource@cinder@@IAEP801@AEXV?$shared_ptr@VImageTarget@cinder@@@tr1@std@@HPBX@Z0@Z 0041b490 f i cinder:ImageIo.obj
 0001:0001a680       ??$setupRowFuncForTypesAndTargetColorModel@GM$0A@@ImageSource@cinder@@IAEP801@AEXV?$shared_ptr@VImageTarget@cinder@@@tr1@std@@HPBX@Z0@Z 0041b680 f i cinder:ImageIo.obj
 0001:0001a870       ??$setupRowFuncForTypesAndTargetColorModel@GM$00@ImageSource@cinder@@IAEP801@AEXV?$shared_ptr@VImageTarget@cinder@@@tr1@std@@HPBX@Z0@Z 0041b870 f i cinder:ImageIo.obj
 0001:0001aa60       ??$setupRowFuncForTypesAndTargetColorModel@ME$0A@@ImageSource@cinder@@IAEP801@AEXV?$shared_ptr@VImageTarget@cinder@@@tr1@std@@HPBX@Z0@Z 0041ba60 f i cinder:ImageIo.obj
 0001:0001ac50       ??$setupRowFuncForTypesAndTargetColorModel@ME$00@ImageSource@cinder@@IAEP801@AEXV?$shared_ptr@VImageTarget@cinder@@@tr1@std@@HPBX@Z0@Z 0041bc50 f i cinder:ImageIo.obj
 0001:0001ae40       ??$setupRowFuncForTypesAndTargetColorModel@MG$0A@@ImageSource@cinder@@IAEP801@AEXV?$shared_ptr@VImageTarget@cinder@@@tr1@std@@HPBX@Z0@Z 0041be40 f i cinder:ImageIo.obj
 0001:0001b030       ??$setupRowFuncForTypesAndTargetColorModel@MG$00@ImageSource@cinder@@IAEP801@AEXV?$shared_ptr@VImageTarget@cinder@@@tr1@std@@HPBX@Z0@Z 0041c030 f i cinder:ImageIo.obj
 0001:0001b220       ??$setupRowFuncForTypesAndTargetColorModel@MM$0A@@ImageSource@cinder@@IAEP801@AEXV?$shared_ptr@VImageTarget@cinder@@@tr1@std@@HPBX@Z0@Z 0041c220 f i cinder:ImageIo.obj
 0001:0001b410       ??$setupRowFuncForTypesAndTargetColorModel@MM$00@ImageSource@cinder@@IAEP801@AEXV?$shared_ptr@VImageTarget@cinder@@@tr1@std@@HPBX@Z0@Z 0041c410 f i cinder:ImageIo.obj
 0001:0001b600       ??1?$pair@HU?$pair@P6A?AV?$shared_ptr@VImageTarget@cinder@@@tr1@std@@V?$shared_ptr@VDataTarget@cinder@@@23@V?$shared_ptr@VImageSource@cinder@@@23@VOptions@ImageTarget@cinder@@ABV?$basic_string@DU?$char_traits@D@std@@V?$allocator@D@2@@3@@ZV93@@std@@@std@@QAE@XZ 0041c600 f i cinder:ImageIo.obj
 0001:0001b630       ?erase@?$_Tree@V?$_Tmap_traits@HP6A?AV?$shared_ptr@VImageSource@cinder@@@tr1@std@@V?$shared_ptr@VDataSource@cinder@@@23@VOptions@ImageSource@cinder@@@ZU?$less@H@3@V?$allocator@U?$pair@$$CBHP6A?AV?$shared_ptr@VImageSource@cinder@@@tr1@std@@V?$shared_ptr@VDataSource@cinder@@@23@VOptions@ImageSource@cinder@@@Z@std@@@3@$0A@@std@@@std@@QAE?AV?$_Tree_iterator@V?$_Tree_val@V?$_Tmap_traits@HP6A?AV?$shared_ptr@VImageSource@cinder@@@tr1@std@@V?$shared_ptr@VDataSource@cinder@@@23@VOptions@ImageSource@cinder@@@ZU?$less@H@3@V?$allocator@U?$pair@$$CBHP6A?AV?$shared_ptr@VImageSource@cinder@@@tr1@std@@V?$shared_ptr@VDataSource@cinder@@@23@VOptions@ImageSource@cinder@@@Z@std@@@3@$0A@@std@@@std@@@2@V?$_Tree_const_iterator@V?$_Tree_val@V?$_Tmap_traits@HP6A?AV?$shared_ptr@VImageSource@cinder@@@tr1@std@@V?$shared_ptr@VDataSource@cinder@@@23@VOptions@ImageSource@cinder@@@ZU?$less@H@3@V?$allocator@U?$pair@$$CBHP6A?AV?$shared_ptr@VImageSource@cinder@@@tr1@std@@V?$shared_ptr@VDataSource@cinder@@@23@VOptions@ImageSource@cinder@@@Z@std@@@3@$0A@@std@@@std@@@2@0@Z 0041c630 f i cinder:ImageIo.obj
 0001:0001b630       ?erase@?$_Tree@V?$_Tmap_traits@HP6A?AV?$shared_ptr@VImageSource@cinder@@@tr1@std@@V?$shared_ptr@VDataSource@cinder@@@23@VOptions@ImageSource@cinder@@@ZU?$less@H@3@V?$allocator@U?$pair@$$CBHP6A?AV?$shared_ptr@VImageSource@cinder@@@tr1@std@@V?$shared_ptr@VDataSource@cinder@@@23@VOptions@ImageSource@cinder@@@Z@std@@@3@$00@std@@@std@@QAE?AV?$_Tree_iterator@V?$_Tree_val@V?$_Tmap_traits@HP6A?AV?$shared_ptr@VImageSource@cinder@@@tr1@std@@V?$shared_ptr@VDataSource@cinder@@@23@VOptions@ImageSource@cinder@@@ZU?$less@H@3@V?$allocator@U?$pair@$$CBHP6A?AV?$shared_ptr@VImageSource@cinder@@@tr1@std@@V?$shared_ptr@VDataSource@cinder@@@23@VOptions@ImageSource@cinder@@@Z@std@@@3@$00@std@@@std@@@2@V?$_Tree_const_iterator@V?$_Tree_val@V?$_Tmap_traits@HP6A?AV?$shared_ptr@VImageSource@cinder@@@tr1@std@@V?$shared_ptr@VDataSource@cinder@@@23@VOptions@ImageSource@cinder@@@ZU?$less@H@3@V?$allocator@U?$pair@$$CBHP6A?AV?$shared_ptr@VImageSource@cinder@@@tr1@std@@V?$shared_ptr@VDataSource@cinder@@@23@VOptions@ImageSource@cinder@@@Z@std@@@3@$00@std@@@std@@@2@0@Z 0041c630 f i cinder:ImageIo.obj
 0001:0001b6d0       ??$setupRowFuncForTypes@EE@ImageSource@cinder@@IAEP801@AEXV?$shared_ptr@VImageTarget@cinder@@@tr1@std@@HPBX@Z0@Z 0041c6d0 f i cinder:ImageIo.obj
 0001:0001b7d0       ??$setupRowFuncForTypes@EG@ImageSource@cinder@@IAEP801@AEXV?$shared_ptr@VImageTarget@cinder@@@tr1@std@@HPBX@Z0@Z 0041c7d0 f i cinder:ImageIo.obj
 0001:0001b8d0       ??$setupRowFuncForTypes@EM@ImageSource@cinder@@IAEP801@AEXV?$shared_ptr@VImageTarget@cinder@@@tr1@std@@HPBX@Z0@Z 0041c8d0 f i cinder:ImageIo.obj
 0001:0001b9d0       ??$setupRowFuncForTypes@GE@ImageSource@cinder@@IAEP801@AEXV?$shared_ptr@VImageTarget@cinder@@@tr1@std@@HPBX@Z0@Z 0041c9d0 f i cinder:ImageIo.obj
 0001:0001bad0       ??$setupRowFuncForTypes@GG@ImageSource@cinder@@IAEP801@AEXV?$shared_ptr@VImageTarget@cinder@@@tr1@std@@HPBX@Z0@Z 0041cad0 f i cinder:ImageIo.obj
 0001:0001bbd0       ??$setupRowFuncForTypes@GM@ImageSource@cinder@@IAEP801@AEXV?$shared_ptr@VImageTarget@cinder@@@tr1@std@@HPBX@Z0@Z 0041cbd0 f i cinder:ImageIo.obj
 0001:0001bcd0       ??$setupRowFuncForTypes@ME@ImageSource@cinder@@IAEP801@AEXV?$shared_ptr@VImageTarget@cinder@@@tr1@std@@HPBX@Z0@Z 0041ccd0 f i cinder:ImageIo.obj
 0001:0001bdd0       ??$setupRowFuncForTypes@MG@ImageSource@cinder@@IAEP801@AEXV?$shared_ptr@VImageTarget@cinder@@@tr1@std@@HPBX@Z0@Z 0041cdd0 f i cinder:ImageIo.obj
 0001:0001bed0       ??$setupRowFuncForTypes@MM@ImageSource@cinder@@IAEP801@AEXV?$shared_ptr@VImageTarget@cinder@@@tr1@std@@HPBX@Z0@Z 0041ced0 f i cinder:ImageIo.obj
 0001:0001bfd0       ??0ImageIoExceptionFailedLoad@cinder@@QAE@ABV01@@Z 0041cfd0 f i cinder:ImageIo.obj
 0001:0001bff0       ??$setupRowFuncForSourceType@E@ImageSource@cinder@@IAEP801@AEXV?$shared_ptr@VImageTarget@cinder@@@tr1@std@@HPBX@Z0@Z 0041cff0 f i cinder:ImageIo.obj
 0001:0001c100       ??0ImageIoExceptionIllegalDataType@cinder@@QAE@ABV01@@Z 0041d100 f i cinder:ImageIo.obj
 0001:0001c120       ??$setupRowFuncForSourceType@G@ImageSource@cinder@@IAEP801@AEXV?$shared_ptr@VImageTarget@cinder@@@tr1@std@@HPBX@Z0@Z 0041d120 f i cinder:ImageIo.obj
 0001:0001c230       ??$setupRowFuncForSourceType@M@ImageSource@cinder@@IAEP801@AEXV?$shared_ptr@VImageTarget@cinder@@@tr1@std@@HPBX@Z0@Z 0041d230 f i cinder:ImageIo.obj
 0001:0001c340       ?setupRowFunc@ImageSource@cinder@@IAEP812@AEXV?$shared_ptr@VImageTarget@cinder@@@tr1@std@@HPBX@Z0@Z 0041d340 f   cinder:ImageIo.obj
 0001:0001c450       ??1?$map@HP6A?AV?$shared_ptr@VImageSource@cinder@@@tr1@std@@V?$shared_ptr@VDataSource@cinder@@@23@VOptions@ImageSource@cinder@@@ZU?$less@H@3@V?$allocator@U?$pair@$$CBHP6A?AV?$shared_ptr@VImageSource@cinder@@@tr1@std@@V?$shared_ptr@VDataSource@cinder@@@23@VOptions@ImageSource@cinder@@@Z@std@@@3@@std@@QAE@XZ 0041d450 f i cinder:ImageIo.obj
 0001:0001c4b0       ??$make_pair@AAP6A?AV?$shared_ptr@VImageTarget@cinder@@@tr1@std@@V?$shared_ptr@VDataTarget@cinder@@@23@V?$shared_ptr@VImageSource@cinder@@@23@VOptions@ImageTarget@cinder@@ABV?$basic_string@DU?$char_traits@D@std@@V?$allocator@D@2@@3@@ZV93@@std@@YA?AU?$pair@P6A?AV?$shared_ptr@VImageTarget@cinder@@@tr1@std@@V?$shared_ptr@VDataTarget@cinder@@@23@V?$shared_ptr@VImageSource@cinder@@@23@VOptions@ImageTarget@cinder@@ABV?$basic_string@DU?$char_traits@D@std@@V?$allocator@D@2@@3@@ZV93@@0@AAP6A?AV?$shared_ptr@VImageTarget@cinder@@@tr1@0@V?$shared_ptr@VDataTarget@cinder@@@30@V?$shared_ptr@VImageSource@cinder@@@30@VOptions@ImageTarget@cinder@@ABV?$basic_string@DU?$char_traits@D@std@@V?$allocator@D@2@@0@@Z3@Z 0041d4b0 f i cinder:ImageIo.obj
 0001:0001c550       ?_Insert@?$_Tree@V?$_Tmap_traits@HU?$pair@P6A?AV?$shared_ptr@VImageTarget@cinder@@@tr1@std@@V?$shared_ptr@VDataTarget@cinder@@@23@V?$shared_ptr@VImageSource@cinder@@@23@VOptions@ImageTarget@cinder@@ABV?$basic_string@DU?$char_traits@D@std@@V?$allocator@D@2@@3@@ZV93@@std@@U?$less@H@2@V?$allocator@U?$pair@$$CBHU?$pair@P6A?AV?$shared_ptr@VImageTarget@cinder@@@tr1@std@@V?$shared_ptr@VDataTarget@cinder@@@23@V?$shared_ptr@VImageSource@cinder@@@23@VOptions@ImageTarget@cinder@@ABV?$basic_string@DU?$char_traits@D@std@@V?$allocator@D@2@@3@@ZV93@@std@@@std@@@2@$00@std@@@std@@IAE?AV?$_Tree_iterator@V?$_Tree_val@V?$_Tmap_traits@HU?$pair@P6A?AV?$shared_ptr@VImageTarget@cinder@@@tr1@std@@V?$shared_ptr@VDataTarget@cinder@@@23@V?$shared_ptr@VImageSource@cinder@@@23@VOptions@ImageTarget@cinder@@ABV?$basic_string@DU?$char_traits@D@std@@V?$allocator@D@2@@3@@ZV93@@std@@U?$less@H@2@V?$allocator@U?$pair@$$CBHU?$pair@P6A?AV?$shared_ptr@VImageTarget@cinder@@@tr1@std@@V?$shared_ptr@VDataTarget@cinder@@@23@V?$shared_ptr@VImageSource@cinder@@@23@VOptions@ImageTarget@cinder@@ABV?$basic_string@DU?$char_traits@D@std@@V?$allocator@D@2@@3@@ZV93@@std@@@std@@@2@$00@std@@@std@@@2@_NPAU_Node@?$_Tree_nod@V?$_Tmap_traits@HU?$pair@P6A?AV?$shared_ptr@VImageTarget@cinder@@@tr1@std@@V?$shared_ptr@VDataTarget@cinder@@@23@V?$shared_ptr@VImageSource@cinder@@@23@VOptions@ImageTarget@cinder@@ABV?$basic_string@DU?$char_traits@D@std@@V?$allocator@D@2@@3@@ZV93@@std@@U?$less@H@2@V?$allocator@U?$pair@$$CBHU?$pair@P6A?AV?$shared_ptr@VImageTarget@cinder@@@tr1@std@@V?$shared_ptr@VDataTarget@cinder@@@23@V?$shared_ptr@VImageSource@cinder@@@23@VOptions@ImageTarget@cinder@@ABV?$basic_string@DU?$char_traits@D@std@@V?$allocator@D@2@@3@@ZV93@@std@@@std@@@2@$00@std@@@2@1@Z 0041d550 f i cinder:ImageIo.obj
 0001:0001c7a0       ?erase@?$_Tree@V?$_Tmap_traits@HU?$pair@P6A?AV?$shared_ptr@VImageTarget@cinder@@@tr1@std@@V?$shared_ptr@VDataTarget@cinder@@@23@V?$shared_ptr@VImageSource@cinder@@@23@VOptions@ImageTarget@cinder@@ABV?$basic_string@DU?$char_traits@D@std@@V?$allocator@D@2@@3@@ZV93@@std@@U?$less@H@2@V?$allocator@U?$pair@$$CBHU?$pair@P6A?AV?$shared_ptr@VImageTarget@cinder@@@tr1@std@@V?$shared_ptr@VDataTarget@cinder@@@23@V?$shared_ptr@VImageSource@cinder@@@23@VOptions@ImageTarget@cinder@@ABV?$basic_string@DU?$char_traits@D@std@@V?$allocator@D@2@@3@@ZV93@@std@@@std@@@2@$00@std@@@std@@QAE?AV?$_Tree_iterator@V?$_Tree_val@V?$_Tmap_traits@HU?$pair@P6A?AV?$shared_ptr@VImageTarget@cinder@@@tr1@std@@V?$shared_ptr@VDataTarget@cinder@@@23@V?$shared_ptr@VImageSource@cinder@@@23@VOptions@ImageTarget@cinder@@ABV?$basic_string@DU?$char_traits@D@std@@V?$allocator@D@2@@3@@ZV93@@std@@U?$less@H@2@V?$allocator@U?$pair@$$CBHU?$pair@P6A?AV?$shared_ptr@VImageTarget@cinder@@@tr1@std@@V?$shared_ptr@VDataTarget@cinder@@@23@V?$shared_ptr@VImageSource@cinder@@@23@VOptions@ImageTarget@cinder@@ABV?$basic_string@DU?$char_traits@D@std@@V?$allocator@D@2@@3@@ZV93@@std@@@std@@@2@$00@std@@@std@@@2@V?$_Tree_const_iterator@V?$_Tree_val@V?$_Tmap_traits@HU?$pair@P6A?AV?$shared_ptr@VImageTarget@cinder@@@tr1@std@@V?$shared_ptr@VDataTarget@cinder@@@23@V?$shared_ptr@VImageSource@cinder@@@23@VOptions@ImageTarget@cinder@@ABV?$basic_string@DU?$char_traits@D@std@@V?$allocator@D@2@@3@@ZV93@@std@@U?$less@H@2@V?$allocator@U?$pair@$$CBHU?$pair@P6A?AV?$shared_ptr@VImageTarget@cinder@@@tr1@std@@V?$shared_ptr@VDataTarget@cinder@@@23@V?$shared_ptr@VImageSource@cinder@@@23@VOptions@ImageTarget@cinder@@ABV?$basic_string@DU?$char_traits@D@std@@V?$allocator@D@2@@3@@ZV93@@std@@@std@@@2@$00@std@@@std@@@2@@Z 0041d7a0 f i cinder:ImageIo.obj
 0001:0001ca20       ?_Erase@?$_Tree@V?$_Tmap_traits@HU?$pair@P6A?AV?$shared_ptr@VImageTarget@cinder@@@tr1@std@@V?$shared_ptr@VDataTarget@cinder@@@23@V?$shared_ptr@VImageSource@cinder@@@23@VOptions@ImageTarget@cinder@@ABV?$basic_string@DU?$char_traits@D@std@@V?$allocator@D@2@@3@@ZV93@@std@@U?$less@H@2@V?$allocator@U?$pair@$$CBHU?$pair@P6A?AV?$shared_ptr@VImageTarget@cinder@@@tr1@std@@V?$shared_ptr@VDataTarget@cinder@@@23@V?$shared_ptr@VImageSource@cinder@@@23@VOptions@ImageTarget@cinder@@ABV?$basic_string@DU?$char_traits@D@std@@V?$allocator@D@2@@3@@ZV93@@std@@@std@@@2@$00@std@@@std@@IAEXPAU_Node@?$_Tree_nod@V?$_Tmap_traits@HU?$pair@P6A?AV?$shared_ptr@VImageTarget@cinder@@@tr1@std@@V?$shared_ptr@VDataTarget@cinder@@@23@V?$shared_ptr@VImageSource@cinder@@@23@VOptions@ImageTarget@cinder@@ABV?$basic_string@DU?$char_traits@D@std@@V?$allocator@D@2@@3@@ZV93@@std@@U?$less@H@2@V?$allocator@U?$pair@$$CBHU?$pair@P6A?AV?$shared_ptr@VImageTarget@cinder@@@tr1@std@@V?$shared_ptr@VDataTarget@cinder@@@23@V?$shared_ptr@VImageSource@cinder@@@23@VOptions@ImageTarget@cinder@@ABV?$basic_string@DU?$char_traits@D@std@@V?$allocator@D@2@@3@@ZV93@@std@@@std@@@2@$00@std@@@2@@Z 0041da20 f i cinder:ImageIo.obj
 0001:0001ca80       ??$make_pair@AAHU?$pair@P6A?AV?$shared_ptr@VImageTarget@cinder@@@tr1@std@@V?$shared_ptr@VDataTarget@cinder@@@23@V?$shared_ptr@VImageSource@cinder@@@23@VOptions@ImageTarget@cinder@@ABV?$basic_string@DU?$char_traits@D@std@@V?$allocator@D@2@@3@@ZV93@@std@@@std@@YA?AU?$pair@HU?$pair@P6A?AV?$shared_ptr@VImageTarget@cinder@@@tr1@std@@V?$shared_ptr@VDataTarget@cinder@@@23@V?$shared_ptr@VImageSource@cinder@@@23@VOptions@ImageTarget@cinder@@ABV?$basic_string@DU?$char_traits@D@std@@V?$allocator@D@2@@3@@ZV93@@std@@@0@AAH$$QAU?$pair@P6A?AV?$shared_ptr@VImageTarget@cinder@@@tr1@std@@V?$shared_ptr@VDataTarget@cinder@@@23@V?$shared_ptr@VImageSource@cinder@@@23@VOptions@ImageTarget@cinder@@ABV?$basic_string@DU?$char_traits@D@std@@V?$allocator@D@2@@3@@ZV93@@0@@Z 0041da80 f i cinder:ImageIo.obj
 0001:0001cac0       ??$_Buynode@AAU?$pair@$$CBHU?$pair@P6A?AV?$shared_ptr@VImageTarget@cinder@@@tr1@std@@V?$shared_ptr@VDataTarget@cinder@@@23@V?$shared_ptr@VImageSource@cinder@@@23@VOptions@ImageTarget@cinder@@ABV?$basic_string@DU?$char_traits@D@std@@V?$allocator@D@2@@3@@ZV93@@std@@@std@@@?$_Tree_val@V?$_Tmap_traits@HU?$pair@P6A?AV?$shared_ptr@VImageTarget@cinder@@@tr1@std@@V?$shared_ptr@VDataTarget@cinder@@@23@V?$shared_ptr@VImageSource@cinder@@@23@VOptions@ImageTarget@cinder@@ABV?$basic_string@DU?$char_traits@D@std@@V?$allocator@D@2@@3@@ZV93@@std@@U?$less@H@2@V?$allocator@U?$pair@$$CBHU?$pair@P6A?AV?$shared_ptr@VImageTarget@cinder@@@tr1@std@@V?$shared_ptr@VDataTarget@cinder@@@23@V?$shared_ptr@VImageSource@cinder@@@23@VOptions@ImageTarget@cinder@@ABV?$basic_string@DU?$char_traits@D@std@@V?$allocator@D@2@@3@@ZV93@@std@@@std@@@2@$00@std@@@std@@QAEPAU_Node@?$_Tree_nod@V?$_Tmap_traits@HU?$pair@P6A?AV?$shared_ptr@VImageTarget@cinder@@@tr1@std@@V?$shared_ptr@VDataTarget@cinder@@@23@V?$shared_ptr@VImageSource@cinder@@@23@VOptions@ImageTarget@cinder@@ABV?$basic_string@DU?$char_traits@D@std@@V?$allocator@D@2@@3@@ZV93@@std@@U?$less@H@2@V?$allocator@U?$pair@$$CBHU?$pair@P6A?AV?$shared_ptr@VImageTarget@cinder@@@tr1@std@@V?$shared_ptr@VDataTarget@cinder@@@23@V?$shared_ptr@VImageSource@cinder@@@23@VOptions@ImageTarget@cinder@@ABV?$basic_string@DU?$char_traits@D@std@@V?$allocator@D@2@@3@@ZV93@@std@@@std@@@2@$00@std@@@1@AAU?$pair@$$CBHU?$pair@P6A?AV?$shared_ptr@VImageTarget@cinder@@@tr1@std@@V?$shared_ptr@VDataTarget@cinder@@@23@V?$shared_ptr@VImageSource@cinder@@@23@VOptions@ImageTarget@cinder@@ABV?$basic_string@DU?$char_traits@D@std@@V?$allocator@D@2@@3@@ZV93@@std@@@1@@Z 0041dac0 f i cinder:ImageIo.obj
 0001:0001cbb0       ?erase@?$_Tree@V?$_Tmap_traits@HU?$pair@P6A?AV?$shared_ptr@VImageTarget@cinder@@@tr1@std@@V?$shared_ptr@VDataTarget@cinder@@@23@V?$shared_ptr@VImageSource@cinder@@@23@VOptions@ImageTarget@cinder@@ABV?$basic_string@DU?$char_traits@D@std@@V?$allocator@D@2@@3@@ZV93@@std@@U?$less@H@2@V?$allocator@U?$pair@$$CBHU?$pair@P6A?AV?$shared_ptr@VImageTarget@cinder@@@tr1@std@@V?$shared_ptr@VDataTarget@cinder@@@23@V?$shared_ptr@VImageSource@cinder@@@23@VOptions@ImageTarget@cinder@@ABV?$basic_string@DU?$char_traits@D@std@@V?$allocator@D@2@@3@@ZV93@@std@@@std@@@2@$00@std@@@std@@QAE?AV?$_Tree_iterator@V?$_Tree_val@V?$_Tmap_traits@HU?$pair@P6A?AV?$shared_ptr@VImageTarget@cinder@@@tr1@std@@V?$shared_ptr@VDataTarget@cinder@@@23@V?$shared_ptr@VImageSource@cinder@@@23@VOptions@ImageTarget@cinder@@ABV?$basic_string@DU?$char_traits@D@std@@V?$allocator@D@2@@3@@ZV93@@std@@U?$less@H@2@V?$allocator@U?$pair@$$CBHU?$pair@P6A?AV?$shared_ptr@VImageTarget@cinder@@@tr1@std@@V?$shared_ptr@VDataTarget@cinder@@@23@V?$shared_ptr@VImageSource@cinder@@@23@VOptions@ImageTarget@cinder@@ABV?$basic_string@DU?$char_traits@D@std@@V?$allocator@D@2@@3@@ZV93@@std@@@std@@@2@$00@std@@@std@@@2@V?$_Tree_const_iterator@V?$_Tree_val@V?$_Tmap_traits@HU?$pair@P6A?AV?$shared_ptr@VImageTarget@cinder@@@tr1@std@@V?$shared_ptr@VDataTarget@cinder@@@23@V?$shared_ptr@VImageSource@cinder@@@23@VOptions@ImageTarget@cinder@@ABV?$basic_string@DU?$char_traits@D@std@@V?$allocator@D@2@@3@@ZV93@@std@@U?$less@H@2@V?$allocator@U?$pair@$$CBHU?$pair@P6A?AV?$shared_ptr@VImageTarget@cinder@@@tr1@std@@V?$shared_ptr@VDataTarget@cinder@@@23@V?$shared_ptr@VImageSource@cinder@@@23@VOptions@ImageTarget@cinder@@ABV?$basic_string@DU?$char_traits@D@std@@V?$allocator@D@2@@3@@ZV93@@std@@@std@@@2@$00@std@@@std@@@2@0@Z 0041dbb0 f i cinder:ImageIo.obj
 0001:0001cc70       ??$_Buynode@U?$pair@HU?$pair@P6A?AV?$shared_ptr@VImageTarget@cinder@@@tr1@std@@V?$shared_ptr@VDataTarget@cinder@@@23@V?$shared_ptr@VImageSource@cinder@@@23@VOptions@ImageTarget@cinder@@ABV?$basic_string@DU?$char_traits@D@std@@V?$allocator@D@2@@3@@ZV93@@std@@@std@@@?$_Tree_val@V?$_Tmap_traits@HU?$pair@P6A?AV?$shared_ptr@VImageTarget@cinder@@@tr1@std@@V?$shared_ptr@VDataTarget@cinder@@@23@V?$shared_ptr@VImageSource@cinder@@@23@VOptions@ImageTarget@cinder@@ABV?$basic_string@DU?$char_traits@D@std@@V?$allocator@D@2@@3@@ZV93@@std@@U?$less@H@2@V?$allocator@U?$pair@$$CBHU?$pair@P6A?AV?$shared_ptr@VImageTarget@cinder@@@tr1@std@@V?$shared_ptr@VDataTarget@cinder@@@23@V?$shared_ptr@VImageSource@cinder@@@23@VOptions@ImageTarget@cinder@@ABV?$basic_string@DU?$char_traits@D@std@@V?$allocator@D@2@@3@@ZV93@@std@@@std@@@2@$00@std@@@std@@QAEPAU_Node@?$_Tree_nod@V?$_Tmap_traits@HU?$pair@P6A?AV?$shared_ptr@VImageTarget@cinder@@@tr1@std@@V?$shared_ptr@VDataTarget@cinder@@@23@V?$shared_ptr@VImageSource@cinder@@@23@VOptions@ImageTarget@cinder@@ABV?$basic_string@DU?$char_traits@D@std@@V?$allocator@D@2@@3@@ZV93@@std@@U?$less@H@2@V?$allocator@U?$pair@$$CBHU?$pair@P6A?AV?$shared_ptr@VImageTarget@cinder@@@tr1@std@@V?$shared_ptr@VDataTarget@cinder@@@23@V?$shared_ptr@VImageSource@cinder@@@23@VOptions@ImageTarget@cinder@@ABV?$basic_string@DU?$char_traits@D@std@@V?$allocator@D@2@@3@@ZV93@@std@@@std@@@2@$00@std@@@1@$$QAU?$pair@HU?$pair@P6A?AV?$shared_ptr@VImageTarget@cinder@@@tr1@std@@V?$shared_ptr@VDataTarget@cinder@@@23@V?$shared_ptr@VImageSource@cinder@@@23@VOptions@ImageTarget@cinder@@ABV?$basic_string@DU?$char_traits@D@std@@V?$allocator@D@2@@3@@ZV93@@std@@@1@@Z 0041dc70 f i cinder:ImageIo.obj
 0001:0001cd50       ?_Copy@?$_Tree@V?$_Tmap_traits@HU?$pair@P6A?AV?$shared_ptr@VImageTarget@cinder@@@tr1@std@@V?$shared_ptr@VDataTarget@cinder@@@23@V?$shared_ptr@VImageSource@cinder@@@23@VOptions@ImageTarget@cinder@@ABV?$basic_string@DU?$char_traits@D@std@@V?$allocator@D@2@@3@@ZV93@@std@@U?$less@H@2@V?$allocator@U?$pair@$$CBHU?$pair@P6A?AV?$shared_ptr@VImageTarget@cinder@@@tr1@std@@V?$shared_ptr@VDataTarget@cinder@@@23@V?$shared_ptr@VImageSource@cinder@@@23@VOptions@ImageTarget@cinder@@ABV?$basic_string@DU?$char_traits@D@std@@V?$allocator@D@2@@3@@ZV93@@std@@@std@@@2@$00@std@@@std@@IAEPAU_Node@?$_Tree_nod@V?$_Tmap_traits@HU?$pair@P6A?AV?$shared_ptr@VImageTarget@cinder@@@tr1@std@@V?$shared_ptr@VDataTarget@cinder@@@23@V?$shared_ptr@VImageSource@cinder@@@23@VOptions@ImageTarget@cinder@@ABV?$basic_string@DU?$char_traits@D@std@@V?$allocator@D@2@@3@@ZV93@@std@@U?$less@H@2@V?$allocator@U?$pair@$$CBHU?$pair@P6A?AV?$shared_ptr@VImageTarget@cinder@@@tr1@std@@V?$shared_ptr@VDataTarget@cinder@@@23@V?$shared_ptr@VImageSource@cinder@@@23@VOptions@ImageTarget@cinder@@ABV?$basic_string@DU?$char_traits@D@std@@V?$allocator@D@2@@3@@ZV93@@std@@@std@@@2@$00@std@@@2@PAU342@0@Z 0041dd50 f i cinder:ImageIo.obj
 0001:0001ce10       ??0?$_Tree@V?$_Tmap_traits@HU?$pair@P6A?AV?$shared_ptr@VImageTarget@cinder@@@tr1@std@@V?$shared_ptr@VDataTarget@cinder@@@23@V?$shared_ptr@VImageSource@cinder@@@23@VOptions@ImageTarget@cinder@@ABV?$basic_string@DU?$char_traits@D@std@@V?$allocator@D@2@@3@@ZV93@@std@@U?$less@H@2@V?$allocator@U?$pair@$$CBHU?$pair@P6A?AV?$shared_ptr@VImageTarget@cinder@@@tr1@std@@V?$shared_ptr@VDataTarget@cinder@@@23@V?$shared_ptr@VImageSource@cinder@@@23@VOptions@ImageTarget@cinder@@ABV?$basic_string@DU?$char_traits@D@std@@V?$allocator@D@2@@3@@ZV93@@std@@@std@@@2@$00@std@@@std@@QAE@$$QAV01@@Z 0041de10 f i cinder:ImageIo.obj
 0001:0001cef0       ??$insert@U?$pair@HU?$pair@P6A?AV?$shared_ptr@VImageTarget@cinder@@@tr1@std@@V?$shared_ptr@VDataTarget@cinder@@@23@V?$shared_ptr@VImageSource@cinder@@@23@VOptions@ImageTarget@cinder@@ABV?$basic_string@DU?$char_traits@D@std@@V?$allocator@D@2@@3@@ZV93@@std@@@std@@@?$_Tree@V?$_Tmap_traits@HU?$pair@P6A?AV?$shared_ptr@VImageTarget@cinder@@@tr1@std@@V?$shared_ptr@VDataTarget@cinder@@@23@V?$shared_ptr@VImageSource@cinder@@@23@VOptions@ImageTarget@cinder@@ABV?$basic_string@DU?$char_traits@D@std@@V?$allocator@D@2@@3@@ZV93@@std@@U?$less@H@2@V?$allocator@U?$pair@$$CBHU?$pair@P6A?AV?$shared_ptr@VImageTarget@cinder@@@tr1@std@@V?$shared_ptr@VDataTarget@cinder@@@23@V?$shared_ptr@VImageSource@cinder@@@23@VOptions@ImageTarget@cinder@@ABV?$basic_string@DU?$char_traits@D@std@@V?$allocator@D@2@@3@@ZV93@@std@@@std@@@2@$00@std@@@std@@QAE?AU?$pair@V?$_Tree_iterator@V?$_Tree_val@V?$_Tmap_traits@HU?$pair@P6A?AV?$shared_ptr@VImageTarget@cinder@@@tr1@std@@V?$shared_ptr@VDataTarget@cinder@@@23@V?$shared_ptr@VImageSource@cinder@@@23@VOptions@ImageTarget@cinder@@ABV?$basic_string@DU?$char_traits@D@std@@V?$allocator@D@2@@3@@ZV93@@std@@U?$less@H@2@V?$allocator@U?$pair@$$CBHU?$pair@P6A?AV?$shared_ptr@VImageTarget@cinder@@@tr1@std@@V?$shared_ptr@VDataTarget@cinder@@@23@V?$shared_ptr@VImageSource@cinder@@@23@VOptions@ImageTarget@cinder@@ABV?$basic_string@DU?$char_traits@D@std@@V?$allocator@D@2@@3@@ZV93@@std@@@std@@@2@$00@std@@@std@@@std@@_N@1@$$QAU?$pair@HU?$pair@P6A?AV?$shared_ptr@VImageTarget@cinder@@@tr1@std@@V?$shared_ptr@VDataTarget@cinder@@@23@V?$shared_ptr@VImageSource@cinder@@@23@VOptions@ImageTarget@cinder@@ABV?$basic_string@DU?$char_traits@D@std@@V?$allocator@D@2@@3@@ZV93@@std@@@1@@Z 0041def0 f i cinder:ImageIo.obj
 0001:0001cf60       ?_Copy@?$_Tree@V?$_Tmap_traits@HU?$pair@P6A?AV?$shared_ptr@VImageTarget@cinder@@@tr1@std@@V?$shared_ptr@VDataTarget@cinder@@@23@V?$shared_ptr@VImageSource@cinder@@@23@VOptions@ImageTarget@cinder@@ABV?$basic_string@DU?$char_traits@D@std@@V?$allocator@D@2@@3@@ZV93@@std@@U?$less@H@2@V?$allocator@U?$pair@$$CBHU?$pair@P6A?AV?$shared_ptr@VImageTarget@cinder@@@tr1@std@@V?$shared_ptr@VDataTarget@cinder@@@23@V?$shared_ptr@VImageSource@cinder@@@23@VOptions@ImageTarget@cinder@@ABV?$basic_string@DU?$char_traits@D@std@@V?$allocator@D@2@@3@@ZV93@@std@@@std@@@2@$00@std@@@std@@IAEXABV12@@Z 0041df60 f i cinder:ImageIo.obj
 0001:0001cfe0       ?erase@?$_Tree@V?$_Tmap_traits@V?$basic_string@DU?$char_traits@D@std@@V?$allocator@D@2@@std@@V?$multimap@HP6A?AV?$shared_ptr@VImageSource@cinder@@@tr1@std@@V?$shared_ptr@VDataSource@cinder@@@23@VOptions@ImageSource@cinder@@@ZU?$less@H@3@V?$allocator@U?$pair@$$CBHP6A?AV?$shared_ptr@VImageSource@cinder@@@tr1@std@@V?$shared_ptr@VDataSource@cinder@@@23@VOptions@ImageSource@cinder@@@Z@std@@@3@@2@U?$less@V?$basic_string@DU?$char_traits@D@std@@V?$allocator@D@2@@std@@@2@V?$allocator@U?$pair@$$CBV?$basic_string@DU?$char_traits@D@std@@V?$allocator@D@2@@std@@V?$multimap@HP6A?AV?$shared_ptr@VImageSource@cinder@@@tr1@std@@V?$shared_ptr@VDataSource@cinder@@@23@VOptions@ImageSource@cinder@@@ZU?$less@H@3@V?$allocator@U?$pair@$$CBHP6A?AV?$shared_ptr@VImageSource@cinder@@@tr1@std@@V?$shared_ptr@VDataSource@cinder@@@23@VOptions@ImageSource@cinder@@@Z@std@@@3@@2@@std@@@2@$0A@@std@@@std@@QAE?AV?$_Tree_iterator@V?$_Tree_val@V?$_Tmap_traits@V?$basic_string@DU?$char_traits@D@std@@V?$allocator@D@2@@std@@V?$multimap@HP6A?AV?$shared_ptr@VImageSource@cinder@@@tr1@std@@V?$shared_ptr@VDataSource@cinder@@@23@VOptions@ImageSource@cinder@@@ZU?$less@H@3@V?$allocator@U?$pair@$$CBHP6A?AV?$shared_ptr@VImageSource@cinder@@@tr1@std@@V?$shared_ptr@VDataSource@cinder@@@23@VOptions@ImageSource@cinder@@@Z@std@@@3@@2@U?$less@V?$basic_string@DU?$char_traits@D@std@@V?$allocator@D@2@@std@@@2@V?$allocator@U?$pair@$$CBV?$basic_string@DU?$char_traits@D@std@@V?$allocator@D@2@@std@@V?$multimap@HP6A?AV?$shared_ptr@VImageSource@cinder@@@tr1@std@@V?$shared_ptr@VDataSource@cinder@@@23@VOptions@ImageSource@cinder@@@ZU?$less@H@3@V?$allocator@U?$pair@$$CBHP6A?AV?$shared_ptr@VImageSource@cinder@@@tr1@std@@V?$shared_ptr@VDataSource@cinder@@@23@VOptions@ImageSource@cinder@@@Z@std@@@3@@2@@std@@@2@$0A@@std@@@std@@@2@V?$_Tree_const_iterator@V?$_Tree_val@V?$_Tmap_traits@V?$basic_string@DU?$char_traits@D@std@@V?$allocator@D@2@@std@@V?$multimap@HP6A?AV?$shared_ptr@VImageSource@cinder@@@tr1@std@@V?$shared_ptr@VDataSource@cinder@@@23@VOptions@ImageSource@cinder@@@ZU?$less@H@3@V?$allocator@U?$pair@$$CBHP6A?AV?$shared_ptr@VImageSource@cinder@@@tr1@std@@V?$shared_ptr@VDataSource@cinder@@@23@VOptions@ImageSource@cinder@@@Z@std@@@3@@2@U?$less@V?$basic_string@DU?$char_traits@D@std@@V?$allocator@D@2@@std@@@2@V?$allocator@U?$pair@$$CBV?$basic_string@DU?$char_traits@D@std@@V?$allocator@D@2@@std@@V?$multimap@HP6A?AV?$shared_ptr@VImageSource@cinder@@@tr1@std@@V?$shared_ptr@VDataSource@cinder@@@23@VOptions@ImageSource@cinder@@@ZU?$less@H@3@V?$allocator@U?$pair@$$CBHP6A?AV?$shared_ptr@VImageSource@cinder@@@tr1@std@@V?$shared_ptr@VDataSource@cinder@@@23@VOptions@ImageSource@cinder@@@Z@std@@@3@@2@@std@@@2@$0A@@std@@@std@@@2@@Z 0041dfe0 f i cinder:ImageIo.obj
 0001:0001d2b0       ?_Erase@?$_Tree@V?$_Tmap_traits@V?$basic_string@DU?$char_traits@D@std@@V?$allocator@D@2@@std@@V?$multimap@HP6A?AV?$shared_ptr@VImageSource@cinder@@@tr1@std@@V?$shared_ptr@VDataSource@cinder@@@23@VOptions@ImageSource@cinder@@@ZU?$less@H@3@V?$allocator@U?$pair@$$CBHP6A?AV?$shared_ptr@VImageSource@cinder@@@tr1@std@@V?$shared_ptr@VDataSource@cinder@@@23@VOptions@ImageSource@cinder@@@Z@std@@@3@@2@U?$less@V?$basic_string@DU?$char_traits@D@std@@V?$allocator@D@2@@std@@@2@V?$allocator@U?$pair@$$CBV?$basic_string@DU?$char_traits@D@std@@V?$allocator@D@2@@std@@V?$multimap@HP6A?AV?$shared_ptr@VImageSource@cinder@@@tr1@std@@V?$shared_ptr@VDataSource@cinder@@@23@VOptions@ImageSource@cinder@@@ZU?$less@H@3@V?$allocator@U?$pair@$$CBHP6A?AV?$shared_ptr@VImageSource@cinder@@@tr1@std@@V?$shared_ptr@VDataSource@cinder@@@23@VOptions@ImageSource@cinder@@@Z@std@@@3@@2@@std@@@2@$0A@@std@@@std@@IAEXPAU_Node@?$_Tree_nod@V?$_Tmap_traits@V?$basic_string@DU?$char_traits@D@std@@V?$allocator@D@2@@std@@V?$multimap@HP6A?AV?$shared_ptr@VImageSource@cinder@@@tr1@std@@V?$shared_ptr@VDataSource@cinder@@@23@VOptions@ImageSource@cinder@@@ZU?$less@H@3@V?$allocator@U?$pair@$$CBHP6A?AV?$shared_ptr@VImageSource@cinder@@@tr1@std@@V?$shared_ptr@VDataSource@cinder@@@23@VOptions@ImageSource@cinder@@@Z@std@@@3@@2@U?$less@V?$basic_string@DU?$char_traits@D@std@@V?$allocator@D@2@@std@@@2@V?$allocator@U?$pair@$$CBV?$basic_string@DU?$char_traits@D@std@@V?$allocator@D@2@@std@@V?$multimap@HP6A?AV?$shared_ptr@VImageSource@cinder@@@tr1@std@@V?$shared_ptr@VDataSource@cinder@@@23@VOptions@ImageSource@cinder@@@ZU?$less@H@3@V?$allocator@U?$pair@$$CBHP6A?AV?$shared_ptr@VImageSource@cinder@@@tr1@std@@V?$shared_ptr@VDataSource@cinder@@@23@VOptions@ImageSource@cinder@@@Z@std@@@3@@2@@std@@@2@$0A@@std@@@2@@Z 0041e2b0 f i cinder:ImageIo.obj
 0001:0001d390       ??0?$_Tree@V?$_Tmap_traits@HU?$pair@P6A?AV?$shared_ptr@VImageTarget@cinder@@@tr1@std@@V?$shared_ptr@VDataTarget@cinder@@@23@V?$shared_ptr@VImageSource@cinder@@@23@VOptions@ImageTarget@cinder@@ABV?$basic_string@DU?$char_traits@D@std@@V?$allocator@D@2@@3@@ZV93@@std@@U?$less@H@2@V?$allocator@U?$pair@$$CBHU?$pair@P6A?AV?$shared_ptr@VImageTarget@cinder@@@tr1@std@@V?$shared_ptr@VDataTarget@cinder@@@23@V?$shared_ptr@VImageSource@cinder@@@23@VOptions@ImageTarget@cinder@@ABV?$basic_string@DU?$char_traits@D@std@@V?$allocator@D@2@@3@@ZV93@@std@@@std@@@2@$00@std@@@std@@QAE@ABV01@@Z 0041e390 f i cinder:ImageIo.obj
 0001:0001d460       ??1?$multimap@HU?$pair@P6A?AV?$shared_ptr@VImageTarget@cinder@@@tr1@std@@V?$shared_ptr@VDataTarget@cinder@@@23@V?$shared_ptr@VImageSource@cinder@@@23@VOptions@ImageTarget@cinder@@ABV?$basic_string@DU?$char_traits@D@std@@V?$allocator@D@2@@3@@ZV93@@std@@U?$less@H@2@V?$allocator@U?$pair@$$CBHU?$pair@P6A?AV?$shared_ptr@VImageTarget@cinder@@@tr1@std@@V?$shared_ptr@VDataTarget@cinder@@@23@V?$shared_ptr@VImageSource@cinder@@@23@VOptions@ImageTarget@cinder@@ABV?$basic_string@DU?$char_traits@D@std@@V?$allocator@D@2@@3@@ZV93@@std@@@std@@@2@@std@@QAE@XZ 0041e460 f i cinder:ImageIo.obj
 0001:0001d4c0       ??1?$pair@V?$basic_string@DU?$char_traits@D@std@@V?$allocator@D@2@@std@@V?$multimap@HU?$pair@P6A?AV?$shared_ptr@VImageTarget@cinder@@@tr1@std@@V?$shared_ptr@VDataTarget@cinder@@@23@V?$shared_ptr@VImageSource@cinder@@@23@VOptions@ImageTarget@cinder@@ABV?$basic_string@DU?$char_traits@D@std@@V?$allocator@D@2@@3@@ZV93@@std@@U?$less@H@2@V?$allocator@U?$pair@$$CBHU?$pair@P6A?AV?$shared_ptr@VImageTarget@cinder@@@tr1@std@@V?$shared_ptr@VDataTarget@cinder@@@23@V?$shared_ptr@VImageSource@cinder@@@23@VOptions@ImageTarget@cinder@@ABV?$basic_string@DU?$char_traits@D@std@@V?$allocator@D@2@@3@@ZV93@@std@@@std@@@2@@2@@std@@QAE@XZ 0041e4c0 f i cinder:ImageIo.obj
 0001:0001d550       ?erase@?$_Tree@V?$_Tmap_traits@V?$basic_string@DU?$char_traits@D@std@@V?$allocator@D@2@@std@@V?$multimap@HP6A?AV?$shared_ptr@VImageSource@cinder@@@tr1@std@@V?$shared_ptr@VDataSource@cinder@@@23@VOptions@ImageSource@cinder@@@ZU?$less@H@3@V?$allocator@U?$pair@$$CBHP6A?AV?$shared_ptr@VImageSource@cinder@@@tr1@std@@V?$shared_ptr@VDataSource@cinder@@@23@VOptions@ImageSource@cinder@@@Z@std@@@3@@2@U?$less@V?$basic_string@DU?$char_traits@D@std@@V?$allocator@D@2@@std@@@2@V?$allocator@U?$pair@$$CBV?$basic_string@DU?$char_traits@D@std@@V?$allocator@D@2@@std@@V?$multimap@HP6A?AV?$shared_ptr@VImageSource@cinder@@@tr1@std@@V?$shared_ptr@VDataSource@cinder@@@23@VOptions@ImageSource@cinder@@@ZU?$less@H@3@V?$allocator@U?$pair@$$CBHP6A?AV?$shared_ptr@VImageSource@cinder@@@tr1@std@@V?$shared_ptr@VDataSource@cinder@@@23@VOptions@ImageSource@cinder@@@Z@std@@@3@@2@@std@@@2@$0A@@std@@@std@@QAE?AV?$_Tree_iterator@V?$_Tree_val@V?$_Tmap_traits@V?$basic_string@DU?$char_traits@D@std@@V?$allocator@D@2@@std@@V?$multimap@HP6A?AV?$shared_ptr@VImageSource@cinder@@@tr1@std@@V?$shared_ptr@VDataSource@cinder@@@23@VOptions@ImageSource@cinder@@@ZU?$less@H@3@V?$allocator@U?$pair@$$CBHP6A?AV?$shared_ptr@VImageSource@cinder@@@tr1@std@@V?$shared_ptr@VDataSource@cinder@@@23@VOptions@ImageSource@cinder@@@Z@std@@@3@@2@U?$less@V?$basic_string@DU?$char_traits@D@std@@V?$allocator@D@2@@std@@@2@V?$allocator@U?$pair@$$CBV?$basic_string@DU?$char_traits@D@std@@V?$allocator@D@2@@std@@V?$multimap@HP6A?AV?$shared_ptr@VImageSource@cinder@@@tr1@std@@V?$shared_ptr@VDataSource@cinder@@@23@VOptions@ImageSource@cinder@@@ZU?$less@H@3@V?$allocator@U?$pair@$$CBHP6A?AV?$shared_ptr@VImageSource@cinder@@@tr1@std@@V?$shared_ptr@VDataSource@cinder@@@23@VOptions@ImageSource@cinder@@@Z@std@@@3@@2@@std@@@2@$0A@@std@@@std@@@2@V?$_Tree_const_iterator@V?$_Tree_val@V?$_Tmap_traits@V?$basic_string@DU?$char_traits@D@std@@V?$allocator@D@2@@std@@V?$multimap@HP6A?AV?$shared_ptr@VImageSource@cinder@@@tr1@std@@V?$shared_ptr@VDataSource@cinder@@@23@VOptions@ImageSource@cinder@@@ZU?$less@H@3@V?$allocator@U?$pair@$$CBHP6A?AV?$shared_ptr@VImageSource@cinder@@@tr1@std@@V?$shared_ptr@VDataSource@cinder@@@23@VOptions@ImageSource@cinder@@@Z@std@@@3@@2@U?$less@V?$basic_string@DU?$char_traits@D@std@@V?$allocator@D@2@@std@@@2@V?$allocator@U?$pair@$$CBV?$basic_string@DU?$char_traits@D@std@@V?$allocator@D@2@@std@@V?$multimap@HP6A?AV?$shared_ptr@VImageSource@cinder@@@tr1@std@@V?$shared_ptr@VDataSource@cinder@@@23@VOptions@ImageSource@cinder@@@ZU?$less@H@3@V?$allocator@U?$pair@$$CBHP6A?AV?$shared_ptr@VImageSource@cinder@@@tr1@std@@V?$shared_ptr@VDataSource@cinder@@@23@VOptions@ImageSource@cinder@@@Z@std@@@3@@2@@std@@@2@$0A@@std@@@std@@@2@0@Z 0041e550 f i cinder:ImageIo.obj
 0001:0001d610       ??$make_pair@AAV?$basic_string@DU?$char_traits@D@std@@V?$allocator@D@2@@std@@AAV?$multimap@HU?$pair@P6A?AV?$shared_ptr@VImageTarget@cinder@@@tr1@std@@V?$shared_ptr@VDataTarget@cinder@@@23@V?$shared_ptr@VImageSource@cinder@@@23@VOptions@ImageTarget@cinder@@ABV?$basic_string@DU?$char_traits@D@std@@V?$allocator@D@2@@3@@ZV93@@std@@U?$less@H@2@V?$allocator@U?$pair@$$CBHU?$pair@P6A?AV?$shared_ptr@VImageTarget@cinder@@@tr1@std@@V?$shared_ptr@VDataTarget@cinder@@@23@V?$shared_ptr@VImageSource@cinder@@@23@VOptions@ImageTarget@cinder@@ABV?$basic_string@DU?$char_traits@D@std@@V?$allocator@D@2@@3@@ZV93@@std@@@std@@@2@@2@@std@@YA?AU?$pair@V?$basic_string@DU?$char_traits@D@std@@V?$allocator@D@2@@std@@V?$multimap@HU?$pair@P6A?AV?$shared_ptr@VImageTarget@cinder@@@tr1@std@@V?$shared_ptr@VDataTarget@cinder@@@23@V?$shared_ptr@VImageSource@cinder@@@23@VOptions@ImageTarget@cinder@@ABV?$basic_string@DU?$char_traits@D@std@@V?$allocator@D@2@@3@@ZV93@@std@@U?$less@H@2@V?$allocator@U?$pair@$$CBHU?$pair@P6A?AV?$shared_ptr@VImageTarget@cinder@@@tr1@std@@V?$shared_ptr@VDataTarget@cinder@@@23@V?$shared_ptr@VImageSource@cinder@@@23@VOptions@ImageTarget@cinder@@ABV?$basic_string@DU?$char_traits@D@std@@V?$allocator@D@2@@3@@ZV93@@std@@@std@@@2@@2@@0@AAV?$basic_string@DU?$char_traits@D@std@@V?$allocator@D@2@@0@AAV?$multimap@HU?$pair@P6A?AV?$shared_ptr@VImageTarget@cinder@@@tr1@std@@V?$shared_ptr@VDataTarget@cinder@@@23@V?$shared_ptr@VImageSource@cinder@@@23@VOptions@ImageTarget@cinder@@ABV?$basic_string@DU?$char_traits@D@std@@V?$allocator@D@2@@3@@ZV93@@std@@U?$less@H@2@V?$allocator@U?$pair@$$CBHU?$pair@P6A?AV?$shared_ptr@VImageTarget@cinder@@@tr1@std@@V?$shared_ptr@VDataTarget@cinder@@@23@V?$shared_ptr@VImageSource@cinder@@@23@VOptions@ImageTarget@cinder@@ABV?$basic_string@DU?$char_traits@D@std@@V?$allocator@D@2@@3@@ZV93@@std@@@std@@@2@@0@@Z 0041e610 f i cinder:ImageIo.obj
 0001:0001d690       ??$_Destroy@U?$pair@$$CBV?$basic_string@DU?$char_traits@D@std@@V?$allocator@D@2@@std@@V?$multimap@HU?$pair@P6A?AV?$shared_ptr@VImageTarget@cinder@@@tr1@std@@V?$shared_ptr@VDataTarget@cinder@@@23@V?$shared_ptr@VImageSource@cinder@@@23@VOptions@ImageTarget@cinder@@ABV?$basic_string@DU?$char_traits@D@std@@V?$allocator@D@2@@3@@ZV93@@std@@U?$less@H@2@V?$allocator@U?$pair@$$CBHU?$pair@P6A?AV?$shared_ptr@VImageTarget@cinder@@@tr1@std@@V?$shared_ptr@VDataTarget@cinder@@@23@V?$shared_ptr@VImageSource@cinder@@@23@VOptions@ImageTarget@cinder@@ABV?$basic_string@DU?$char_traits@D@std@@V?$allocator@D@2@@3@@ZV93@@std@@@std@@@2@@2@@std@@@std@@YAXPAU?$pair@$$CBV?$basic_string@DU?$char_traits@D@std@@V?$allocator@D@2@@std@@V?$multimap@HU?$pair@P6A?AV?$shared_ptr@VImageTarget@cinder@@@tr1@std@@V?$shared_ptr@VDataTarget@cinder@@@23@V?$shared_ptr@VImageSource@cinder@@@23@VOptions@ImageTarget@cinder@@ABV?$basic_string@DU?$char_traits@D@std@@V?$allocator@D@2@@3@@ZV93@@std@@U?$less@H@2@V?$allocator@U?$pair@$$CBHU?$pair@P6A?AV?$shared_ptr@VImageTarget@cinder@@@tr1@std@@V?$shared_ptr@VDataTarget@cinder@@@23@V?$shared_ptr@VImageSource@cinder@@@23@VOptions@ImageTarget@cinder@@ABV?$basic_string@DU?$char_traits@D@std@@V?$allocator@D@2@@3@@ZV93@@std@@@std@@@2@@2@@0@@Z 0041e690 f i cinder:ImageIo.obj
 0001:0001d720       ??1?$map@V?$basic_string@DU?$char_traits@D@std@@V?$allocator@D@2@@std@@V?$multimap@HP6A?AV?$shared_ptr@VImageSource@cinder@@@tr1@std@@V?$shared_ptr@VDataSource@cinder@@@23@VOptions@ImageSource@cinder@@@ZU?$less@H@3@V?$allocator@U?$pair@$$CBHP6A?AV?$shared_ptr@VImageSource@cinder@@@tr1@std@@V?$shared_ptr@VDataSource@cinder@@@23@VOptions@ImageSource@cinder@@@Z@std@@@3@@2@U?$less@V?$basic_string@DU?$char_traits@D@std@@V?$allocator@D@2@@std@@@2@V?$allocator@U?$pair@$$CBV?$basic_string@DU?$char_traits@D@std@@V?$allocator@D@2@@std@@V?$multimap@HP6A?AV?$shared_ptr@VImageSource@cinder@@@tr1@std@@V?$shared_ptr@VDataSource@cinder@@@23@VOptions@ImageSource@cinder@@@ZU?$less@H@3@V?$allocator@U?$pair@$$CBHP6A?AV?$shared_ptr@VImageSource@cinder@@@tr1@std@@V?$shared_ptr@VDataSource@cinder@@@23@VOptions@ImageSource@cinder@@@Z@std@@@3@@2@@std@@@2@@std@@QAE@XZ 0041e720 f i cinder:ImageIo.obj
 0001:0001d780       ??$_Buynode@U?$pair@V?$basic_string@DU?$char_traits@D@std@@V?$allocator@D@2@@std@@V?$multimap@HU?$pair@P6A?AV?$shared_ptr@VImageTarget@cinder@@@tr1@std@@V?$shared_ptr@VDataTarget@cinder@@@23@V?$shared_ptr@VImageSource@cinder@@@23@VOptions@ImageTarget@cinder@@ABV?$basic_string@DU?$char_traits@D@std@@V?$allocator@D@2@@3@@ZV93@@std@@U?$less@H@2@V?$allocator@U?$pair@$$CBHU?$pair@P6A?AV?$shared_ptr@VImageTarget@cinder@@@tr1@std@@V?$shared_ptr@VDataTarget@cinder@@@23@V?$shared_ptr@VImageSource@cinder@@@23@VOptions@ImageTarget@cinder@@ABV?$basic_string@DU?$char_traits@D@std@@V?$allocator@D@2@@3@@ZV93@@std@@@std@@@2@@2@@std@@@?$_Tree_val@V?$_Tmap_traits@V?$basic_string@DU?$char_traits@D@std@@V?$allocator@D@2@@std@@V?$multimap@HU?$pair@P6A?AV?$shared_ptr@VImageTarget@cinder@@@tr1@std@@V?$shared_ptr@VDataTarget@cinder@@@23@V?$shared_ptr@VImageSource@cinder@@@23@VOptions@ImageTarget@cinder@@ABV?$basic_string@DU?$char_traits@D@std@@V?$allocator@D@2@@3@@ZV93@@std@@U?$less@H@2@V?$allocator@U?$pair@$$CBHU?$pair@P6A?AV?$shared_ptr@VImageTarget@cinder@@@tr1@std@@V?$shared_ptr@VDataTarget@cinder@@@23@V?$shared_ptr@VImageSource@cinder@@@23@VOptions@ImageTarget@cinder@@ABV?$basic_string@DU?$char_traits@D@std@@V?$allocator@D@2@@3@@ZV93@@std@@@std@@@2@@2@U?$less@V?$basic_string@DU?$char_traits@D@std@@V?$allocator@D@2@@std@@@2@V?$allocator@U?$pair@$$CBV?$basic_string@DU?$char_traits@D@std@@V?$allocator@D@2@@std@@V?$multimap@HU?$pair@P6A?AV?$shared_ptr@VImageTarget@cinder@@@tr1@std@@V?$shared_ptr@VDataTarget@cinder@@@23@V?$shared_ptr@VImageSource@cinder@@@23@VOptions@ImageTarget@cinder@@ABV?$basic_string@DU?$char_traits@D@std@@V?$allocator@D@2@@3@@ZV93@@std@@U?$less@H@2@V?$allocator@U?$pair@$$CBHU?$pair@P6A?AV?$shared_ptr@VImageTarget@cinder@@@tr1@std@@V?$shared_ptr@VDataTarget@cinder@@@23@V?$shared_ptr@VImageSource@cinder@@@23@VOptions@ImageTarget@cinder@@ABV?$basic_string@DU?$char_traits@D@std@@V?$allocator@D@2@@3@@ZV93@@std@@@std@@@2@@2@@std@@@2@$0A@@std@@@std@@QAEPAU_Node@?$_Tree_nod@V?$_Tmap_traits@V?$basic_string@DU?$char_traits@D@std@@V?$allocator@D@2@@std@@V?$multimap@HU?$pair@P6A?AV?$shared_ptr@VImageTarget@cinder@@@tr1@std@@V?$shared_ptr@VDataTarget@cinder@@@23@V?$shared_ptr@VImageSource@cinder@@@23@VOptions@ImageTarget@cinder@@ABV?$basic_string@DU?$char_traits@D@std@@V?$allocator@D@2@@3@@ZV93@@std@@U?$less@H@2@V?$allocator@U?$pair@$$CBHU?$pair@P6A?AV?$shared_ptr@VImageTarget@cinder@@@tr1@std@@V?$shared_ptr@VDataTarget@cinder@@@23@V?$shared_ptr@VImageSource@cinder@@@23@VOptions@ImageTarget@cinder@@ABV?$basic_string@DU?$char_traits@D@std@@V?$allocator@D@2@@3@@ZV93@@std@@@std@@@2@@2@U?$less@V?$basic_string@DU?$char_traits@D@std@@V?$allocator@D@2@@std@@@2@V?$allocator@U?$pair@$$CBV?$basic_string@DU?$char_traits@D@std@@V?$allocator@D@2@@std@@V?$multimap@HU?$pair@P6A?AV?$shared_ptr@VImageTarget@cinder@@@tr1@std@@V?$shared_ptr@VDataTarget@cinder@@@23@V?$shared_ptr@VImageSource@cinder@@@23@VOptions@ImageTarget@cinder@@ABV?$basic_string@DU?$char_traits@D@std@@V?$allocator@D@2@@3@@ZV93@@std@@U?$less@H@2@V?$allocator@U?$pair@$$CBHU?$pair@P6A?AV?$shared_ptr@VImageTarget@cinder@@@tr1@std@@V?$shared_ptr@VDataTarget@cinder@@@23@V?$shared_ptr@VImageSource@cinder@@@23@VOptions@ImageTarget@cinder@@ABV?$basic_string@DU?$char_traits@D@std@@V?$allocator@D@2@@3@@ZV93@@std@@@std@@@2@@2@@std@@@2@$0A@@std@@@1@$$QAU?$pair@V?$basic_string@DU?$char_traits@D@std@@V?$allocator@D@2@@std@@V?$multimap@HU?$pair@P6A?AV?$shared_ptr@VImageTarget@cinder@@@tr1@std@@V?$shared_ptr@VDataTarget@cinder@@@23@V?$shared_ptr@VImageSource@cinder@@@23@VOptions@ImageTarget@cinder@@ABV?$basic_string@DU?$char_traits@D@std@@V?$allocator@D@2@@3@@ZV93@@std@@U?$less@H@2@V?$allocator@U?$pair@$$CBHU?$pair@P6A?AV?$shared_ptr@VImageTarget@cinder@@@tr1@std@@V?$shared_ptr@VDataTarget@cinder@@@23@V?$shared_ptr@VImageSource@cinder@@@23@VOptions@ImageTarget@cinder@@ABV?$basic_string@DU?$char_traits@D@std@@V?$allocator@D@2@@3@@ZV93@@std@@@std@@@2@@2@@1@@Z 0041e780 f i cinder:ImageIo.obj
 0001:0001d870       ?_Insert@?$_Tree@V?$_Tmap_traits@V?$basic_string@DU?$char_traits@D@std@@V?$allocator@D@2@@std@@V?$multimap@HU?$pair@P6A?AV?$shared_ptr@VImageTarget@cinder@@@tr1@std@@V?$shared_ptr@VDataTarget@cinder@@@23@V?$shared_ptr@VImageSource@cinder@@@23@VOptions@ImageTarget@cinder@@ABV?$basic_string@DU?$char_traits@D@std@@V?$allocator@D@2@@3@@ZV93@@std@@U?$less@H@2@V?$allocator@U?$pair@$$CBHU?$pair@P6A?AV?$shared_ptr@VImageTarget@cinder@@@tr1@std@@V?$shared_ptr@VDataTarget@cinder@@@23@V?$shared_ptr@VImageSource@cinder@@@23@VOptions@ImageTarget@cinder@@ABV?$basic_string@DU?$char_traits@D@std@@V?$allocator@D@2@@3@@ZV93@@std@@@std@@@2@@2@U?$less@V?$basic_string@DU?$char_traits@D@std@@V?$allocator@D@2@@std@@@2@V?$allocator@U?$pair@$$CBV?$basic_string@DU?$char_traits@D@std@@V?$allocator@D@2@@std@@V?$multimap@HU?$pair@P6A?AV?$shared_ptr@VImageTarget@cinder@@@tr1@std@@V?$shared_ptr@VDataTarget@cinder@@@23@V?$shared_ptr@VImageSource@cinder@@@23@VOptions@ImageTarget@cinder@@ABV?$basic_string@DU?$char_traits@D@std@@V?$allocator@D@2@@3@@ZV93@@std@@U?$less@H@2@V?$allocator@U?$pair@$$CBHU?$pair@P6A?AV?$shared_ptr@VImageTarget@cinder@@@tr1@std@@V?$shared_ptr@VDataTarget@cinder@@@23@V?$shared_ptr@VImageSource@cinder@@@23@VOptions@ImageTarget@cinder@@ABV?$basic_string@DU?$char_traits@D@std@@V?$allocator@D@2@@3@@ZV93@@std@@@std@@@2@@2@@std@@@2@$0A@@std@@@std@@IAE?AV?$_Tree_iterator@V?$_Tree_val@V?$_Tmap_traits@V?$basic_string@DU?$char_traits@D@std@@V?$allocator@D@2@@std@@V?$multimap@HU?$pair@P6A?AV?$shared_ptr@VImageTarget@cinder@@@tr1@std@@V?$shared_ptr@VDataTarget@cinder@@@23@V?$shared_ptr@VImageSource@cinder@@@23@VOptions@ImageTarget@cinder@@ABV?$basic_string@DU?$char_traits@D@std@@V?$allocator@D@2@@3@@ZV93@@std@@U?$less@H@2@V?$allocator@U?$pair@$$CBHU?$pair@P6A?AV?$shared_ptr@VImageTarget@cinder@@@tr1@std@@V?$shared_ptr@VDataTarget@cinder@@@23@V?$shared_ptr@VImageSource@cinder@@@23@VOptions@ImageTarget@cinder@@ABV?$basic_string@DU?$char_traits@D@std@@V?$allocator@D@2@@3@@ZV93@@std@@@std@@@2@@2@U?$less@V?$basic_string@DU?$char_traits@D@std@@V?$allocator@D@2@@std@@@2@V?$allocator@U?$pair@$$CBV?$basic_string@DU?$char_traits@D@std@@V?$allocator@D@2@@std@@V?$multimap@HU?$pair@P6A?AV?$shared_ptr@VImageTarget@cinder@@@tr1@std@@V?$shared_ptr@VDataTarget@cinder@@@23@V?$shared_ptr@VImageSource@cinder@@@23@VOptions@ImageTarget@cinder@@ABV?$basic_string@DU?$char_traits@D@std@@V?$allocator@D@2@@3@@ZV93@@std@@U?$less@H@2@V?$allocator@U?$pair@$$CBHU?$pair@P6A?AV?$shared_ptr@VImageTarget@cinder@@@tr1@std@@V?$shared_ptr@VDataTarget@cinder@@@23@V?$shared_ptr@VImageSource@cinder@@@23@VOptions@ImageTarget@cinder@@ABV?$basic_string@DU?$char_traits@D@std@@V?$allocator@D@2@@3@@ZV93@@std@@@std@@@2@@2@@std@@@2@$0A@@std@@@std@@@2@_NPAU_Node@?$_Tree_nod@V?$_Tmap_traits@V?$basic_string@DU?$char_traits@D@std@@V?$allocator@D@2@@std@@V?$multimap@HU?$pair@P6A?AV?$shared_ptr@VImageTarget@cinder@@@tr1@std@@V?$shared_ptr@VDataTarget@cinder@@@23@V?$shared_ptr@VImageSource@cinder@@@23@VOptions@ImageTarget@cinder@@ABV?$basic_string@DU?$char_traits@D@std@@V?$allocator@D@2@@3@@ZV93@@std@@U?$less@H@2@V?$allocator@U?$pair@$$CBHU?$pair@P6A?AV?$shared_ptr@VImageTarget@cinder@@@tr1@std@@V?$shared_ptr@VDataTarget@cinder@@@23@V?$shared_ptr@VImageSource@cinder@@@23@VOptions@ImageTarget@cinder@@ABV?$basic_string@DU?$char_traits@D@std@@V?$allocator@D@2@@3@@ZV93@@std@@@std@@@2@@2@U?$less@V?$basic_string@DU?$char_traits@D@std@@V?$allocator@D@2@@std@@@2@V?$allocator@U?$pair@$$CBV?$basic_string@DU?$char_traits@D@std@@V?$allocator@D@2@@std@@V?$multimap@HU?$pair@P6A?AV?$shared_ptr@VImageTarget@cinder@@@tr1@std@@V?$shared_ptr@VDataTarget@cinder@@@23@V?$shared_ptr@VImageSource@cinder@@@23@VOptions@ImageTarget@cinder@@ABV?$basic_string@DU?$char_traits@D@std@@V?$allocator@D@2@@3@@ZV93@@std@@U?$less@H@2@V?$allocator@U?$pair@$$CBHU?$pair@P6A?AV?$shared_ptr@VImageTarget@cinder@@@tr1@std@@V?$shared_ptr@VDataTarget@cinder@@@23@V?$shared_ptr@VImageSource@cinder@@@23@VOptions@ImageTarget@cinder@@ABV?$basic_string@DU?$char_traits@D@std@@V?$allocator@D@2@@3@@ZV93@@std@@@std@@@2@@2@@std@@@2@$0A@@std@@@2@1@Z 0041e870 f i cinder:ImageIo.obj
 0001:0001daa0       ?erase@?$_Tree@V?$_Tmap_traits@V?$basic_string@DU?$char_traits@D@std@@V?$allocator@D@2@@std@@V?$multimap@HU?$pair@P6A?AV?$shared_ptr@VImageTarget@cinder@@@tr1@std@@V?$shared_ptr@VDataTarget@cinder@@@23@V?$shared_ptr@VImageS8de6e224d2e6bfd61b9b6814a738cec7 0041eaa0 f i cinder:ImageIo.obj
 0001:0001dd70       ?_Erase@?$_Tree@V?$_Tmap_traits@V?$basic_string@DU?$char_traits@D@std@@V?$allocator@D@2@@std@@V?$multimap@HU?$pair@P6A?AV?$shared_ptr@VImageTarget@cinder@@@tr1@std@@V?$shared_ptr@VDataTarget@cinder@@@23@V?$shared_ptr@VImageSource@cinder@@@23@VOptions@ImageTarget@cinder@@ABV?$basic_string@DU?$char_traits@D@std@@V?$allocator@D@2@@3@@ZV93@@std@@U?$less@H@2@V?$allocator@U?$pair@$$CBHU?$pair@P6A?AV?$shared_ptr@VImageTarget@cinder@@@tr1@std@@V?$shared_ptr@VDataTarget@cinder@@@23@V?$shared_ptr@VImageSource@cinder@@@23@VOptions@ImageTarget@cinder@@ABV?$basic_string@DU?$char_traits@D@std@@V?$allocator@D@2@@3@@ZV93@@std@@@std@@@2@@2@U?$less@V?$basic_string@DU?$char_traits@D@std@@V?$allocator@D@2@@std@@@2@V?$allocator@U?$pair@$$CBV?$basic_string@DU?$char_traits@D@std@@V?$allocator@D@2@@std@@V?$multimap@HU?$pair@P6A?AV?$shared_ptr@VImageTarget@cinder@@@tr1@std@@V?$shared_ptr@VDataTarget@cinder@@@23@V?$shared_ptr@VImageSource@cinder@@@23@VOptions@ImageTarget@cinder@@ABV?$basic_string@DU?$char_traits@D@std@@V?$allocator@D@2@@3@@ZV93@@std@@U?$less@H@2@V?$allocator@U?$pair@$$CBHU?$pair@P6A?AV?$shared_ptr@VImageTarget@cinder@@@tr1@std@@V?$shared_ptr@VDataTarget@cinder@@@23@V?$shared_ptr@VImageSource@cinder@@@23@VOptions@ImageTarget@cinder@@ABV?$basic_string@DU?$char_traits@D@std@@V?$allocator@D@2@@3@@ZV93@@std@@@std@@@2@@2@@std@@@2@$0A@@std@@@std@@IAEXPAU_Node@?$_Tree_nod@V?$_Tmap_traits@V?$basic_string@DU?$char_traits@D@std@@V?$allocator@D@2@@std@@V?$multimap@HU?$pair@P6A?AV?$shared_ptr@VImageTarget@cinder@@@tr1@std@@V?$shared_ptr@VDataTarget@cinder@@@23@V?$shared_ptr@VImageSource@cinder@@@23@VOptions@ImageTarget@cinder@@ABV?$basic_string@DU?$char_traits@D@std@@V?$allocator@D@2@@3@@ZV93@@std@@U?$less@H@2@V?$allocator@U?$pair@$$CBHU?$pair@P6A?AV?$shared_ptr@VImageTarget@cinder@@@tr1@std@@V?$shared_ptr@VDataTarget@cinder@@@23@V?$shared_ptr@VImageSource@cinder@@@23@VOptions@ImageTarget@cinder@@ABV?$basic_string@DU?$char_traits@D@std@@V?$allocator@D@2@@3@@ZV93@@std@@@std@@@2@@2@U?$less@V?$basic_string@DU?$char_traits@D@std@@V?$allocator@D@2@@std@@@2@V?$allocator@U?$pair@$$CBV?$basic_string@DU?$char_traits@D@std@@V?$allocator@D@2@@std@@V?$multimap@HU?$pair@P6A?AV?$shared_ptr@VImageTarget@cinder@@@tr1@std@@V?$shared_ptr@VDataTarget@cinder@@@23@V?$shared_ptr@VImageSource@cinder@@@23@VOptions@ImageTarget@cinder@@ABV?$basic_string@DU?$char_traits@D@std@@V?$allocator@D@2@@3@@ZV93@@std@@U?$less@H@2@V?$allocator@U?$pair@$$CBHU?$pair@P6A?AV?$shared_ptr@VImageTarget@cinder@@@tr1@std@@V?$shared_ptr@VDataTarget@cinder@@@23@V?$shared_ptr@VImageSource@cinder@@@23@VOptions@ImageTarget@cinder@@ABV?$basic_string@DU?$char_traits@D@std@@V?$allocator@D@2@@3@@ZV93@@std@@@std@@@2@@2@@std@@@2@$0A@@std@@@2@@Z 0041ed70 f i cinder:ImageIo.obj
 0001:0001de50       ?_Linsert@?$_Tree@V?$_Tmap_traits@V?$basic_string@DU?$char_traits@D@std@@V?$allocator@D@2@@std@@V?$multimap@HU?$pair@P6A?AV?$shared_ptr@VImageTarget@cinder@@@tr1@std@@V?$shared_ptr@VDataTarget@cinder@@@23@V?$shared_ptr@VIma35db66e00551a5ac0eb0b1d003874bcc 0041ee50 f i cinder:ImageIo.obj
 0001:0001e000       ?registerTargetType@Inst@ImageIoRegistrar@cinder@@QAEXV?$basic_string@DU?$char_traits@D@std@@V?$allocator@D@2@@std@@P6A?AV?$shared_ptr@VImageTarget@cinder@@@tr1@5@V?$shared_ptr@VDataTarget@cinder@@@75@V?$shared_ptr@VImageSource@cinder@@@75@VOptions@ImageTarget@3@ABV45@@ZH4@Z 0041f000 f   cinder:ImageIo.obj
 0001:0001e320       ?erase@?$_Tree@V?$_Tmap_traits@V?$basic_string@DU?$char_traits@D@std@@V?$allocator@D@2@@std@@V?$multimap@HU?$pair@P6A?AV?$shared_ptr@VImageTarget@cinder@@@tr1@std@@V?$shared_ptr@VDataTarget@cinder@@@23@V?$shared_ptr@VImageSda3424650875b2c85800043577b5cf4c 0041f320 f i cinder:ImageIo.obj
 0001:0001e3e0       ??1Inst@ImageIoRegistrar@cinder@@QAE@XZ 0041f3e0 f i cinder:ImageIo.obj
 0001:0001e4a0       ??0Inst@ImageIoRegistrar@cinder@@QAE@XZ 0041f4a0 f i cinder:ImageIo.obj
 0001:0001e5f0       ?_Destroy@?$_Ref_count@UInst@ImageIoRegistrar@cinder@@@tr1@std@@EAEXXZ 0041f5f0 f i cinder:ImageIo.obj
 0001:0001e610       ??$_Resetp@UInst@ImageIoRegistrar@cinder@@@?$shared_ptr@UInst@ImageIoRegistrar@cinder@@@tr1@std@@AAEXPAUInst@ImageIoRegistrar@cinder@@@Z 0041f610 f i cinder:ImageIo.obj
 0001:0001e6b0       ?instance@ImageIoRegistrar@cinder@@CAPAUInst@12@XZ 0041f6b0 f   cinder:ImageIo.obj
 0001:0001e7a0       ?registerTargetType@ImageIoRegistrar@cinder@@SAXV?$basic_string@DU?$char_traits@D@std@@V?$allocator@D@2@@std@@P6A?AV?$shared_ptr@VImageTarget@cinder@@@tr1@4@V?$shared_ptr@VDataTarget@cinder@@@64@V?$shared_ptr@VImageSource@cinder@@@64@VOptions@ImageTarget@2@ABV34@@ZH4@Z 0041f7a0 f   cinder:ImageIo.obj
 0001:0001e840       ?registerSourceGeneric@ImageIoRegistrar@cinder@@SAXP6A?AV?$shared_ptr@VImageSource@cinder@@@tr1@std@@V?$shared_ptr@VDataSource@cinder@@@45@VOptions@ImageSource@2@@ZH@Z 0041f840 f   cinder:ImageIo.obj
 0001:0001e880       ?_Destroy@?$_Ref_count@UObj@?$ChannelT@E@cinder@@@tr1@std@@EAEXXZ 0041f880 f i cinder:Channel.obj
 0001:0001e8c0       ??$_Resetp@UObj@?$ChannelT@E@cinder@@@?$shared_ptr@UObj@?$ChannelT@E@cinder@@@tr1@std@@AAEXPAUObj@?$ChannelT@E@cinder@@@Z 0041f8c0 f i cinder:Channel.obj
 0001:0001e980       ??0?$ChannelT@E@cinder@@QAE@HHHEPAE@Z 0041f980 f i cinder:Channel.obj
 0001:0001e9f0       ___GLeeGetProcAddress      0041f9f0 f   cinder:GLee.obj
 0001:0001ea00       ___GLeeLink_GL_VERSION_1_2 0041fa00 f   cinder:GLee.obj
 0001:0001ef90       ___GLeeLink_GL_VERSION_1_3 0041ff90 f   cinder:GLee.obj
 0001:0001f640       ___GLeeLink_GL_VERSION_1_4 00420640 f   cinder:GLee.obj
 0001:0001fcc0       ___GLeeLink_GL_VERSION_1_5 00420cc0 f   cinder:GLee.obj
 0001:0001ffa0       ___GLeeLink_GL_VERSION_2_0 00420fa0 f   cinder:GLee.obj
 0001:00020ce0       ___GLeeLink_GL_VERSION_2_1 00421ce0 f   cinder:GLee.obj
 0001:00020df0       ___GLeeLink_GL_VERSION_3_0 00421df0 f   cinder:GLee.obj
 0001:00021650       ___GLeeLink_GL_ARB_multitexture 00422650 f   cinder:GLee.obj
 0001:00021b50       ___GLeeLink_GL_ARB_transpose_matrix 00422b50 f   cinder:GLee.obj
 0001:00021c10       ___GLeeLink_GL_ARB_multisample 00422c10 f   cinder:GLee.obj
 0001:00021c60       ___GLeeLink_GL_ARB_texture_compression 00422c60 f   cinder:GLee.obj
 0001:00021d90       ___GLeeLink_GL_ARB_point_parameters 00422d90 f   cinder:GLee.obj
 0001:00021e10       ___GLeeLink_GL_ARB_vertex_blend 00422e10 f   cinder:GLee.obj
 0001:00021fb0       ___GLeeLink_GL_ARB_matrix_palette 00422fb0 f   cinder:GLee.obj
 0001:00022090       ___GLeeLink_GL_ARB_window_pos 00423090 f   cinder:GLee.obj
 0001:00022300       ___GLeeLink_GL_ARB_vertex_program 00423300 f   cinder:GLee.obj
 0001:00022bf0       ___GLeeLink_GL_ARB_vertex_buffer_object 00423bf0 f   cinder:GLee.obj
 0001:00022db0       ___GLeeLink_GL_ARB_occlusion_query 00423db0 f   cinder:GLee.obj
 0001:00022f00       ___GLeeLink_GL_ARB_shader_objects 00423f00 f   cinder:GLee.obj
 0001:000234b0       ___GLeeLink_GL_ARB_vertex_shader 004244b0 f   cinder:GLee.obj
 0001:00023550       ___GLeeLink_GL_ARB_draw_buffers 00424550 f   cinder:GLee.obj
 0001:000235a0       ___GLeeLink_GL_ARB_color_buffer_float 004245a0 f   cinder:GLee.obj
 0001:000235f0       ___GLeeLink_GL_ARB_draw_instanced 004245f0 f   cinder:GLee.obj
 0001:00023670       ___GLeeLink_GL_ARB_framebuffer_object 00424670 f   cinder:GLee.obj
 0001:00023970       ___GLeeLink_GL_ARB_geometry_shader4 00424970 f   cinder:GLee.obj
 0001:00023a30       ___GLeeLink_GL_ARB_instanced_arrays 00424a30 f   cinder:GLee.obj
 0001:00023a80       ___GLeeLink_GL_ARB_map_buffer_range 00424a80 f   cinder:GLee.obj
 0001:00023b00       ___GLeeLink_GL_ARB_texture_buffer_object 00424b00 f   cinder:GLee.obj
 0001:00023b50       ___GLeeLink_GL_ARB_vertex_array_object 00424b50 f   cinder:GLee.obj
 0001:00023c10       ___GLeeLink_GL_EXT_blend_color 00424c10 f   cinder:GLee.obj
 0001:00023c60       ___GLeeLink_GL_EXT_polygon_offset 00424c60 f   cinder:GLee.obj
 0001:00023cb0       ___GLeeLink_GL_EXT_texture3D 00424cb0 f   cinder:GLee.obj
 0001:00023d30       ___GLeeLink_GL_SGIS_texture_filter4 00424d30 f   cinder:GLee.obj
 0001:00023db0       ___GLeeLink_GL_EXT_subtexture 00424db0 f   cinder:GLee.obj
 0001:00023e30       ___GLeeLink_GL_EXT_copy_texture 00424e30 f   cinder:GLee.obj
 0001:00023f10       ___GLeeLink_GL_EXT_histogram 00424f10 f   cinder:GLee.obj
 0001:000240b0       ___GLeeLink_GL_EXT_convolution 004250b0 f   cinder:GLee.obj
 0001:000242b0       ___GLeeLink_GL_SGI_color_table 004252b0 f   cinder:GLee.obj
 0001:000243e0       ___GLeeLink_GL_SGIS_pixel_texture 004253e0 f   cinder:GLee.obj
 0001:000244f0       ___GLeeLink_GL_SGIX_pixel_texture 004254f0 f   cinder:GLee.obj
 0001:00024540       ___GLeeLink_GL_SGIS_texture4D 00425540 f   cinder:GLee.obj
 0001:000245c0       ___GLeeLink_GL_SGIX_texture_lod_bias 004255c0 f   cinder:GLee.obj
 0001:000245c0       ___GLeeLink_GL_ARB_shading_language_100 004255c0 f   cinder:GLee.obj
 0001:000245c0       ___GLeeLink_GL_ATI_texture_mirror_once 004255c0 f   cinder:GLee.obj
 0001:000245c0       ___GLeeLink_GL_ARB_shadow_ambient 004255c0 f   cinder:GLee.obj
 0001:000245c0       ___GLeeLink_GL_EXT_texture_filter_anisotropic 004255c0 f   cinder:GLee.obj
 0001:000245c0       ___GLeeLink_GL_SGIX_vertex_preclip 004255c0 f   cinder:GLee.obj
 0001:000245c0       ___GLeeLink_GL_EXT_shadow_funcs 004255c0 f   cinder:GLee.obj
 0001:000245c0       ___GLeeLink_GL_OES_compressed_paletted_texture 004255c0 f   cinder:GLee.obj
 0001:000245c0       ___GLeeLink_GL_OML_interlace 004255c0 f   cinder:GLee.obj
 0001:000245c0       ___GLeeLink_GL_NV_fragment_program_option 004255c0 f   cinder:GLee.obj
 0001:000245c0       ___GLeeLink_GL_EXT_texture_array 004255c0 f   cinder:GLee.obj
 0001:000245c0       ___GLeeLink_GL_APPLE_specular_vector 004255c0 f   cinder:GLee.obj
 0001:000245c0       ___GLeeLink_GL_3DFX_texture_compression_FXT1 004255c0 f   cinder:GLee.obj
 0001:000245c0       ___GLeeLink_GL_SGIX_async_histogram 004255c0 f   cinder:GLee.obj
 0001:000245c0       ___GLeeLink_GL_INTEL_texture_scissor 004255c0 f   cinder:GLee.obj
 0001:000245c0       ___GLeeLink_GL_SGIX_texture_coordinate_clamp 004255c0 f   cinder:GLee.obj
 0001:000245c0       ___GLeeLink_GL_EXT_texture_compression_s3tc 004255c0 f   cinder:GLee.obj
 0001:000245c0       ___GLeeLink_GL_APPLE_transform_hint 004255c0 f   cinder:GLee.obj
 0001:000245c0       ___GLeeLink_GL_EXT_rescale_normal 004255c0 f   cinder:GLee.obj
 0001:000245c0       ___GLeeLink_GL_SUN_slice_accum 004255c0 f   cinder:GLee.obj
 0001:000245c0       ___GLeeLink_GL_INGR_color_clamp 004255c0 f   cinder:GLee.obj
 0001:000245c0       ___GLeeLink_WGL_EXT_framebuffer_sRGB 004255c0 f   cinder:GLee.obj
 0001:000245c0       ___GLeeLink_WGL_ARB_pixel_format_float 004255c0 f   cinder:GLee.obj
 0001:000245c0       ___GLeeLink_GL_EXT_texture_lod_bias 004255c0 f   cinder:GLee.obj
 0001:000245c0       ___GLeeLink_GL_SGIX_resample 004255c0 f   cinder:GLee.obj
 0001:000245c0       ___GLeeLink_GL_SGIX_depth_texture 004255c0 f   cinder:GLee.obj
 0001:000245c0       ___GLeeLink_GL_EXT_blend_subtract 004255c0 f   cinder:GLee.obj
 0001:000245c0       ___GLeeLink_GL_ARB_half_float_pixel 004255c0 f   cinder:GLee.obj
 0001:000245c0       ___GLeeLink_GL_WIN_specular_fog 004255c0 f   cinder:GLee.obj
 0001:000245c0       ___GLeeLink_GL_SGIS_texture_select 004255c0 f   cinder:GLee.obj
 0001:000245c0       ___GLeeLink_GL_MESA_pack_invert 004255c0 f   cinder:GLee.obj
 0001:000245c0       ___GLeeLink_GL_SGIX_ycrcb_subsample 004255c0 f   cinder:GLee.obj
 0001:000245c0       ___GLeeLink_GL_REND_screen_coordinates 004255c0 f   cinder:GLee.obj
 0001:000245c0       ___GLeeLink_GL_OML_subsample 004255c0 f   cinder:GLee.obj
 0001:000245c0       ___GLeeLink_GL_SGIX_ir_instrument1 004255c0 f   cinder:GLee.obj
 0001:000245c0       ___GLeeLink_GL_SGIX_interlace 004255c0 f   cinder:GLee.obj
 0001:000245c0       ___GLeeLink_GL_IBM_static_data 004255c0 f   cinder:GLee.obj
 0001:000245c0       ___GLeeLink_GL_NV_copy_depth_to_color 004255c0 f   cinder:GLee.obj
 0001:000245c0       ___GLeeLink_GL_EXT_index_array_formats 004255c0 f   cinder:GLee.obj
 0001:000245c0       ___GLeeLink_GL_EXT_index_texture 004255c0 f   cinder:GLee.obj
 0001:000245c0       ___GLeeLink_GL_SGIX_convolution_accuracy 004255c0 f   cinder:GLee.obj
 0001:000245c0       ___GLeeLink_GL_NV_vertex_array_range2 004255c0 f   cinder:GLee.obj
 0001:000245c0       ___GLeeLink_GL_EXT_texture_env_combine 004255c0 f   cinder:GLee.obj
 0001:000245c0       ___GLeeLink_GL_EXT_texture_sRGB 004255c0 f   cinder:GLee.obj
 0001:000245c0       ___GLeeLink_GL_MESAX_texture_stack 004255c0 f   cinder:GLee.obj
 0001:000245c0       ___GLeeLink_GL_ARB_texture_float 004255c0 f   cinder:GLee.obj
 0001:000245c0       ___GLeeLink_GL_SGIX_shadow_ambient 004255c0 f   cinder:GLee.obj
 0001:000245c0       ___GLeeLink_GL_NV_fragment_program2 004255c0 f   cinder:GLee.obj
 0001:000245c0       ___GLeeLink_GL_EXT_vertex_array_bgra 004255c0 f   cinder:GLee.obj
 0001:000245c0       ___GLeeLink_GL_NV_fog_distance 004255c0 f   cinder:GLee.obj
 0001:000245c0       ___GLeeLink_GL_EXT_texture_shared_exponent 004255c0 f   cinder:GLee.obj
 0001:000245c0       ___GLeeLink_GL_SGIX_ycrcba 004255c0 f   cinder:GLee.obj
 0001:000245c0       ___GLeeLink_GL_EXT_pixel_transform_color_table 004255c0 f   cinder:GLee.obj
 0001:000245c0       ___GLeeLink_GL_ARB_shadow  004255c0 f   cinder:GLee.obj
 0001:000245c0       ___GLeeLink_WGL_3DFX_multisample 004255c0 f   cinder:GLee.obj
 0001:000245c0       ___GLeeLink_GL_EXT_stencil_wrap 004255c0 f   cinder:GLee.obj
 0001:000245c0       ___GLeeLink_WGL_3DL_stereo_control 004255c0 f   cinder:GLee.obj
 0001:000245c0       ___GLeeLink_GL_EXT_texture_cube_map 004255c0 f   cinder:GLee.obj
 0001:000245c0       ___GLeeLink_GL_PGI_vertex_hints 004255c0 f   cinder:GLee.obj
 0001:000245c0       ___GLeeLink_GL_ARB_fragment_shader 004255c0 f   cinder:GLee.obj
 0001:000245c0       ___GLeeLink_GL_ARB_texture_non_power_of_two 004255c0 f   cinder:GLee.obj
 0001:000245c0       ___GLeeLink_GL_SGIX_ycrcb  004255c0 f   cinder:GLee.obj
 0001:000245c0       ___GLeeLink_GL_ARB_pixel_buffer_object 004255c0 f   cinder:GLee.obj
 0001:000245c0       ___GLeeLink_GL_NV_present_video 004255c0 f   cinder:GLee.obj
 0001:000245c0       ___GLeeLink_GL_ARB_point_sprite 004255c0 f   cinder:GLee.obj
 0001:000245c0       ___GLeeLink_GL_NV_texgen_emboss 004255c0 f   cinder:GLee.obj
 0001:000245c0       ___GLeeLink_WGL_NV_render_texture_rectangle 004255c0 f   cinder:GLee.obj
 0001:000245c0       ___GLeeLink_GL_SGIX_pixel_texture_bits 004255c0 f   cinder:GLee.obj
 0001:000245c0       ___GLeeLink_GL_SGI_color_matrix 004255c0 f   cinder:GLee.obj
 0001:000245c0       ___GLeeLink_GL_EXT_packed_pixels 004255c0 f   cinder:GLee.obj
 0001:000245c0       ___GLeeLink_GL_ARB_texture_rectangle 004255c0 f   cinder:GLee.obj
 0001:000245c0       ___GLeeLink_GL_NV_packed_depth_stencil 004255c0 f   cinder:GLee.obj
 0001:000245c0       ___GLeeLink_GL_INGR_palette_buffer 004255c0 f   cinder:GLee.obj
 0001:000245c0       ___GLeeLink_GL_SGIX_texture_multi_buffer 004255c0 f   cinder:GLee.obj
 0001:000245c0       ___GLeeLink_GL_IBM_cull_vertex 004255c0 f   cinder:GLee.obj
 0001:000245c0       ___GLeeLink_GL_ARB_half_float_vertex 004255c0 f   cinder:GLee.obj
 0001:000245c0       ___GLeeLink_GL_EXT_texture_env_add 004255c0 f   cinder:GLee.obj
 0001:000245c0       ___GLeeLink_WGL_EXT_pixel_format_packed_float 004255c0 f   cinder:GLee.obj
 0001:000245c0       ___GLeeLink_GL_NV_texture_rectangle 004255c0 f   cinder:GLee.obj
 0001:000245c0       ___GLeeLink_GL_SGIS_point_line_texgen 004255c0 f   cinder:GLee.obj
 0001:000245c0       ___GLeeLink_GL_EXT_misc_attribute 004255c0 f   cinder:GLee.obj
 0001:000245c0       ___GLeeLink_GL_SGIX_pixel_tiles 004255c0 f   cinder:GLee.obj
 0001:000245c0       ___GLeeLink_GL_SGIX_scalebias_hint 004255c0 f   cinder:GLee.obj
 0001:000245c0       ___GLeeLink_GL_SGIX_clipmap 004255c0 f   cinder:GLee.obj
 0001:000245c0       ___GLeeLink_GL_EXT_texture_mirror_clamp 004255c0 f   cinder:GLee.obj
 0001:000245c0       ___GLeeLink_GL_EXT_texture 004255c0 f   cinder:GLee.obj
 0001:000245c0       ___GLeeLink_GL_OES_byte_coordinates 004255c0 f   cinder:GLee.obj
 0001:000245c0       ___GLeeLink_GL_SGIX_depth_pass_instrument 004255c0 f   cinder:GLee.obj
 0001:000245c0       ___GLeeLink_GL_ARB_texture_rg 004255c0 f   cinder:GLee.obj
 0001:000245c0       ___GLeeLink_GL_EXT_422_pixels 004255c0 f   cinder:GLee.obj
 0001:000245c0       ___GLeeLink_GL_ATI_pixel_format_float 004255c0 f   cinder:GLee.obj
 0001:000245c0       ___GLeeLink_GL_S3_s3tc     004255c0 f   cinder:GLee.obj
 0001:000245c0       ___GLeeLink_GL_SGIX_subsample 004255c0 f   cinder:GLee.obj
 0001:000245c0       ___GLeeLink_GL_SGIX_texture_range 004255c0 f   cinder:GLee.obj
 0001:000245c0       ___GLeeLink_GL_SGIX_impact_pixel_texture 004255c0 f   cinder:GLee.obj
 0001:000245c0       ___GLeeLink_GL_EXT_texture_swizzle 004255c0 f   cinder:GLee.obj
 0001:000245c0       ___GLeeLink_GL_ARB_imaging 004255c0 f   cinder:GLee.obj
 0001:000245c0       ___GLeeLink_GL_NV_texture_shader 004255c0 f   cinder:GLee.obj
 0001:000245c0       ___GLeeLink_GL_NV_vertex_program1_1 004255c0 f   cinder:GLee.obj
 0001:000245c0       ___GLeeLink_GL_EXT_separate_specular_color 004255c0 f   cinder:GLee.obj
 0001:000245c0       ___GLeeLink_GL_ARB_depth_texture 004255c0 f   cinder:GLee.obj
 0001:000245c0       ___GLeeLink_GL_ARB_texture_cube_map 004255c0 f   cinder:GLee.obj
 0001:000245c0       ___GLeeLink_GL_SGIX_calligraphic_fragment 004255c0 f   cinder:GLee.obj
 0001:000245c0       ___GLeeLink_GL_SGIX_shadow 004255c0 f   cinder:GLee.obj
 0001:000245c0       ___GLeeLink_GL_SGIX_texture_select 004255c0 f   cinder:GLee.obj
 0001:000245c0       ___GLeeLink_GL_SGI_depth_pass_instrument 004255c0 f   cinder:GLee.obj
 0001:000245c0       ___GLeeLink_GL_HP_occlusion_test 004255c0 f   cinder:GLee.obj
 0001:000245c0       ___GLeeLink_GL_MESA_ycbcr_texture 004255c0 f   cinder:GLee.obj
 0001:000245c0       ___GLeeLink_GL_EXT_texture_compression_rgtc 004255c0 f   cinder:GLee.obj
 0001:000245c0       ___GLeeLink_GL_SGIS_texture_edge_clamp 004255c0 f   cinder:GLee.obj
 0001:000245c0       ___GLeeLink_GL_NV_texture_shader2 004255c0 f   cinder:GLee.obj
 0001:000245c0       ___GLeeLink_GL_EXT_texture_compression_latc 004255c0 f   cinder:GLee.obj
 0001:000245c0       ___GLeeLink_GL_ATI_texture_float 004255c0 f   cinder:GLee.obj
 0001:000245c0       ___GLeeLink_GL_EXT_texture_compression_dxt1 004255c0 f   cinder:GLee.obj
 0001:000245c0       ___GLeeLink_GL_SGIX_texture_add_env 004255c0 f   cinder:GLee.obj
 0001:000245c0       ___GLeeLink_WGL_NV_render_depth_texture 004255c0 f   cinder:GLee.obj
 0001:000245c0       ___GLeeLink_GL_EXT_framebuffer_sRGB 004255c0 f   cinder:GLee.obj
 0001:000245c0       ___GLeeLink_GL_NV_depth_clamp 004255c0 f   cinder:GLee.obj
 0001:000245c0       ___GLeeLink_GL_ATI_text_fragment_shader 004255c0 f   cinder:GLee.obj
 0001:000245c0       ___GLeeLink_GL_ATI_texture_env_combine3 004255c0 f   cinder:GLee.obj
 0001:000245c0       ___GLeeLink_WGL_EXT_multisample 004255c0 f   cinder:GLee.obj
 0001:000245c0       ___GLeeLink_WGL_NV_float_buffer 004255c0 f   cinder:GLee.obj
 0001:000245c0       ___GLeeLink_GL_NV_multisample_filter_hint 004255c0 f   cinder:GLee.obj
 0001:000245c0       ___GLeeLink_GL_SUN_convolution_border_modes 004255c0 f   cinder:GLee.obj
 0001:000245c0       ___GLeeLink_GL_ARB_texture_compression_rgtc 004255c0 f   cinder:GLee.obj
 0001:000245c0       ___GLeeLink_GL_3DFX_multisample 004255c0 f   cinder:GLee.obj
 0001:000245c0       ___GLeeLink_GL_NV_texgen_reflection 004255c0 f   cinder:GLee.obj
 0001:000245c0       ___GLeeLink_GL_NV_texture_shader3 004255c0 f   cinder:GLee.obj
 0001:000245c0       ___GLeeLink_GL_ARB_texture_env_dot3 004255c0 f   cinder:GLee.obj
 0001:000245c0       ___GLeeLink_GL_NV_float_buffer 004255c0 f   cinder:GLee.obj
 0001:000245c0       ___GLeeLink_GL_NV_texture_expand_normal 004255c0 f   cinder:GLee.obj
 0001:000245c0       ___GLeeLink_GL_SGIX_texture_scale_bias 004255c0 f   cinder:GLee.obj
 0001:000245c0       ___GLeeLink_GL_HP_convolution_border_modes 004255c0 f   cinder:GLee.obj
 0001:000245c0       ___GLeeLink_GL_OML_resample 004255c0 f   cinder:GLee.obj
 0001:000245c0       ___GLeeLink_GL_EXT_abgr    004255c0 f   cinder:GLee.obj
 0001:000245c0       ___GLeeLink_GL_ARB_framebuffer_sRGB 004255c0 f   cinder:GLee.obj
 0001:000245c0       ___GLeeLink_GL_EXT_texture_env_dot3 004255c0 f   cinder:GLee.obj
 0001:000245c0       ___GLeeLink_GL_NV_texture_env_combine4 004255c0 f   cinder:GLee.obj
 0001:000245c0       ___GLeeLink_GL_NV_blend_square 004255c0 f   cinder:GLee.obj
 0001:000245c0       ___GLeeLink_GL_OES_read_format 004255c0 f   cinder:GLee.obj
 0001:000245c0       ___GLeeLink_GL_ARB_texture_env_combine 004255c0 f   cinder:GLee.obj
 0001:000245c0       ___GLeeLink_GL_EXT_pixel_buffer_object 004255c0 f   cinder:GLee.obj
 0001:000245c0       ___GLeeLink_GL_NV_geometry_shader4 004255c0 f   cinder:GLee.obj
 0001:000245c0       ___GLeeLink_GL_WIN_phong_shading 004255c0 f   cinder:GLee.obj
 0001:000245c0       ___GLeeLink_GL_SGI_texture_color_table 004255c0 f   cinder:GLee.obj
 0001:000245c0       ___GLeeLink_GL_NV_texture_compression_vtc 004255c0 f   cinder:GLee.obj
 0001:000245c0       ___GLeeLink_GL_APPLE_client_storage 004255c0 f   cinder:GLee.obj
 0001:000245c0       ___GLeeLink_GL_APPLE_ycbcr_422 004255c0 f   cinder:GLee.obj
 0001:000245c0       ___GLeeLink_GL_NV_vertex_program2 004255c0 f   cinder:GLee.obj
 0001:000245c0       ___GLeeLink_GL_EXT_clip_volume_hint 004255c0 f   cinder:GLee.obj
 0001:000245c0       ___GLeeLink_GL_ARB_depth_buffer_float 004255c0 f   cinder:GLee.obj
 0001:000245c0       ___GLeeLink_GL_SGIX_fog_offset 004255c0 f   cinder:GLee.obj
 0001:000245c0       ___GLeeLink_GL_FfdMaskSGIX 004255c0 f   cinder:GLee.obj
 0001:000245c0       ___GLeeLink_GL_NV_vertex_program3 004255c0 f   cinder:GLee.obj
 0001:000245c0       ___GLeeLink_GL_NV_light_max_exponent 004255c0 f   cinder:GLee.obj
 0001:000245c0       ___GLeeLink_GL_IBM_texture_mirrored_repeat 004255c0 f   cinder:GLee.obj
 0001:000245c0       ___GLeeLink_GL_SGIS_texture_border_clamp 004255c0 f   cinder:GLee.obj
 0001:000245c0       ___GLeeLink_GL_ARB_fragment_program 004255c0 f   cinder:GLee.obj
 0001:000245c0       ___GLeeLink_GL_SGIX_async_pixel 004255c0 f   cinder:GLee.obj
 0001:000245c0       ___GLeeLink_WGL_ARB_multisample 004255c0 f   cinder:GLee.obj
 0001:000245c0       ___GLeeLink_GL_SGIS_texture_lod 004255c0 f   cinder:GLee.obj
 0001:000245c0       ___GLeeLink_GL_EXT_shared_texture_palette 004255c0 f   cinder:GLee.obj
 0001:000245c0       ___GLeeLink_GL_NV_vertex_program2_option 004255c0 f   cinder:GLee.obj
 0001:000245c0       ___GLeeLink_GL_HP_texture_lighting 004255c0 f   cinder:GLee.obj
 0001:000245c0       ___GLeeLink_GL_SGIS_generate_mipmap 004255c0 f   cinder:GLee.obj
 0001:000245c0       ___GLeeLink_GL_EXT_packed_depth_stencil 004255c0 f   cinder:GLee.obj
 0001:000245c0       ___GLeeLink_WGL_EXT_depth_float 004255c0 f   cinder:GLee.obj
 0001:000245c0       ___GLeeLink_GL_ARB_texture_env_crossbar 004255c0 f   cinder:GLee.obj
 0001:000245c0       ___GLeeLink_GL_ARB_fragment_program_shadow 004255c0 f   cinder:GLee.obj
 0001:000245c0       ___GLeeLink_WGL_ATI_pixel_format_float 004255c0 f   cinder:GLee.obj
 0001:000245c0       ___GLeeLink_GL_EXT_texture_env 004255c0 f   cinder:GLee.obj
 0001:000245c0       ___GLeeLink_GL_ARB_texture_env_add 004255c0 f   cinder:GLee.obj
 0001:000245c0       ___GLeeLink_GL_SGIX_blend_alpha_minmax 004255c0 f   cinder:GLee.obj
 0001:000245c0       ___GLeeLink_GL_EXT_packed_float 004255c0 f   cinder:GLee.obj
 0001:000245c0       ___GLeeLink_GL_EXT_blend_logic_op 004255c0 f   cinder:GLee.obj
 0001:000245c0       ___GLeeLink_GL_EXT_bgra    004255c0 f   cinder:GLee.obj
 0001:000245c0       ___GLeeLink_GL_ARB_texture_mirrored_repeat 004255c0 f   cinder:GLee.obj
 0001:000245c0       ___GLeeLink_GL_EXT_cmyka   004255c0 f   cinder:GLee.obj
 0001:000245c0       ___GLeeLink_GL_SGIX_fog_scale 004255c0 f   cinder:GLee.obj
 0001:000245c0       ___GLeeLink_GL_INGR_interlace_read 004255c0 f   cinder:GLee.obj
 0001:000245c0       ___GLeeLink_GL_ARB_texture_border_clamp 004255c0 f   cinder:GLee.obj
 0001:000245c0       ___GLeeLink_GL_IBM_rasterpos_clip 004255c0 f   cinder:GLee.obj
 0001:000245d0       ___GLeeLink_GL_EXT_texture_object 004255d0 f   cinder:GLee.obj
 0001:000246e0       ___GLeeLink_GL_SGIS_detail_texture 004256e0 f   cinder:GLee.obj
 0001:00024760       ___GLeeLink_GL_SGIS_sharpen_texture 00425760 f   cinder:GLee.obj
 0001:000247e0       ___GLeeLink_GL_SGIS_multisample 004257e0 f   cinder:GLee.obj
 0001:00024860       ___GLeeLink_GL_EXT_vertex_array 00425860 f   cinder:GLee.obj
 0001:00024890       ___GLeeLink_GL_EXT_blend_minmax 00425890 f   cinder:GLee.obj
 0001:000248e0       ___GLeeLink_GL_SGIX_sprite 004258e0 f   cinder:GLee.obj
 0001:000249a0       ___GLeeLink_GL_EXT_point_parameters 004259a0 f   cinder:GLee.obj
 0001:00024a20       ___GLeeLink_GL_SGIS_point_parameters 00425a20 f   cinder:GLee.obj
 0001:00024aa0       ___GLeeLink_GL_SGIX_instruments 00425aa0 f   cinder:GLee.obj
 0001:00024bb0       ___GLeeLink_GL_SGIX_framezoom 00425bb0 f   cinder:GLee.obj
 0001:00024c00       ___GLeeLink_GL_SGIX_tag_sample_buffer 00425c00 f   cinder:GLee.obj
 0001:00024c50       ___GLeeLink_GL_SGIX_polynomial_ffd 00425c50 f   cinder:GLee.obj
 0001:00024d10       ___GLeeLink_GL_SGIX_reference_plane 00425d10 f   cinder:GLee.obj
 0001:00024d60       ___GLeeLink_GL_SGIX_flush_raster 00425d60 f   cinder:GLee.obj
 0001:00024db0       ___GLeeLink_GL_SGIS_fog_function 00425db0 f   cinder:GLee.obj
 0001:00024e30       ___GLeeLink_GL_HP_image_transform 00425e30 f   cinder:GLee.obj
 0001:00024f40       ___GLeeLink_GL_EXT_color_subtable 00425f40 f   cinder:GLee.obj
 0001:00024fc0       ___GLeeLink_GL_PGI_misc_hints 00425fc0 f   cinder:GLee.obj
 0001:00025010       ___GLeeLink_GL_EXT_paletted_texture 00426010 f   cinder:GLee.obj
 0001:00025040       ___GLeeLink_GL_SGIX_list_priority 00426040 f   cinder:GLee.obj
 0001:00025150       ___GLeeLink_GL_EXT_index_material 00426150 f   cinder:GLee.obj
 0001:000251a0       ___GLeeLink_GL_EXT_index_func 004261a0 f   cinder:GLee.obj
 0001:000251f0       ___GLeeLink_GL_EXT_compiled_vertex_array 004261f0 f   cinder:GLee.obj
 0001:00025270       ___GLeeLink_GL_EXT_cull_vertex 00426270 f   cinder:GLee.obj
 0001:000252f0       ___GLeeLink_GL_SGIX_fragment_lighting 004262f0 f   cinder:GLee.obj
 0001:000255b0       ___GLeeLink_GL_EXT_draw_range_elements 004265b0 f   cinder:GLee.obj
 0001:00025600       ___GLeeLink_GL_EXT_light_texture 00426600 f   cinder:GLee.obj
 0001:000256a0       ___GLeeLink_GL_SGIX_async  004266a0 f   cinder:GLee.obj
 0001:000257b0       ___GLeeLink_GL_INTEL_parallel_arrays 004267b0 f   cinder:GLee.obj
 0001:00025870       ___GLeeLink_GL_EXT_pixel_transform 00426870 f   cinder:GLee.obj
 0001:00025930       ___GLeeLink_GL_EXT_secondary_color 00426930 f   cinder:GLee.obj
 0001:00025bc0       ___GLeeLink_GL_EXT_texture_perturb_normal 00426bc0 f   cinder:GLee.obj
 0001:00025c10       ___GLeeLink_GL_EXT_multi_draw_arrays 00426c10 f   cinder:GLee.obj
 0001:00025c90       ___GLeeLink_GL_EXT_fog_coord 00426c90 f   cinder:GLee.obj
 0001:00025d70       ___GLeeLink_GL_EXT_coordinate_frame 00426d70 f   cinder:GLee.obj
 0001:000260c0       ___GLeeLink_GL_SUNX_constant_data 004270c0 f   cinder:GLee.obj
 0001:00026110       ___GLeeLink_GL_SUN_global_alpha 00427110 f   cinder:GLee.obj
 0001:00026260       ___GLeeLink_GL_SUN_triangle_list 00427260 f   cinder:GLee.obj
 0001:00026390       ___GLeeLink_GL_SUN_vertex  00427390 f   cinder:GLee.obj
 0001:00026960       ___GLeeLink_GL_EXT_blend_func_separate 00427960 f   cinder:GLee.obj
 0001:000269b0       ___GLeeLink_GL_EXT_vertex_weighting 004279b0 f   cinder:GLee.obj
 0001:00026a50       ___GLeeLink_GL_NV_vertex_array_range 00427a50 f   cinder:GLee.obj
 0001:00026ad0       ___GLeeLink_GL_NV_register_combiners 00427ad0 f   cinder:GLee.obj
 0001:00026cd0       ___GLeeLink_GL_MESA_resize_buffers 00427cd0 f   cinder:GLee.obj
 0001:00026d20       ___GLeeLink_GL_MESA_window_pos 00427d20 f   cinder:GLee.obj
 0001:000270b0       ___GLeeLink_GL_IBM_multimode_draw_arrays 004280b0 f   cinder:GLee.obj
 0001:00027130       ___GLeeLink_GL_IBM_vertex_array_lists 00428130 f   cinder:GLee.obj
 0001:00027280       ___GLeeLink_GL_3DFX_tbuffer 00428280 f   cinder:GLee.obj
 0001:000272d0       ___GLeeLink_GL_EXT_multisample 004282d0 f   cinder:GLee.obj
 0001:00027350       ___GLeeLink_GL_SGIS_texture_color_mask 00428350 f   cinder:GLee.obj
 0001:000273a0       ___GLeeLink_GL_NV_fence    004283a0 f   cinder:GLee.obj
 0001:000274d0       ___GLeeLink_GL_NV_evaluators 004284d0 f   cinder:GLee.obj
 0001:00027640       ___GLeeLink_GL_NV_register_combiners2 00428640 f   cinder:GLee.obj
 0001:000276c0       ___GLeeLink_GL_NV_vertex_program 004286c0 f   cinder:GLee.obj
 0001:00027ff0       ___GLeeLink_GL_ATI_envmap_bumpmap 00428ff0 f   cinder:GLee.obj
 0001:000280b0       ___GLeeLink_GL_ATI_fragment_shader 004290b0 f   cinder:GLee.obj
 0001:000282e0       ___GLeeLink_GL_ATI_pn_triangles 004292e0 f   cinder:GLee.obj
 0001:00028360       ___GLeeLink_GL_ATI_vertex_array_object 00429360 f   cinder:GLee.obj
 0001:00028540       ___GLeeLink_GL_EXT_vertex_shader 00429540 f   cinder:GLee.obj
 0001:00028b60       ___GLeeLink_GL_ATI_vertex_streams 00429b60 f   cinder:GLee.obj
 0001:000291e0       ___GLeeLink_GL_ATI_element_array 0042a1e0 f   cinder:GLee.obj
 0001:00029280       ___GLeeLink_GL_SUN_mesh_array 0042a280 f   cinder:GLee.obj
 0001:000292d0       ___GLeeLink_GL_NV_occlusion_query 0042a2d0 f   cinder:GLee.obj
 0001:00029400       ___GLeeLink_GL_NV_point_sprite 0042a400 f   cinder:GLee.obj
 0001:00029480       ___GLeeLink_GL_EXT_stencil_two_side 0042a480 f   cinder:GLee.obj
 0001:000294d0       ___GLeeLink_GL_APPLE_element_array 0042a4d0 f   cinder:GLee.obj
 0001:000295b0       ___GLeeLink_GL_APPLE_fence 0042a5b0 f   cinder:GLee.obj
 0001:00029700       ___GLeeLink_GL_APPLE_vertex_array_object 0042a700 f   cinder:GLee.obj
 0001:000297c0       ___GLeeLink_GL_APPLE_vertex_array_range 0042a7c0 f   cinder:GLee.obj
 0001:00029860       ___GLeeLink_GL_ATI_draw_buffers 0042a860 f   cinder:GLee.obj
 0001:000298b0       ___GLeeLink_GL_NV_fragment_program 0042a8b0 f   cinder:GLee.obj
 0001:000299c0       ___GLeeLink_GL_NV_half_float 0042a9c0 f   cinder:GLee.obj
 0001:0002a070       ___GLeeLink_GL_NV_pixel_data_range 0042b070 f   cinder:GLee.obj
 0001:0002a0f0       ___GLeeLink_GL_NV_primitive_restart 0042b0f0 f   cinder:GLee.obj
 0001:0002a170       ___GLeeLink_GL_ATI_map_object_buffer 0042b170 f   cinder:GLee.obj
 0001:0002a1f0       ___GLeeLink_GL_ATI_separate_stencil 0042b1f0 f   cinder:GLee.obj
 0001:0002a270       ___GLeeLink_GL_ATI_vertex_attrib_array_object 0042b270 f   cinder:GLee.obj
 0001:0002a310       ___GLeeLink_GL_EXT_depth_bounds_test 0042b310 f   cinder:GLee.obj
 0001:0002a360       ___GLeeLink_GL_EXT_blend_equation_separate 0042b360 f   cinder:GLee.obj
 0001:0002a3b0       ___GLeeLink_GL_EXT_framebuffer_object 0042b3b0 f   cinder:GLee.obj
 0001:0002a640       ___GLeeLink_GL_GREMEDY_string_marker 0042b640 f   cinder:GLee.obj
 0001:0002a690       ___GLeeLink_GL_EXT_stencil_clear_tag 0042b690 f   cinder:GLee.obj
 0001:0002a6e0       ___GLeeLink_GL_EXT_framebuffer_blit 0042b6e0 f   cinder:GLee.obj
 0001:0002a730       ___GLeeLink_GL_EXT_framebuffer_multisample 0042b730 f   cinder:GLee.obj
 0001:0002a780       ___GLeeLink_GL_EXT_timer_query 0042b780 f   cinder:GLee.obj
 0001:0002a800       ___GLeeLink_GL_EXT_gpu_program_parameters 0042b800 f   cinder:GLee.obj
 0001:0002a880       ___GLeeLink_GL_APPLE_flush_buffer_range 0042b880 f   cinder:GLee.obj
 0001:0002a900       ___GLeeLink_GL_EXT_gpu_shader4 0042b900 f   cinder:GLee.obj
 0001:0002aac0       ___GLeeLink_GL_EXT_draw_instanced 0042bac0 f   cinder:GLee.obj
 0001:0002ab40       ___GLeeLink_GL_EXT_texture_buffer_object 0042bb40 f   cinder:GLee.obj
 0001:0002ab90       ___GLeeLink_GL_NV_depth_buffer_float 0042bb90 f   cinder:GLee.obj
 0001:0002ac30       ___GLeeLink_GL_NV_framebuffer_multisample_coverage 0042bc30 f   cinder:GLee.obj
 0001:0002ac80       ___GLeeLink_GL_NV_parameter_buffer_object 0042bc80 f   cinder:GLee.obj
 0001:0002ad20       ___GLeeLink_GL_EXT_draw_buffers2 0042bd20 f   cinder:GLee.obj
 0001:0002ae30       ___GLeeLink_GL_NV_transform_feedback 0042be30 f   cinder:GLee.obj
 0001:0002aff0       ___GLeeLink_GL_EXT_bindable_uniform 0042bff0 f   cinder:GLee.obj
 0001:0002b090       ___GLeeLink_GL_EXT_texture_integer 0042c090 f   cinder:GLee.obj
 0001:0002b1a0       ___GLeeLink_GL_GREMEDY_frame_terminator 0042c1a0 f   cinder:GLee.obj
 0001:0002b1f0       ___GLeeLink_GL_NV_conditional_render 0042c1f0 f   cinder:GLee.obj
 0001:0002b270       ___GLeeLink_GL_EXT_transform_feedback 0042c270 f   cinder:GLee.obj
 0001:0002b3a0       ___GLeeLink_GL_EXT_direct_state_access 0042c3a0 f   cinder:GLee.obj
 0001:0002ce00       ___GLeeLink_GL_NV_explicit_multisample 0042de00 f   cinder:GLee.obj
 0001:0002cea0       ___GLeeLink_GL_NV_transform_feedback2 0042dea0 f   cinder:GLee.obj
 0001:0002cfd0       ___GLeeLink_GL_INGR_blend_func_separate 0042dfd0 f   cinder:GLee.obj
 0001:0002d020       ___GLeeLink_GL_SGIX_igloo_interface 0042e020 f   cinder:GLee.obj
 0001:0002d070       ___GLeeLink_GL_EXT_fragment_lighting 0042e070 f   cinder:GLee.obj
 0001:0002d330       ___GLeeLink_GL_EXT_geometry_shader4 0042e330 f   cinder:GLee.obj
 0001:0002d3f0       ___GLeeLink_GL_EXT_scene_marker 0042e3f0 f   cinder:GLee.obj
 0001:0002d470       ___GLeeLink_GL_NV_gpu_program4 0042e470 f   cinder:GLee.obj
 0001:0002da60       ___GLeeLink_GL_OES_single_precision 0042ea60 f   cinder:GLee.obj
 0001:0002db70       ___GLeeLink_WGL_ARB_buffer_region 0042eb70 f   cinder:GLee.obj
 0001:0002dc30       ___GLeeLink_WGL_ARB_extensions_string 0042ec30 f   cinder:GLee.obj
 0001:0002dc80       ___GLeeLink_WGL_ARB_pixel_format 0042ec80 f   cinder:GLee.obj
 0001:0002dd20       ___GLeeLink_WGL_ARB_make_current_read 0042ed20 f   cinder:GLee.obj
 0001:0002dda0       ___GLeeLink_WGL_ARB_pbuffer 0042eda0 f   cinder:GLee.obj
 0001:0002de80       ___GLeeLink_WGL_ARB_render_texture 0042ee80 f   cinder:GLee.obj
 0001:0002df20       ___GLeeLink_WGL_ARB_create_context 0042ef20 f   cinder:GLee.obj
 0001:0002df70       ___GLeeLink_WGL_EXT_make_current_read 0042ef70 f   cinder:GLee.obj
 0001:0002dff0       ___GLeeLink_WGL_EXT_pixel_format 0042eff0 f   cinder:GLee.obj
 0001:0002e090       ___GLeeLink_WGL_EXT_pbuffer 0042f090 f   cinder:GLee.obj
 0001:0002e170       ___GLeeLink_WGL_I3D_digital_video_control 0042f170 f   cinder:GLee.obj
 0001:0002e1f0       ___GLeeLink_WGL_I3D_gamma  0042f1f0 f   cinder:GLee.obj
 0001:0002e2b0       ___GLeeLink_WGL_I3D_genlock 0042f2b0 f   cinder:GLee.obj
 0001:0002e490       ___GLeeLink_WGL_I3D_image_buffer 0042f490 f   cinder:GLee.obj
 0001:0002e550       ___GLeeLink_WGL_I3D_swap_frame_lock 0042f550 f   cinder:GLee.obj
 0001:0002e610       ___GLeeLink_WGL_NV_present_video 0042f610 f   cinder:GLee.obj
 0001:0002e6b0       ___GLeeLink_WGL_NV_swap_group 0042f6b0 f   cinder:GLee.obj
 0001:0002e7c0       ___GLeeLink_WGL_NV_gpu_affinity 0042f7c0 f   cinder:GLee.obj
 0001:0002e8a0       ___GLeeLink_WGL_EXT_display_color_table 0042f8a0 f   cinder:GLee.obj
 0001:0002e960       ___GLeeLink_WGL_EXT_extensions_string 0042f960 f   cinder:GLee.obj
 0001:0002e9b0       ___GLeeLink_WGL_EXT_swap_control 0042f9b0 f   cinder:GLee.obj
 0001:0002ea30       ___GLeeLink_WGL_NV_vertex_array_range 0042fa30 f   cinder:GLee.obj
 0001:0002eab0       ___GLeeLink_WGL_OML_sync_control 0042fab0 f   cinder:GLee.obj
 0001:0002ebc0       ___GLeeLink_WGL_I3D_swap_frame_usage 0042fbc0 f   cinder:GLee.obj
 0001:0002ec80       ___GLeeLink_WGL_NV_video_output 0042fc80 f   cinder:GLee.obj
 0001:0002ed90       ___GLeeExtList_init        0042fd90 f   cinder:GLee.obj
 0001:0002edc0       ___GLeeExtList_clean       0042fdc0 f   cinder:GLee.obj
 0001:0002ee60       ___GLeeExtList_add         0042fe60 f   cinder:GLee.obj
 0001:0002ef90       ___GLeeGetExtStrPlat       0042ff90 f   cinder:GLee.obj
 0001:0002efd0       ___GLeeWriteError          0042ffd0 f   cinder:GLee.obj
 0001:0002f020       ___GLeeGetVersionNumber    00430020 f   cinder:GLee.obj
 0001:0002f050       ___GLeeGetExtensions       00430050 f   cinder:GLee.obj
 0001:0002f300       ___GLeeCheckExtension      00430300 f   cinder:GLee.obj
 0001:0002f3a0       _GLeeInit                  004303a0 f   cinder:GLee.obj
 0001:00032640       _GLee_Lazy_glBlendColor@16 00433640 f   cinder:GLee.obj
 0001:00032680       _GLee_Lazy_glBlendEquation@4 00433680 f   cinder:GLee.obj
 0001:000326a0       _GLee_Lazy_glDrawRangeElements@24 004336a0 f   cinder:GLee.obj
 0001:000326e0       _GLee_Lazy_glColorTable@24 004336e0 f   cinder:GLee.obj
 0001:00032720       _GLee_Lazy_glColorTableParameterfv@12 00433720 f   cinder:GLee.obj
 0001:00032750       _GLee_Lazy_glColorTableParameteriv@12 00433750 f   cinder:GLee.obj
 0001:00032780       _GLee_Lazy_glCopyColorTable@20 00433780 f   cinder:GLee.obj
 0001:000327b0       _GLee_Lazy_glGetColorTable@16 004337b0 f   cinder:GLee.obj
 0001:000327e0       _GLee_Lazy_glGetColorTableParameterfv@12 004337e0 f   cinder:GLee.obj
 0001:00032810       _GLee_Lazy_glGetColorTableParameteriv@12 00433810 f   cinder:GLee.obj
 0001:00032840       _GLee_Lazy_glColorSubTable@24 00433840 f   cinder:GLee.obj
 0001:00032880       _GLee_Lazy_glCopyColorSubTable@20 00433880 f   cinder:GLee.obj
 0001:000328b0       _GLee_Lazy_glConvolutionFilter1D@24 004338b0 f   cinder:GLee.obj
 0001:000328f0       _GLee_Lazy_glConvolutionFilter2D@28 004338f0 f   cinder:GLee.obj
 0001:00032930       _GLee_Lazy_glConvolutionParameterf@12 00433930 f   cinder:GLee.obj
 0001:00032960       _GLee_Lazy_glConvolutionParameterfv@12 00433960 f   cinder:GLee.obj
 0001:00032990       _GLee_Lazy_glConvolutionParameteri@12 00433990 f   cinder:GLee.obj
 0001:000329c0       _GLee_Lazy_glConvolutionParameteriv@12 004339c0 f   cinder:GLee.obj
 0001:000329f0       _GLee_Lazy_glCopyConvolutionFilter1D@20 004339f0 f   cinder:GLee.obj
 0001:00032a20       _GLee_Lazy_glCopyConvolutionFilter2D@24 00433a20 f   cinder:GLee.obj
 0001:00032a60       _GLee_Lazy_glGetConvolutionFilter@16 00433a60 f   cinder:GLee.obj
 0001:00032a90       _GLee_Lazy_glGetConvolutionParameterfv@12 00433a90 f   cinder:GLee.obj
 0001:00032ac0       _GLee_Lazy_glGetConvolutionParameteriv@12 00433ac0 f   cinder:GLee.obj
 0001:00032af0       _GLee_Lazy_glGetSeparableFilter@24 00433af0 f   cinder:GLee.obj
 0001:00032b30       _GLee_Lazy_glSeparableFilter2D@32 00433b30 f   cinder:GLee.obj
 0001:00032b70       _GLee_Lazy_glGetHistogram@20 00433b70 f   cinder:GLee.obj
 0001:00032ba0       _GLee_Lazy_glGetHistogramParameterfv@12 00433ba0 f   cinder:GLee.obj
 0001:00032bd0       _GLee_Lazy_glGetHistogramParameteriv@12 00433bd0 f   cinder:GLee.obj
 0001:00032c00       _GLee_Lazy_glGetMinmax@20  00433c00 f   cinder:GLee.obj
 0001:00032c30       _GLee_Lazy_glGetMinmaxParameterfv@12 00433c30 f   cinder:GLee.obj
 0001:00032c60       _GLee_Lazy_glGetMinmaxParameteriv@12 00433c60 f   cinder:GLee.obj
 0001:00032c90       _GLee_Lazy_glHistogram@16  00433c90 f   cinder:GLee.obj
 0001:00032cc0       _GLee_Lazy_glMinmax@12     00433cc0 f   cinder:GLee.obj
 0001:00032cf0       _GLee_Lazy_glResetHistogram@4 00433cf0 f   cinder:GLee.obj
 0001:00032d10       _GLee_Lazy_glResetMinmax@4 00433d10 f   cinder:GLee.obj
 0001:00032d30       _GLee_Lazy_glTexImage3D@40 00433d30 f   cinder:GLee.obj
 0001:00032d80       _GLee_Lazy_glTexSubImage3D@44 00433d80 f   cinder:GLee.obj
 0001:00032dd0       _GLee_Lazy_glCopyTexSubImage3D@36 00433dd0 f   cinder:GLee.obj
 0001:00032e10       _GLee_Lazy_glActiveTexture@4 00433e10 f   cinder:GLee.obj
 0001:00032e30       _GLee_Lazy_glClientActiveTexture@4 00433e30 f   cinder:GLee.obj
 0001:00032e50       _GLee_Lazy_glMultiTexCoord1d@12 00433e50 f   cinder:GLee.obj
 0001:00032e80       _GLee_Lazy_glMultiTexCoord1dv@8 00433e80 f   cinder:GLee.obj
 0001:00032eb0       _GLee_Lazy_glMultiTexCoord1f@8 00433eb0 f   cinder:GLee.obj
 0001:00032ee0       _GLee_Lazy_glMultiTexCoord1fv@8 00433ee0 f   cinder:GLee.obj
 0001:00032f10       _GLee_Lazy_glMultiTexCoord1i@8 00433f10 f   cinder:GLee.obj
 0001:00032f40       _GLee_Lazy_glMultiTexCoord1iv@8 00433f40 f   cinder:GLee.obj
 0001:00032f70       _GLee_Lazy_glMultiTexCoord1s@8 00433f70 f   cinder:GLee.obj
 0001:00032fa0       _GLee_Lazy_glMultiTexCoord1sv@8 00433fa0 f   cinder:GLee.obj
 0001:00032fd0       _GLee_Lazy_glMultiTexCoord2d@20 00433fd0 f   cinder:GLee.obj
 0001:00033000       _GLee_Lazy_glMultiTexCoord2dv@8 00434000 f   cinder:GLee.obj
 0001:00033030       _GLee_Lazy_glMultiTexCoord2f@12 00434030 f   cinder:GLee.obj
 0001:00033060       _GLee_Lazy_glMultiTexCoord2fv@8 00434060 f   cinder:GLee.obj
 0001:00033090       _GLee_Lazy_glMultiTexCoord2i@12 00434090 f   cinder:GLee.obj
 0001:000330c0       _GLee_Lazy_glMultiTexCoord2iv@8 004340c0 f   cinder:GLee.obj
 0001:000330f0       _GLee_Lazy_glMultiTexCoord2s@12 004340f0 f   cinder:GLee.obj
 0001:00033120       _GLee_Lazy_glMultiTexCoord2sv@8 00434120 f   cinder:GLee.obj
 0001:00033150       _GLee_Lazy_glMultiTexCoord3d@28 00434150 f   cinder:GLee.obj
 0001:00033190       _GLee_Lazy_glMultiTexCoord3dv@8 00434190 f   cinder:GLee.obj
 0001:000331c0       _GLee_Lazy_glMultiTexCoord3f@16 004341c0 f   cinder:GLee.obj
 0001:00033200       _GLee_Lazy_glMultiTexCoord3fv@8 00434200 f   cinder:GLee.obj
 0001:00033230       _GLee_Lazy_glMultiTexCoord3i@16 00434230 f   cinder:GLee.obj
 0001:00033260       _GLee_Lazy_glMultiTexCoord3iv@8 00434260 f   cinder:GLee.obj
 0001:00033290       _GLee_Lazy_glMultiTexCoord3s@16 00434290 f   cinder:GLee.obj
 0001:000332c0       _GLee_Lazy_glMultiTexCoord3sv@8 004342c0 f   cinder:GLee.obj
 0001:000332f0       _GLee_Lazy_glMultiTexCoord4d@36 004342f0 f   cinder:GLee.obj
 0001:00033340       _GLee_Lazy_glMultiTexCoord4dv@8 00434340 f   cinder:GLee.obj
 0001:00033370       _GLee_Lazy_glMultiTexCoord4f@20 00434370 f   cinder:GLee.obj
 0001:000333b0       _GLee_Lazy_glMultiTexCoord4fv@8 004343b0 f   cinder:GLee.obj
 0001:000333e0       _GLee_Lazy_glMultiTexCoord4i@20 004343e0 f   cinder:GLee.obj
 0001:00033410       _GLee_Lazy_glMultiTexCoord4iv@8 00434410 f   cinder:GLee.obj
 0001:00033440       _GLee_Lazy_glMultiTexCoord4s@20 00434440 f   cinder:GLee.obj
 0001:00033480       _GLee_Lazy_glMultiTexCoord4sv@8 00434480 f   cinder:GLee.obj
 0001:000334b0       _GLee_Lazy_glLoadTransposeMatrixf@4 004344b0 f   cinder:GLee.obj
 0001:000334d0       _GLee_Lazy_glLoadTransposeMatrixd@4 004344d0 f   cinder:GLee.obj
 0001:000334f0       _GLee_Lazy_glMultTransposeMatrixf@4 004344f0 f   cinder:GLee.obj
 0001:00033510       _GLee_Lazy_glMultTransposeMatrixd@4 00434510 f   cinder:GLee.obj
 0001:00033530       _GLee_Lazy_glSampleCoverage@8 00434530 f   cinder:GLee.obj
 0001:00033560       _GLee_Lazy_glCompressedTexImage3D@36 00434560 f   cinder:GLee.obj
 0001:000335a0       _GLee_Lazy_glCompressedTexImage2D@32 004345a0 f   cinder:GLee.obj
 0001:000335e0       _GLee_Lazy_glCompressedTexImage1D@28 004345e0 f   cinder:GLee.obj
 0001:00033620       _GLee_Lazy_glCompressedTexSubImage3D@44 00434620 f   cinder:GLee.obj
 0001:00033670       _GLee_Lazy_glCompressedTexSubImage2D@36 00434670 f   cinder:GLee.obj
 0001:000336b0       _GLee_Lazy_glCompressedTexSubImage1D@28 004346b0 f   cinder:GLee.obj
 0001:000336f0       _GLee_Lazy_glGetCompressedTexImage@12 004346f0 f   cinder:GLee.obj
 0001:00033720       _GLee_Lazy_glBlendFuncSeparate@16 00434720 f   cinder:GLee.obj
 0001:00033750       _GLee_Lazy_glFogCoordf@4   00434750 f   cinder:GLee.obj
 0001:00033770       _GLee_Lazy_glFogCoordfv@4  00434770 f   cinder:GLee.obj
 0001:00033790       _GLee_Lazy_glFogCoordd@8   00434790 f   cinder:GLee.obj
 0001:000337c0       _GLee_Lazy_glFogCoorddv@4  004347c0 f   cinder:GLee.obj
 0001:000337e0       _GLee_Lazy_glFogCoordPointer@12 004347e0 f   cinder:GLee.obj
 0001:00033810       _GLee_Lazy_glMultiDrawArrays@16 00434810 f   cinder:GLee.obj
 0001:00033840       _GLee_Lazy_glMultiDrawElements@20 00434840 f   cinder:GLee.obj
 0001:00033870       _GLee_Lazy_glPointParameterf@8 00434870 f   cinder:GLee.obj
 0001:000338a0       _GLee_Lazy_glPointParameterfv@8 004348a0 f   cinder:GLee.obj
 0001:000338d0       _GLee_Lazy_glPointParameteri@8 004348d0 f   cinder:GLee.obj
 0001:00033900       _GLee_Lazy_glPointParameteriv@8 00434900 f   cinder:GLee.obj
 0001:00033930       _GLee_Lazy_glSecondaryColor3b@12 00434930 f   cinder:GLee.obj
 0001:00033960       _GLee_Lazy_glSecondaryColor3bv@4 00434960 f   cinder:GLee.obj
 0001:00033980       _GLee_Lazy_glSecondaryColor3d@24 00434980 f   cinder:GLee.obj
 0001:000339c0       _GLee_Lazy_glSecondaryColor3dv@4 004349c0 f   cinder:GLee.obj
 0001:000339e0       _GLee_Lazy_glSecondaryColor3f@12 004349e0 f   cinder:GLee.obj
 0001:00033a10       _GLee_Lazy_glSecondaryColor3fv@4 00434a10 f   cinder:GLee.obj
 0001:00033a30       _GLee_Lazy_glSecondaryColor3i@12 00434a30 f   cinder:GLee.obj
 0001:00033a60       _GLee_Lazy_glSecondaryColor3iv@4 00434a60 f   cinder:GLee.obj
 0001:00033a80       _GLee_Lazy_glSecondaryColor3s@12 00434a80 f   cinder:GLee.obj
 0001:00033ab0       _GLee_Lazy_glSecondaryColor3sv@4 00434ab0 f   cinder:GLee.obj
 0001:00033ad0       _GLee_Lazy_glSecondaryColor3ub@12 00434ad0 f   cinder:GLee.obj
 0001:00033b00       _GLee_Lazy_glSecondaryColor3ubv@4 00434b00 f   cinder:GLee.obj
 0001:00033b20       _GLee_Lazy_glSecondaryColor3ui@12 00434b20 f   cinder:GLee.obj
 0001:00033b50       _GLee_Lazy_glSecondaryColor3uiv@4 00434b50 f   cinder:GLee.obj
 0001:00033b70       _GLee_Lazy_glSecondaryColor3us@12 00434b70 f   cinder:GLee.obj
 0001:00033ba0       _GLee_Lazy_glSecondaryColor3usv@4 00434ba0 f   cinder:GLee.obj
 0001:00033bc0       _GLee_Lazy_glSecondaryColorPointer@16 00434bc0 f   cinder:GLee.obj
 0001:00033bf0       _GLee_Lazy_glWindowPos2d@16 00434bf0 f   cinder:GLee.obj
 0001:00033c20       _GLee_Lazy_glWindowPos2dv@4 00434c20 f   cinder:GLee.obj
 0001:00033c40       _GLee_Lazy_glWindowPos2f@8 00434c40 f   cinder:GLee.obj
 0001:00033c70       _GLee_Lazy_glWindowPos2fv@4 00434c70 f   cinder:GLee.obj
 0001:00033c90       _GLee_Lazy_glWindowPos2i@8 00434c90 f   cinder:GLee.obj
 0001:00033cc0       _GLee_Lazy_glWindowPos2iv@4 00434cc0 f   cinder:GLee.obj
 0001:00033ce0       _GLee_Lazy_glWindowPos2s@8 00434ce0 f   cinder:GLee.obj
 0001:00033d10       _GLee_Lazy_glWindowPos2sv@4 00434d10 f   cinder:GLee.obj
 0001:00033d30       _GLee_Lazy_glWindowPos3d@24 00434d30 f   cinder:GLee.obj
 0001:00033d70       _GLee_Lazy_glWindowPos3dv@4 00434d70 f   cinder:GLee.obj
 0001:00033d90       _GLee_Lazy_glWindowPos3f@12 00434d90 f   cinder:GLee.obj
 0001:00033dc0       _GLee_Lazy_glWindowPos3fv@4 00434dc0 f   cinder:GLee.obj
 0001:00033de0       _GLee_Lazy_glWindowPos3i@12 00434de0 f   cinder:GLee.obj
 0001:00033e10       _GLee_Lazy_glWindowPos3iv@4 00434e10 f   cinder:GLee.obj
 0001:00033e30       _GLee_Lazy_glWindowPos3s@12 00434e30 f   cinder:GLee.obj
 0001:00033e60       _GLee_Lazy_glWindowPos3sv@4 00434e60 f   cinder:GLee.obj
 0001:00033e80       _GLee_Lazy_glGenQueries@8  00434e80 f   cinder:GLee.obj
 0001:00033eb0       _GLee_Lazy_glDeleteQueries@8 00434eb0 f   cinder:GLee.obj
 0001:00033ee0       _GLee_Lazy_glIsQuery@4     00434ee0 f   cinder:GLee.obj
 0001:00033f10       _GLee_Lazy_glBeginQuery@8  00434f10 f   cinder:GLee.obj
 0001:00033f40       _GLee_Lazy_glEndQuery@4    00434f40 f   cinder:GLee.obj
 0001:00033f60       _GLee_Lazy_glGetQueryiv@12 00434f60 f   cinder:GLee.obj
 0001:00033f90       _GLee_Lazy_glGetQueryObjectiv@12 00434f90 f   cinder:GLee.obj
 0001:00033fc0       _GLee_Lazy_glGetQueryObjectuiv@12 00434fc0 f   cinder:GLee.obj
 0001:00033ff0       _GLee_Lazy_glBindBuffer@8  00434ff0 f   cinder:GLee.obj
 0001:00034020       _GLee_Lazy_glDeleteBuffers@8 00435020 f   cinder:GLee.obj
 0001:00034050       _GLee_Lazy_glGenBuffers@8  00435050 f   cinder:GLee.obj
 0001:00034080       _GLee_Lazy_glIsBuffer@4    00435080 f   cinder:GLee.obj
 0001:000340b0       _GLee_Lazy_glBufferData@16 004350b0 f   cinder:GLee.obj
 0001:000340e0       _GLee_Lazy_glBufferSubData@16 004350e0 f   cinder:GLee.obj
 0001:00034110       _GLee_Lazy_glGetBufferSubData@16 00435110 f   cinder:GLee.obj
 0001:00034140       _GLee_Lazy_glMapBuffer@8   00435140 f   cinder:GLee.obj
 0001:00034170       _GLee_Lazy_glUnmapBuffer@4 00435170 f   cinder:GLee.obj
 0001:000341a0       _GLee_Lazy_glGetBufferParameteriv@12 004351a0 f   cinder:GLee.obj
 0001:000341d0       _GLee_Lazy_glGetBufferPointerv@12 004351d0 f   cinder:GLee.obj
 0001:00034200       _GLee_Lazy_glBlendEquationSeparate@8 00435200 f   cinder:GLee.obj
 0001:00034230       _GLee_Lazy_glDrawBuffers@8 00435230 f   cinder:GLee.obj
 0001:00034260       _GLee_Lazy_glStencilOpSeparate@16 00435260 f   cinder:GLee.obj
 0001:00034290       _GLee_Lazy_glStencilFuncSeparate@16 00435290 f   cinder:GLee.obj
 0001:000342c0       _GLee_Lazy_glStencilMaskSeparate@8 004352c0 f   cinder:GLee.obj
 0001:000342f0       _GLee_Lazy_glAttachShader@8 004352f0 f   cinder:GLee.obj
 0001:00034320       _GLee_Lazy_glBindAttribLocation@12 00435320 f   cinder:GLee.obj
 0001:00034350       _GLee_Lazy_glCompileShader@4 00435350 f   cinder:GLee.obj
 0001:00034370       _GLee_Lazy_glCreateProgram@0 00435370 f   cinder:GLee.obj
 0001:00034390       _GLee_Lazy_glCreateShader@4 00435390 f   cinder:GLee.obj
 0001:000343c0       _GLee_Lazy_glDeleteProgram@4 004353c0 f   cinder:GLee.obj
 0001:000343e0       _GLee_Lazy_glDeleteShader@4 004353e0 f   cinder:GLee.obj
 0001:00034400       _GLee_Lazy_glDetachShader@8 00435400 f   cinder:GLee.obj
 0001:00034430       _GLee_Lazy_glDisableVertexAttribArray@4 00435430 f   cinder:GLee.obj
 0001:00034450       _GLee_Lazy_glEnableVertexAttribArray@4 00435450 f   cinder:GLee.obj
 0001:00034470       _GLee_Lazy_glGetActiveAttrib@28 00435470 f   cinder:GLee.obj
 0001:000344b0       _GLee_Lazy_glGetActiveUniform@28 004354b0 f   cinder:GLee.obj
 0001:000344f0       _GLee_Lazy_glGetAttachedShaders@16 004354f0 f   cinder:GLee.obj
 0001:00034520       _GLee_Lazy_glGetAttribLocation@8 00435520 f   cinder:GLee.obj
 0001:00034550       _GLee_Lazy_glGetProgramiv@12 00435550 f   cinder:GLee.obj
 0001:00034580       _GLee_Lazy_glGetProgramInfoLog@16 00435580 f   cinder:GLee.obj
 0001:000345b0       _GLee_Lazy_glGetShaderiv@12 004355b0 f   cinder:GLee.obj
 0001:000345e0       _GLee_Lazy_glGetShaderInfoLog@16 004355e0 f   cinder:GLee.obj
 0001:00034610       _GLee_Lazy_glGetShaderSource@16 00435610 f   cinder:GLee.obj
 0001:00034640       _GLee_Lazy_glGetUniformLocation@8 00435640 f   cinder:GLee.obj
 0001:00034670       _GLee_Lazy_glGetUniformfv@12 00435670 f   cinder:GLee.obj
 0001:000346a0       _GLee_Lazy_glGetUniformiv@12 004356a0 f   cinder:GLee.obj
 0001:000346d0       _GLee_Lazy_glGetVertexAttribdv@12 004356d0 f   cinder:GLee.obj
 0001:00034700       _GLee_Lazy_glGetVertexAttribfv@12 00435700 f   cinder:GLee.obj
 0001:00034730       _GLee_Lazy_glGetVertexAttribiv@12 00435730 f   cinder:GLee.obj
 0001:00034760       _GLee_Lazy_glGetVertexAttribPointerv@12 00435760 f   cinder:GLee.obj
 0001:00034790       _GLee_Lazy_glIsProgram@4   00435790 f   cinder:GLee.obj
 0001:000347c0       _GLee_Lazy_glIsShader@4    004357c0 f   cinder:GLee.obj
 0001:000347f0       _GLee_Lazy_glLinkProgram@4 004357f0 f   cinder:GLee.obj
 0001:00034810       _GLee_Lazy_glShaderSource@16 00435810 f   cinder:GLee.obj
 0001:00034840       _GLee_Lazy_glUseProgram@4  00435840 f   cinder:GLee.obj
 0001:00034860       _GLee_Lazy_glUniform1f@8   00435860 f   cinder:GLee.obj
 0001:00034890       _GLee_Lazy_glUniform2f@12  00435890 f   cinder:GLee.obj
 0001:000348c0       _GLee_Lazy_glUniform3f@16  004358c0 f   cinder:GLee.obj
 0001:00034900       _GLee_Lazy_glUniform4f@20  00435900 f   cinder:GLee.obj
 0001:00034940       _GLee_Lazy_glUniform1i@8   00435940 f   cinder:GLee.obj
 0001:00034970       _GLee_Lazy_glUniform2i@12  00435970 f   cinder:GLee.obj
 0001:000349a0       _GLee_Lazy_glUniform3i@16  004359a0 f   cinder:GLee.obj
 0001:000349d0       _GLee_Lazy_glUniform4i@20  004359d0 f   cinder:GLee.obj
 0001:00034a00       _GLee_Lazy_glUniform1fv@12 00435a00 f   cinder:GLee.obj
 0001:00034a30       _GLee_Lazy_glUniform2fv@12 00435a30 f   cinder:GLee.obj
 0001:00034a60       _GLee_Lazy_glUniform3fv@12 00435a60 f   cinder:GLee.obj
 0001:00034a90       _GLee_Lazy_glUniform4fv@12 00435a90 f   cinder:GLee.obj
 0001:00034ac0       _GLee_Lazy_glUniform1iv@12 00435ac0 f   cinder:GLee.obj
 0001:00034af0       _GLee_Lazy_glUniform2iv@12 00435af0 f   cinder:GLee.obj
 0001:00034b20       _GLee_Lazy_glUniform3iv@12 00435b20 f   cinder:GLee.obj
 0001:00034b50       _GLee_Lazy_glUniform4iv@12 00435b50 f   cinder:GLee.obj
 0001:00034b80       _GLee_Lazy_glUniformMatrix2fv@16 00435b80 f   cinder:GLee.obj
 0001:00034bb0       _GLee_Lazy_glUniformMatrix3fv@16 00435bb0 f   cinder:GLee.obj
 0001:00034be0       _GLee_Lazy_glUniformMatrix4fv@16 00435be0 f   cinder:GLee.obj
 0001:00034c10       _GLee_Lazy_glValidateProgram@4 00435c10 f   cinder:GLee.obj
 0001:00034c30       _GLee_Lazy_glVertexAttrib1d@12 00435c30 f   cinder:GLee.obj
 0001:00034c60       _GLee_Lazy_glVertexAttrib1dv@8 00435c60 f   cinder:GLee.obj
 0001:00034c90       _GLee_Lazy_glVertexAttrib1f@8 00435c90 f   cinder:GLee.obj
 0001:00034cc0       _GLee_Lazy_glVertexAttrib1fv@8 00435cc0 f   cinder:GLee.obj
 0001:00034cf0       _GLee_Lazy_glVertexAttrib1s@8 00435cf0 f   cinder:GLee.obj
 0001:00034d20       _GLee_Lazy_glVertexAttrib1sv@8 00435d20 f   cinder:GLee.obj
 0001:00034d50       _GLee_Lazy_glVertexAttrib2d@20 00435d50 f   cinder:GLee.obj
 0001:00034d80       _GLee_Lazy_glVertexAttrib2dv@8 00435d80 f   cinder:GLee.obj
 0001:00034db0       _GLee_Lazy_glVertexAttrib2f@12 00435db0 f   cinder:GLee.obj
 0001:00034de0       _GLee_Lazy_glVertexAttrib2fv@8 00435de0 f   cinder:GLee.obj
 0001:00034e10       _GLee_Lazy_glVertexAttrib2s@12 00435e10 f   cinder:GLee.obj
 0001:00034e40       _GLee_Lazy_glVertexAttrib2sv@8 00435e40 f   cinder:GLee.obj
 0001:00034e70       _GLee_Lazy_glVertexAttrib3d@28 00435e70 f   cinder:GLee.obj
 0001:00034eb0       _GLee_Lazy_glVertexAttrib3dv@8 00435eb0 f   cinder:GLee.obj
 0001:00034ee0       _GLee_Lazy_glVertexAttrib3f@16 00435ee0 f   cinder:GLee.obj
 0001:00034f20       _GLee_Lazy_glVertexAttrib3fv@8 00435f20 f   cinder:GLee.obj
 0001:00034f50       _GLee_Lazy_glVertexAttrib3s@16 00435f50 f   cinder:GLee.obj
 0001:00034f80       _GLee_Lazy_glVertexAttrib3sv@8 00435f80 f   cinder:GLee.obj
 0001:00034fb0       _GLee_Lazy_glVertexAttrib4Nbv@8 00435fb0 f   cinder:GLee.obj
 0001:00034fe0       _GLee_Lazy_glVertexAttrib4Niv@8 00435fe0 f   cinder:GLee.obj
 0001:00035010       _GLee_Lazy_glVertexAttrib4Nsv@8 00436010 f   cinder:GLee.obj
 0001:00035040       _GLee_Lazy_glVertexAttrib4Nub@20 00436040 f   cinder:GLee.obj
 0001:00035080       _GLee_Lazy_glVertexAttrib4Nubv@8 00436080 f   cinder:GLee.obj
 0001:000350b0       _GLee_Lazy_glVertexAttrib4Nuiv@8 004360b0 f   cinder:GLee.obj
 0001:000350e0       _GLee_Lazy_glVertexAttrib4Nusv@8 004360e0 f   cinder:GLee.obj
 0001:00035110       _GLee_Lazy_glVertexAttrib4bv@8 00436110 f   cinder:GLee.obj
 0001:00035140       _GLee_Lazy_glVertexAttrib4d@36 00436140 f   cinder:GLee.obj
 0001:00035190       _GLee_Lazy_glVertexAttrib4dv@8 00436190 f   cinder:GLee.obj
 0001:000351c0       _GLee_Lazy_glVertexAttrib4f@20 004361c0 f   cinder:GLee.obj
 0001:00035200       _GLee_Lazy_glVertexAttrib4fv@8 00436200 f   cinder:GLee.obj
 0001:00035230       _GLee_Lazy_glVertexAttrib4iv@8 00436230 f   cinder:GLee.obj
 0001:00035260       _GLee_Lazy_glVertexAttrib4s@20 00436260 f   cinder:GLee.obj
 0001:000352a0       _GLee_Lazy_glVertexAttrib4sv@8 004362a0 f   cinder:GLee.obj
 0001:000352d0       _GLee_Lazy_glVertexAttrib4ubv@8 004362d0 f   cinder:GLee.obj
 0001:00035300       _GLee_Lazy_glVertexAttrib4uiv@8 00436300 f   cinder:GLee.obj
 0001:00035330       _GLee_Lazy_glVertexAttrib4usv@8 00436330 f   cinder:GLee.obj
 0001:00035360       _GLee_Lazy_glVertexAttribPointer@24 00436360 f   cinder:GLee.obj
 0001:000353a0       _GLee_Lazy_glUniformMatrix2x3fv@16 004363a0 f   cinder:GLee.obj
 0001:000353d0       _GLee_Lazy_glUniformMatrix3x2fv@16 004363d0 f   cinder:GLee.obj
 0001:00035400       _GLee_Lazy_glUniformMatrix2x4fv@16 00436400 f   cinder:GLee.obj
 0001:00035430       _GLee_Lazy_glUniformMatrix4x2fv@16 00436430 f   cinder:GLee.obj
 0001:00035460       _GLee_Lazy_glUniformMatrix3x4fv@16 00436460 f   cinder:GLee.obj
 0001:00035490       _GLee_Lazy_glUniformMatrix4x3fv@16 00436490 f   cinder:GLee.obj
 0001:000354c0       _GLee_Lazy_glColorMaski@20 004364c0 f   cinder:GLee.obj
 0001:00035500       _GLee_Lazy_glGetBooleani_v@12 00436500 f   cinder:GLee.obj
 0001:00035530       _GLee_Lazy_glGetIntegeri_v@12 00436530 f   cinder:GLee.obj
 0001:00035560       _GLee_Lazy_glEnablei@8     00436560 f   cinder:GLee.obj
 0001:00035590       _GLee_Lazy_glDisablei@8    00436590 f   cinder:GLee.obj
 0001:000355c0       _GLee_Lazy_glIsEnabledi@8  004365c0 f   cinder:GLee.obj
 0001:000355f0       _GLee_Lazy_glBeginTransformFeedback@4 004365f0 f   cinder:GLee.obj
 0001:00035610       _GLee_Lazy_glEndTransformFeedback@0 00436610 f   cinder:GLee.obj
 0001:00035630       _GLee_Lazy_glBindBufferRange@20 00436630 f   cinder:GLee.obj
 0001:00035660       _GLee_Lazy_glBindBufferBase@12 00436660 f   cinder:GLee.obj
 0001:00035690       _GLee_Lazy_glTransformFeedbackVaryings@16 00436690 f   cinder:GLee.obj
 0001:000356c0       _GLee_Lazy_glGetTransformFeedbackVarying@12 004366c0 f   cinder:GLee.obj
 0001:000356f0       _GLee_Lazy_glClampColor@8  004366f0 f   cinder:GLee.obj
 0001:00035720       _GLee_Lazy_glBeginConditionalRender@8 00436720 f   cinder:GLee.obj
 0001:00035750       _GLee_Lazy_glEndConditionalRender@0 00436750 f   cinder:GLee.obj
 0001:00035770       _GLee_Lazy_glVertexAttribI1i@8 00436770 f   cinder:GLee.obj
 0001:000357a0       _GLee_Lazy_glVertexAttribI2i@12 004367a0 f   cinder:GLee.obj
 0001:000357d0       _GLee_Lazy_glVertexAttribI3i@16 004367d0 f   cinder:GLee.obj
 0001:00035800       _GLee_Lazy_glVertexAttribI4i@20 00436800 f   cinder:GLee.obj
 0001:00035830       _GLee_Lazy_glVertexAttribI1ui@8 00436830 f   cinder:GLee.obj
 0001:00035860       _GLee_Lazy_glVertexAttribI2ui@12 00436860 f   cinder:GLee.obj
 0001:00035890       _GLee_Lazy_glVertexAttribI3ui@16 00436890 f   cinder:GLee.obj
 0001:000358c0       _GLee_Lazy_glVertexAttribI4ui@20 004368c0 f   cinder:GLee.obj
 0001:000358f0       _GLee_Lazy_glVertexAttribI1iv@8 004368f0 f   cinder:GLee.obj
 0001:00035920       _GLee_Lazy_glVertexAttribI2iv@8 00436920 f   cinder:GLee.obj
 0001:00035950       _GLee_Lazy_glVertexAttribI3iv@8 00436950 f   cinder:GLee.obj
 0001:00035980       _GLee_Lazy_glVertexAttribI4iv@8 00436980 f   cinder:GLee.obj
 0001:000359b0       _GLee_Lazy_glVertexAttribI1uiv@8 004369b0 f   cinder:GLee.obj
 0001:000359e0       _GLee_Lazy_glVertexAttribI2uiv@8 004369e0 f   cinder:GLee.obj
 0001:00035a10       _GLee_Lazy_glVertexAttribI3uiv@8 00436a10 f   cinder:GLee.obj
 0001:00035a40       _GLee_Lazy_glVertexAttribI4uiv@8 00436a40 f   cinder:GLee.obj
 0001:00035a70       _GLee_Lazy_glVertexAttribI4bv@8 00436a70 f   cinder:GLee.obj
 0001:00035aa0       _GLee_Lazy_glVertexAttribI4sv@8 00436aa0 f   cinder:GLee.obj
 0001:00035ad0       _GLee_Lazy_glVertexAttribI4ubv@8 00436ad0 f   cinder:GLee.obj
 0001:00035b00       _GLee_Lazy_glVertexAttribI4usv@8 00436b00 f   cinder:GLee.obj
 0001:00035b30       _GLee_Lazy_glVertexAttribIPointer@20 00436b30 f   cinder:GLee.obj
 0001:00035b60       _GLee_Lazy_glGetVertexAttribIiv@12 00436b60 f   cinder:GLee.obj
 0001:00035b90       _GLee_Lazy_glGetVertexAttribIuiv@12 00436b90 f   cinder:GLee.obj
 0001:00035bc0       _GLee_Lazy_glGetUniformuiv@12 00436bc0 f   cinder:GLee.obj
 0001:00035bf0       _GLee_Lazy_glBindFragDataLocation@12 00436bf0 f   cinder:GLee.obj
 0001:00035c20       _GLee_Lazy_glGetFragDataLocation@8 00436c20 f   cinder:GLee.obj
 0001:00035c50       _GLee_Lazy_glUniform1ui@8  00436c50 f   cinder:GLee.obj
 0001:00035c80       _GLee_Lazy_glUniform2ui@12 00436c80 f   cinder:GLee.obj
 0001:00035cb0       _GLee_Lazy_glUniform3ui@16 00436cb0 f   cinder:GLee.obj
 0001:00035ce0       _GLee_Lazy_glUniform4ui@20 00436ce0 f   cinder:GLee.obj
 0001:00035d10       _GLee_Lazy_glUniform1uiv@12 00436d10 f   cinder:GLee.obj
 0001:00035d40       _GLee_Lazy_glUniform2uiv@12 00436d40 f   cinder:GLee.obj
 0001:00035d70       _GLee_Lazy_glUniform3uiv@12 00436d70 f   cinder:GLee.obj
 0001:00035da0       _GLee_Lazy_glUniform4uiv@12 00436da0 f   cinder:GLee.obj
 0001:00035dd0       _GLee_Lazy_glTexParameterIiv@12 00436dd0 f   cinder:GLee.obj
 0001:00035e00       _GLee_Lazy_glTexParameterIuiv@12 00436e00 f   cinder:GLee.obj
 0001:00035e30       _GLee_Lazy_glGetTexParameterIiv@12 00436e30 f   cinder:GLee.obj
 0001:00035e60       _GLee_Lazy_glGetTexParameterIuiv@12 00436e60 f   cinder:GLee.obj
 0001:00035e90       _GLee_Lazy_glClearBufferiv@12 00436e90 f   cinder:GLee.obj
 0001:00035ec0       _GLee_Lazy_glClearBufferuiv@12 00436ec0 f   cinder:GLee.obj
 0001:00035ef0       _GLee_Lazy_glClearBufferfv@12 00436ef0 f   cinder:GLee.obj
 0001:00035f20       _GLee_Lazy_glClearBufferfi@16 00436f20 f   cinder:GLee.obj
 0001:00035f50       _GLee_Lazy_glGetStringi@8  00436f50 f   cinder:GLee.obj
 0001:00035f80       _GLee_Lazy_glActiveTextureARB@4 00436f80 f   cinder:GLee.obj
 0001:00035fa0       _GLee_Lazy_glClientActiveTextureARB@4 00436fa0 f   cinder:GLee.obj
 0001:00035fc0       _GLee_Lazy_glMultiTexCoord1dARB@12 00436fc0 f   cinder:GLee.obj
 0001:00035ff0       _GLee_Lazy_glMultiTexCoord1dvARB@8 00436ff0 f   cinder:GLee.obj
 0001:00036020       _GLee_Lazy_glMultiTexCoord1fARB@8 00437020 f   cinder:GLee.obj
 0001:00036050       _GLee_Lazy_glMultiTexCoord1fvARB@8 00437050 f   cinder:GLee.obj
 0001:00036080       _GLee_Lazy_glMultiTexCoord1iARB@8 00437080 f   cinder:GLee.obj
 0001:000360b0       _GLee_Lazy_glMultiTexCoord1ivARB@8 004370b0 f   cinder:GLee.obj
 0001:000360e0       _GLee_Lazy_glMultiTexCoord1sARB@8 004370e0 f   cinder:GLee.obj
 0001:00036110       _GLee_Lazy_glMultiTexCoord1svARB@8 00437110 f   cinder:GLee.obj
 0001:00036140       _GLee_Lazy_glMultiTexCoord2dARB@20 00437140 f   cinder:GLee.obj
 0001:00036170       _GLee_Lazy_glMultiTexCoord2dvARB@8 00437170 f   cinder:GLee.obj
 0001:000361a0       _GLee_Lazy_glMultiTexCoord2fARB@12 004371a0 f   cinder:GLee.obj
 0001:000361d0       _GLee_Lazy_glMultiTexCoord2fvARB@8 004371d0 f   cinder:GLee.obj
 0001:00036200       _GLee_Lazy_glMultiTexCoord2iARB@12 00437200 f   cinder:GLee.obj
 0001:00036230       _GLee_Lazy_glMultiTexCoord2ivARB@8 00437230 f   cinder:GLee.obj
 0001:00036260       _GLee_Lazy_glMultiTexCoord2sARB@12 00437260 f   cinder:GLee.obj
 0001:00036290       _GLee_Lazy_glMultiTexCoord2svARB@8 00437290 f   cinder:GLee.obj
 0001:000362c0       _GLee_Lazy_glMultiTexCoord3dARB@28 004372c0 f   cinder:GLee.obj
 0001:00036300       _GLee_Lazy_glMultiTexCoord3dvARB@8 00437300 f   cinder:GLee.obj
 0001:00036330       _GLee_Lazy_glMultiTexCoord3fARB@16 00437330 f   cinder:GLee.obj
 0001:00036370       _GLee_Lazy_glMultiTexCoord3fvARB@8 00437370 f   cinder:GLee.obj
 0001:000363a0       _GLee_Lazy_glMultiTexCoord3iARB@16 004373a0 f   cinder:GLee.obj
 0001:000363d0       _GLee_Lazy_glMultiTexCoord3ivARB@8 004373d0 f   cinder:GLee.obj
 0001:00036400       _GLee_Lazy_glMultiTexCoord3sARB@16 00437400 f   cinder:GLee.obj
 0001:00036430       _GLee_Lazy_glMultiTexCoord3svARB@8 00437430 f   cinder:GLee.obj
 0001:00036460       _GLee_Lazy_glMultiTexCoord4dARB@36 00437460 f   cinder:GLee.obj
 0001:000364b0       _GLee_Lazy_glMultiTexCoord4dvARB@8 004374b0 f   cinder:GLee.obj
 0001:000364e0       _GLee_Lazy_glMultiTexCoord4fARB@20 004374e0 f   cinder:GLee.obj
 0001:00036520       _GLee_Lazy_glMultiTexCoord4fvARB@8 00437520 f   cinder:GLee.obj
 0001:00036550       _GLee_Lazy_glMultiTexCoord4iARB@20 00437550 f   cinder:GLee.obj
 0001:00036580       _GLee_Lazy_glMultiTexCoord4ivARB@8 00437580 f   cinder:GLee.obj
 0001:000365b0       _GLee_Lazy_glMultiTexCoord4sARB@20 004375b0 f   cinder:GLee.obj
 0001:000365f0       _GLee_Lazy_glMultiTexCoord4svARB@8 004375f0 f   cinder:GLee.obj
 0001:00036620       _GLee_Lazy_glLoadTransposeMatrixfARB@4 00437620 f   cinder:GLee.obj
 0001:00036640       _GLee_Lazy_glLoadTransposeMatrixdARB@4 00437640 f   cinder:GLee.obj
 0001:00036660       _GLee_Lazy_glMultTransposeMatrixfARB@4 00437660 f   cinder:GLee.obj
 0001:00036680       _GLee_Lazy_glMultTransposeMatrixdARB@4 00437680 f   cinder:GLee.obj
 0001:000366a0       _GLee_Lazy_glSampleCoverageARB@8 004376a0 f   cinder:GLee.obj
 0001:000366d0       _GLee_Lazy_glCompressedTexImage3DARB@36 004376d0 f   cinder:GLee.obj
 0001:00036710       _GLee_Lazy_glCompressedTexImage2DARB@32 00437710 f   cinder:GLee.obj
 0001:00036750       _GLee_Lazy_glCompressedTexImage1DARB@28 00437750 f   cinder:GLee.obj
 0001:00036790       _GLee_Lazy_glCompressedTexSubImage3DARB@44 00437790 f   cinder:GLee.obj
 0001:000367e0       _GLee_Lazy_glCompressedTexSubImage2DARB@36 004377e0 f   cinder:GLee.obj
 0001:00036820       _GLee_Lazy_glCompressedTexSubImage1DARB@28 00437820 f   cinder:GLee.obj
 0001:00036860       _GLee_Lazy_glGetCompressedTexImageARB@12 00437860 f   cinder:GLee.obj
 0001:00036890       _GLee_Lazy_glPointParameterfARB@8 00437890 f   cinder:GLee.obj
 0001:000368c0       _GLee_Lazy_glPointParameterfvARB@8 004378c0 f   cinder:GLee.obj
 0001:000368f0       _GLee_Lazy_glWeightbvARB@8 004378f0 f   cinder:GLee.obj
 0001:00036920       _GLee_Lazy_glWeightsvARB@8 00437920 f   cinder:GLee.obj
 0001:00036950       _GLee_Lazy_glWeightivARB@8 00437950 f   cinder:GLee.obj
 0001:00036980       _GLee_Lazy_glWeightfvARB@8 00437980 f   cinder:GLee.obj
 0001:000369b0       _GLee_Lazy_glWeightdvARB@8 004379b0 f   cinder:GLee.obj
 0001:000369e0       _GLee_Lazy_glWeightubvARB@8 004379e0 f   cinder:GLee.obj
 0001:00036a10       _GLee_Lazy_glWeightusvARB@8 00437a10 f   cinder:GLee.obj
 0001:00036a40       _GLee_Lazy_glWeightuivARB@8 00437a40 f   cinder:GLee.obj
 0001:00036a70       _GLee_Lazy_glWeightPointerARB@16 00437a70 f   cinder:GLee.obj
 0001:00036aa0       _GLee_Lazy_glVertexBlendARB@4 00437aa0 f   cinder:GLee.obj
 0001:00036ac0       _GLee_Lazy_glCurrentPaletteMatrixARB@4 00437ac0 f   cinder:GLee.obj
 0001:00036ae0       _GLee_Lazy_glMatrixIndexubvARB@8 00437ae0 f   cinder:GLee.obj
 0001:00036b10       _GLee_Lazy_glMatrixIndexusvARB@8 00437b10 f   cinder:GLee.obj
 0001:00036b40       _GLee_Lazy_glMatrixIndexuivARB@8 00437b40 f   cinder:GLee.obj
 0001:00036b70       _GLee_Lazy_glMatrixIndexPointerARB@16 00437b70 f   cinder:GLee.obj
 0001:00036ba0       _GLee_Lazy_glWindowPos2dARB@16 00437ba0 f   cinder:GLee.obj
 0001:00036bd0       _GLee_Lazy_glWindowPos2dvARB@4 00437bd0 f   cinder:GLee.obj
 0001:00036bf0       _GLee_Lazy_glWindowPos2fARB@8 00437bf0 f   cinder:GLee.obj
 0001:00036c20       _GLee_Lazy_glWindowPos2fvARB@4 00437c20 f   cinder:GLee.obj
 0001:00036c40       _GLee_Lazy_glWindowPos2iARB@8 00437c40 f   cinder:GLee.obj
 0001:00036c70       _GLee_Lazy_glWindowPos2ivARB@4 00437c70 f   cinder:GLee.obj
 0001:00036c90       _GLee_Lazy_glWindowPos2sARB@8 00437c90 f   cinder:GLee.obj
 0001:00036cc0       _GLee_Lazy_glWindowPos2svARB@4 00437cc0 f   cinder:GLee.obj
 0001:00036ce0       _GLee_Lazy_glWindowPos3dARB@24 00437ce0 f   cinder:GLee.obj
 0001:00036d20       _GLee_Lazy_glWindowPos3dvARB@4 00437d20 f   cinder:GLee.obj
 0001:00036d40       _GLee_Lazy_glWindowPos3fARB@12 00437d40 f   cinder:GLee.obj
 0001:00036d70       _GLee_Lazy_glWindowPos3fvARB@4 00437d70 f   cinder:GLee.obj
 0001:00036d90       _GLee_Lazy_glWindowPos3iARB@12 00437d90 f   cinder:GLee.obj
 0001:00036dc0       _GLee_Lazy_glWindowPos3ivARB@4 00437dc0 f   cinder:GLee.obj
 0001:00036de0       _GLee_Lazy_glWindowPos3sARB@12 00437de0 f   cinder:GLee.obj
 0001:00036e10       _GLee_Lazy_glWindowPos3svARB@4 00437e10 f   cinder:GLee.obj
 0001:00036e30       _GLee_Lazy_glVertexAttrib1dARB@12 00437e30 f   cinder:GLee.obj
 0001:00036e60       _GLee_Lazy_glVertexAttrib1dvARB@8 00437e60 f   cinder:GLee.obj
 0001:00036e90       _GLee_Lazy_glVertexAttrib1fARB@8 00437e90 f   cinder:GLee.obj
 0001:00036ec0       _GLee_Lazy_glVertexAttrib1fvARB@8 00437ec0 f   cinder:GLee.obj
 0001:00036ef0       _GLee_Lazy_glVertexAttrib1sARB@8 00437ef0 f   cinder:GLee.obj
 0001:00036f20       _GLee_Lazy_glVertexAttrib1svARB@8 00437f20 f   cinder:GLee.obj
 0001:00036f50       _GLee_Lazy_glVertexAttrib2dARB@20 00437f50 f   cinder:GLee.obj
 0001:00036f80       _GLee_Lazy_glVertexAttrib2dvARB@8 00437f80 f   cinder:GLee.obj
 0001:00036fb0       _GLee_Lazy_glVertexAttrib2fARB@12 00437fb0 f   cinder:GLee.obj
 0001:00036fe0       _GLee_Lazy_glVertexAttrib2fvARB@8 00437fe0 f   cinder:GLee.obj
 0001:00037010       _GLee_Lazy_glVertexAttrib2sARB@12 00438010 f   cinder:GLee.obj
 0001:00037040       _GLee_Lazy_glVertexAttrib2svARB@8 00438040 f   cinder:GLee.obj
 0001:00037070       _GLee_Lazy_glVertexAttrib3dARB@28 00438070 f   cinder:GLee.obj
 0001:000370b0       _GLee_Lazy_glVertexAttrib3dvARB@8 004380b0 f   cinder:GLee.obj
 0001:000370e0       _GLee_Lazy_glVertexAttrib3fARB@16 004380e0 f   cinder:GLee.obj
 0001:00037120       _GLee_Lazy_glVertexAttrib3fvARB@8 00438120 f   cinder:GLee.obj
 0001:00037150       _GLee_Lazy_glVertexAttrib3sARB@16 00438150 f   cinder:GLee.obj
 0001:00037180       _GLee_Lazy_glVertexAttrib3svARB@8 00438180 f   cinder:GLee.obj
 0001:000371b0       _GLee_Lazy_glVertexAttrib4NbvARB@8 004381b0 f   cinder:GLee.obj
 0001:000371e0       _GLee_Lazy_glVertexAttrib4NivARB@8 004381e0 f   cinder:GLee.obj
 0001:00037210       _GLee_Lazy_glVertexAttrib4NsvARB@8 00438210 f   cinder:GLee.obj
 0001:00037240       _GLee_Lazy_glVertexAttrib4NubARB@20 00438240 f   cinder:GLee.obj
 0001:00037280       _GLee_Lazy_glVertexAttrib4NubvARB@8 00438280 f   cinder:GLee.obj
 0001:000372b0       _GLee_Lazy_glVertexAttrib4NuivARB@8 004382b0 f   cinder:GLee.obj
 0001:000372e0       _GLee_Lazy_glVertexAttrib4NusvARB@8 004382e0 f   cinder:GLee.obj
 0001:00037310       _GLee_Lazy_glVertexAttrib4bvARB@8 00438310 f   cinder:GLee.obj
 0001:00037340       _GLee_Lazy_glVertexAttrib4dARB@36 00438340 f   cinder:GLee.obj
 0001:00037390       _GLee_Lazy_glVertexAttrib4dvARB@8 00438390 f   cinder:GLee.obj
 0001:000373c0       _GLee_Lazy_glVertexAttrib4fARB@20 004383c0 f   cinder:GLee.obj
 0001:00037400       _GLee_Lazy_glVertexAttrib4fvARB@8 00438400 f   cinder:GLee.obj
 0001:00037430       _GLee_Lazy_glVertexAttrib4ivARB@8 00438430 f   cinder:GLee.obj
 0001:00037460       _GLee_Lazy_glVertexAttrib4sARB@20 00438460 f   cinder:GLee.obj
 0001:000374a0       _GLee_Lazy_glVertexAttrib4svARB@8 004384a0 f   cinder:GLee.obj
 0001:000374d0       _GLee_Lazy_glVertexAttrib4ubvARB@8 004384d0 f   cinder:GLee.obj
 0001:00037500       _GLee_Lazy_glVertexAttrib4uivARB@8 00438500 f   cinder:GLee.obj
 0001:00037530       _GLee_Lazy_glVertexAttrib4usvARB@8 00438530 f   cinder:GLee.obj
 0001:00037560       _GLee_Lazy_glVertexAttribPointerARB@24 00438560 f   cinder:GLee.obj
 0001:000375a0       _GLee_Lazy_glEnableVertexAttribArrayARB@4 004385a0 f   cinder:GLee.obj
 0001:000375c0       _GLee_Lazy_glDisableVertexAttribArrayARB@4 004385c0 f   cinder:GLee.obj
 0001:000375e0       _GLee_Lazy_glProgramStringARB@16 004385e0 f   cinder:GLee.obj
 0001:00037610       _GLee_Lazy_glBindProgramARB@8 00438610 f   cinder:GLee.obj
 0001:00037640       _GLee_Lazy_glDeleteProgramsARB@8 00438640 f   cinder:GLee.obj
 0001:00037670       _GLee_Lazy_glGenProgramsARB@8 00438670 f   cinder:GLee.obj
 0001:000376a0       _GLee_Lazy_glProgramEnvParameter4dARB@40 004386a0 f   cinder:GLee.obj
 0001:000376f0       _GLee_Lazy_glProgramEnvParameter4dvARB@12 004386f0 f   cinder:GLee.obj
 0001:00037720       _GLee_Lazy_glProgramEnvParameter4fARB@24 00438720 f   cinder:GLee.obj
 0001:00037760       _GLee_Lazy_glProgramEnvParameter4fvARB@12 00438760 f   cinder:GLee.obj
 0001:00037790       _GLee_Lazy_glProgramLocalParameter4dARB@40 00438790 f   cinder:GLee.obj
 0001:000377e0       _GLee_Lazy_glProgramLocalParameter4dvARB@12 004387e0 f   cinder:GLee.obj
 0001:00037810       _GLee_Lazy_glProgramLocalParameter4fARB@24 00438810 f   cinder:GLee.obj
 0001:00037850       _GLee_Lazy_glProgramLocalParameter4fvARB@12 00438850 f   cinder:GLee.obj
 0001:00037880       _GLee_Lazy_glGetProgramEnvParameterdvARB@12 00438880 f   cinder:GLee.obj
 0001:000378b0       _GLee_Lazy_glGetProgramEnvParameterfvARB@12 004388b0 f   cinder:GLee.obj
 0001:000378e0       _GLee_Lazy_glGetProgramLocalParameterdvARB@12 004388e0 f   cinder:GLee.obj
 0001:00037910       _GLee_Lazy_glGetProgramLocalParameterfvARB@12 00438910 f   cinder:GLee.obj
 0001:00037940       _GLee_Lazy_glGetProgramivARB@12 00438940 f   cinder:GLee.obj
 0001:00037970       _GLee_Lazy_glGetProgramStringARB@12 00438970 f   cinder:GLee.obj
 0001:000379a0       _GLee_Lazy_glGetVertexAttribdvARB@12 004389a0 f   cinder:GLee.obj
 0001:000379d0       _GLee_Lazy_glGetVertexAttribfvARB@12 004389d0 f   cinder:GLee.obj
 0001:00037a00       _GLee_Lazy_glGetVertexAttribivARB@12 00438a00 f   cinder:GLee.obj
 0001:00037a30       _GLee_Lazy_glGetVertexAttribPointervARB@12 00438a30 f   cinder:GLee.obj
 0001:00037a60       _GLee_Lazy_glIsProgramARB@4 00438a60 f   cinder:GLee.obj
 0001:00037a90       _GLee_Lazy_glBindBufferARB@8 00438a90 f   cinder:GLee.obj
 0001:00037ac0       _GLee_Lazy_glDeleteBuffersARB@8 00438ac0 f   cinder:GLee.obj
 0001:00037af0       _GLee_Lazy_glGenBuffersARB@8 00438af0 f   cinder:GLee.obj
 0001:00037b20       _GLee_Lazy_glIsBufferARB@4 00438b20 f   cinder:GLee.obj
 0001:00037b50       _GLee_Lazy_glBufferDataARB@16 00438b50 f   cinder:GLee.obj
 0001:00037b80       _GLee_Lazy_glBufferSubDataARB@16 00438b80 f   cinder:GLee.obj
 0001:00037bb0       _GLee_Lazy_glGetBufferSubDataARB@16 00438bb0 f   cinder:GLee.obj
 0001:00037be0       _GLee_Lazy_glMapBufferARB@8 00438be0 f   cinder:GLee.obj
 0001:00037c10       _GLee_Lazy_glUnmapBufferARB@4 00438c10 f   cinder:GLee.obj
 0001:00037c40       _GLee_Lazy_glGetBufferParameterivARB@12 00438c40 f   cinder:GLee.obj
 0001:00037c70       _GLee_Lazy_glGetBufferPointervARB@12 00438c70 f   cinder:GLee.obj
 0001:00037ca0       _GLee_Lazy_glGenQueriesARB@8 00438ca0 f   cinder:GLee.obj
 0001:00037cd0       _GLee_Lazy_glDeleteQueriesARB@8 00438cd0 f   cinder:GLee.obj
 0001:00037d00       _GLee_Lazy_glIsQueryARB@4  00438d00 f   cinder:GLee.obj
 0001:00037d30       _GLee_Lazy_glBeginQueryARB@8 00438d30 f   cinder:GLee.obj
 0001:00037d60       _GLee_Lazy_glEndQueryARB@4 00438d60 f   cinder:GLee.obj
 0001:00037d80       _GLee_Lazy_glGetQueryivARB@12 00438d80 f   cinder:GLee.obj
 0001:00037db0       _GLee_Lazy_glGetQueryObjectivARB@12 00438db0 f   cinder:GLee.obj
 0001:00037de0       _GLee_Lazy_glGetQueryObjectuivARB@12 00438de0 f   cinder:GLee.obj
 0001:00037e10       _GLee_Lazy_glDeleteObjectARB@4 00438e10 f   cinder:GLee.obj
 0001:00037e30       _GLee_Lazy_glGetHandleARB@4 00438e30 f   cinder:GLee.obj
 0001:00037e60       _GLee_Lazy_glDetachObjectARB@8 00438e60 f   cinder:GLee.obj
 0001:00037e90       _GLee_Lazy_glCreateShaderObjectARB@4 00438e90 f   cinder:GLee.obj
 0001:00037ec0       _GLee_Lazy_glShaderSourceARB@16 00438ec0 f   cinder:GLee.obj
 0001:00037ef0       _GLee_Lazy_glCompileShaderARB@4 00438ef0 f   cinder:GLee.obj
 0001:00037f10       _GLee_Lazy_glCreateProgramObjectARB@0 00438f10 f   cinder:GLee.obj
 0001:00037f30       _GLee_Lazy_glAttachObjectARB@8 00438f30 f   cinder:GLee.obj
 0001:00037f60       _GLee_Lazy_glLinkProgramARB@4 00438f60 f   cinder:GLee.obj
 0001:00037f80       _GLee_Lazy_glUseProgramObjectARB@4 00438f80 f   cinder:GLee.obj
 0001:00037fa0       _GLee_Lazy_glValidateProgramARB@4 00438fa0 f   cinder:GLee.obj
 0001:00037fc0       _GLee_Lazy_glUniform1fARB@8 00438fc0 f   cinder:GLee.obj
 0001:00037ff0       _GLee_Lazy_glUniform2fARB@12 00438ff0 f   cinder:GLee.obj
 0001:00038020       _GLee_Lazy_glUniform3fARB@16 00439020 f   cinder:GLee.obj
 0001:00038060       _GLee_Lazy_glUniform4fARB@20 00439060 f   cinder:GLee.obj
 0001:000380a0       _GLee_Lazy_glUniform1iARB@8 004390a0 f   cinder:GLee.obj
 0001:000380d0       _GLee_Lazy_glUniform2iARB@12 004390d0 f   cinder:GLee.obj
 0001:00038100       _GLee_Lazy_glUniform3iARB@16 00439100 f   cinder:GLee.obj
 0001:00038130       _GLee_Lazy_glUniform4iARB@20 00439130 f   cinder:GLee.obj
 0001:00038160       _GLee_Lazy_glUniform1fvARB@12 00439160 f   cinder:GLee.obj
 0001:00038190       _GLee_Lazy_glUniform2fvARB@12 00439190 f   cinder:GLee.obj
 0001:000381c0       _GLee_Lazy_glUniform3fvARB@12 004391c0 f   cinder:GLee.obj
 0001:000381f0       _GLee_Lazy_glUniform4fvARB@12 004391f0 f   cinder:GLee.obj
 0001:00038220       _GLee_Lazy_glUniform1ivARB@12 00439220 f   cinder:GLee.obj
 0001:00038250       _GLee_Lazy_glUniform2ivARB@12 00439250 f   cinder:GLee.obj
 0001:00038280       _GLee_Lazy_glUniform3ivARB@12 00439280 f   cinder:GLee.obj
 0001:000382b0       _GLee_Lazy_glUniform4ivARB@12 004392b0 f   cinder:GLee.obj
 0001:000382e0       _GLee_Lazy_glUniformMatrix2fvARB@16 004392e0 f   cinder:GLee.obj
 0001:00038310       _GLee_Lazy_glUniformMatrix3fvARB@16 00439310 f   cinder:GLee.obj
 0001:00038340       _GLee_Lazy_glUniformMatrix4fvARB@16 00439340 f   cinder:GLee.obj
 0001:00038370       _GLee_Lazy_glGetObjectParameterfvARB@12 00439370 f   cinder:GLee.obj
 0001:000383a0       _GLee_Lazy_glGetObjectParameterivARB@12 004393a0 f   cinder:GLee.obj
 0001:000383d0       _GLee_Lazy_glGetInfoLogARB@16 004393d0 f   cinder:GLee.obj
 0001:00038400       _GLee_Lazy_glGetAttachedObjectsARB@16 00439400 f   cinder:GLee.obj
 0001:00038430       _GLee_Lazy_glGetUniformLocationARB@8 00439430 f   cinder:GLee.obj
 0001:00038460       _GLee_Lazy_glGetActiveUniformARB@28 00439460 f   cinder:GLee.obj
 0001:000384a0       _GLee_Lazy_glGetUniformfvARB@12 004394a0 f   cinder:GLee.obj
 0001:000384d0       _GLee_Lazy_glGetUniformivARB@12 004394d0 f   cinder:GLee.obj
 0001:00038500       _GLee_Lazy_glGetShaderSourceARB@16 00439500 f   cinder:GLee.obj
 0001:00038530       _GLee_Lazy_glBindAttribLocationARB@12 00439530 f   cinder:GLee.obj
 0001:00038560       _GLee_Lazy_glGetActiveAttribARB@28 00439560 f   cinder:GLee.obj
 0001:000385a0       _GLee_Lazy_glGetAttribLocationARB@8 004395a0 f   cinder:GLee.obj
 0001:000385d0       _GLee_Lazy_glDrawBuffersARB@8 004395d0 f   cinder:GLee.obj
 0001:00038600       _GLee_Lazy_glClampColorARB@8 00439600 f   cinder:GLee.obj
 0001:00038630       _GLee_Lazy_glDrawArraysInstancedARB@16 00439630 f   cinder:GLee.obj
 0001:00038660       _GLee_Lazy_glDrawElementsInstancedARB@20 00439660 f   cinder:GLee.obj
 0001:00038690       _GLee_Lazy_glIsRenderbuffer@4 00439690 f   cinder:GLee.obj
 0001:000386c0       _GLee_Lazy_glBindRenderbuffer@8 004396c0 f   cinder:GLee.obj
 0001:000386f0       _GLee_Lazy_glDeleteRenderbuffers@8 004396f0 f   cinder:GLee.obj
 0001:00038720       _GLee_Lazy_glGenRenderbuffers@8 00439720 f   cinder:GLee.obj
 0001:00038750       _GLee_Lazy_glRenderbufferStorage@16 00439750 f   cinder:GLee.obj
 0001:00038780       _GLee_Lazy_glGetRenderbufferParameteriv@12 00439780 f   cinder:GLee.obj
 0001:000387b0       _GLee_Lazy_glIsFramebuffer@4 004397b0 f   cinder:GLee.obj
 0001:000387e0       _GLee_Lazy_glBindFramebuffer@8 004397e0 f   cinder:GLee.obj
 0001:00038810       _GLee_Lazy_glDeleteFramebuffers@8 00439810 f   cinder:GLee.obj
 0001:00038840       _GLee_Lazy_glGenFramebuffers@8 00439840 f   cinder:GLee.obj
 0001:00038870       _GLee_Lazy_glCheckFramebufferStatus@4 00439870 f   cinder:GLee.obj
 0001:000388a0       _GLee_Lazy_glFramebufferTexture1D@20 004398a0 f   cinder:GLee.obj
 0001:000388d0       _GLee_Lazy_glFramebufferTexture2D@20 004398d0 f   cinder:GLee.obj
 0001:00038900       _GLee_Lazy_glFramebufferTexture3D@24 00439900 f   cinder:GLee.obj
 0001:00038940       _GLee_Lazy_glFramebufferRenderbuffer@16 00439940 f   cinder:GLee.obj
 0001:00038970       _GLee_Lazy_glGetFramebufferAttachmentParameteriv@16 00439970 f   cinder:GLee.obj
 0001:000389a0       _GLee_Lazy_glGenerateMipmap@4 004399a0 f   cinder:GLee.obj
 0001:000389c0       _GLee_Lazy_glBlitFramebuffer@40 004399c0 f   cinder:GLee.obj
 0001:00038a10       _GLee_Lazy_glRenderbufferStorageMultisample@20 00439a10 f   cinder:GLee.obj
 0001:00038a40       _GLee_Lazy_glFramebufferTextureLayer@20 00439a40 f   cinder:GLee.obj
 0001:00038a70       _GLee_Lazy_glProgramParameteriARB@12 00439a70 f   cinder:GLee.obj
 0001:00038aa0       _GLee_Lazy_glFramebufferTextureARB@16 00439aa0 f   cinder:GLee.obj
 0001:00038ad0       _GLee_Lazy_glFramebufferTextureLayerARB@20 00439ad0 f   cinder:GLee.obj
 0001:00038b00       _GLee_Lazy_glFramebufferTextureFaceARB@20 00439b00 f   cinder:GLee.obj
 0001:00038b30       _GLee_Lazy_glVertexAttribDivisor@8 00439b30 f   cinder:GLee.obj
 0001:00038b60       _GLee_Lazy_glMapBufferRange@16 00439b60 f   cinder:GLee.obj
 0001:00038b90       _GLee_Lazy_glFlushMappedBufferRange@12 00439b90 f   cinder:GLee.obj
 0001:00038bc0       _GLee_Lazy_glTexBufferARB@12 00439bc0 f   cinder:GLee.obj
 0001:00038bf0       _GLee_Lazy_glBindVertexArray@4 00439bf0 f   cinder:GLee.obj
 0001:00038c10       _GLee_Lazy_glDeleteVertexArrays@8 00439c10 f   cinder:GLee.obj
 0001:00038c40       _GLee_Lazy_glGenVertexArrays@8 00439c40 f   cinder:GLee.obj
 0001:00038c70       _GLee_Lazy_glIsVertexArray@4 00439c70 f   cinder:GLee.obj
 0001:00038ca0       _GLee_Lazy_glBlendColorEXT@16 00439ca0 f   cinder:GLee.obj
 0001:00038ce0       _GLee_Lazy_glPolygonOffsetEXT@8 00439ce0 f   cinder:GLee.obj
 0001:00038d10       _GLee_Lazy_glTexImage3DEXT@40 00439d10 f   cinder:GLee.obj
 0001:00038d60       _GLee_Lazy_glTexSubImage3DEXT@44 00439d60 f   cinder:GLee.obj
 0001:00038db0       _GLee_Lazy_glGetTexFilterFuncSGIS@12 00439db0 f   cinder:GLee.obj
 0001:00038de0       _GLee_Lazy_glTexFilterFuncSGIS@16 00439de0 f   cinder:GLee.obj
 0001:00038e10       _GLee_Lazy_glTexSubImage1DEXT@28 00439e10 f   cinder:GLee.obj
 0001:00038e50       _GLee_Lazy_glTexSubImage2DEXT@36 00439e50 f   cinder:GLee.obj
 0001:00038e90       _GLee_Lazy_glCopyTexImage1DEXT@28 00439e90 f   cinder:GLee.obj
 0001:00038ed0       _GLee_Lazy_glCopyTexImage2DEXT@32 00439ed0 f   cinder:GLee.obj
 0001:00038f10       _GLee_Lazy_glCopyTexSubImage1DEXT@24 00439f10 f   cinder:GLee.obj
 0001:00038f50       _GLee_Lazy_glCopyTexSubImage2DEXT@32 00439f50 f   cinder:GLee.obj
 0001:00038f90       _GLee_Lazy_glCopyTexSubImage3DEXT@36 00439f90 f   cinder:GLee.obj
 0001:00038fd0       _GLee_Lazy_glGetHistogramEXT@20 00439fd0 f   cinder:GLee.obj
 0001:00039000       _GLee_Lazy_glGetHistogramParameterfvEXT@12 0043a000 f   cinder:GLee.obj
 0001:00039030       _GLee_Lazy_glGetHistogramParameterivEXT@12 0043a030 f   cinder:GLee.obj
 0001:00039060       _GLee_Lazy_glGetMinmaxEXT@20 0043a060 f   cinder:GLee.obj
 0001:00039090       _GLee_Lazy_glGetMinmaxParameterfvEXT@12 0043a090 f   cinder:GLee.obj
 0001:000390c0       _GLee_Lazy_glGetMinmaxParameterivEXT@12 0043a0c0 f   cinder:GLee.obj
 0001:000390f0       _GLee_Lazy_glHistogramEXT@16 0043a0f0 f   cinder:GLee.obj
 0001:00039120       _GLee_Lazy_glMinmaxEXT@12  0043a120 f   cinder:GLee.obj
 0001:00039150       _GLee_Lazy_glResetHistogramEXT@4 0043a150 f   cinder:GLee.obj
 0001:00039170       _GLee_Lazy_glResetMinmaxEXT@4 0043a170 f   cinder:GLee.obj
 0001:00039190       _GLee_Lazy_glConvolutionFilter1DEXT@24 0043a190 f   cinder:GLee.obj
 0001:000391d0       _GLee_Lazy_glConvolutionFilter2DEXT@28 0043a1d0 f   cinder:GLee.obj
 0001:00039210       _GLee_Lazy_glConvolutionParameterfEXT@12 0043a210 f   cinder:GLee.obj
 0001:00039240       _GLee_Lazy_glConvolutionParameterfvEXT@12 0043a240 f   cinder:GLee.obj
 0001:00039270       _GLee_Lazy_glConvolutionParameteriEXT@12 0043a270 f   cinder:GLee.obj
 0001:000392a0       _GLee_Lazy_glConvolutionParameterivEXT@12 0043a2a0 f   cinder:GLee.obj
 0001:000392d0       _GLee_Lazy_glCopyConvolutionFilter1DEXT@20 0043a2d0 f   cinder:GLee.obj
 0001:00039300       _GLee_Lazy_glCopyConvolutionFilter2DEXT@24 0043a300 f   cinder:GLee.obj
 0001:00039340       _GLee_Lazy_glGetConvolutionFilterEXT@16 0043a340 f   cinder:GLee.obj
 0001:00039370       _GLee_Lazy_glGetConvolutionParameterfvEXT@12 0043a370 f   cinder:GLee.obj
 0001:000393a0       _GLee_Lazy_glGetConvolutionParameterivEXT@12 0043a3a0 f   cinder:GLee.obj
 0001:000393d0       _GLee_Lazy_glGetSeparableFilterEXT@24 0043a3d0 f   cinder:GLee.obj
 0001:00039410       _GLee_Lazy_glSeparableFilter2DEXT@32 0043a410 f   cinder:GLee.obj
 0001:00039450       _GLee_Lazy_glColorTableSGI@24 0043a450 f   cinder:GLee.obj
 0001:00039490       _GLee_Lazy_glColorTableParameterfvSGI@12 0043a490 f   cinder:GLee.obj
 0001:000394c0       _GLee_Lazy_glColorTableParameterivSGI@12 0043a4c0 f   cinder:GLee.obj
 0001:000394f0       _GLee_Lazy_glCopyColorTableSGI@20 0043a4f0 f   cinder:GLee.obj
 0001:00039520       _GLee_Lazy_glGetColorTableSGI@16 0043a520 f   cinder:GLee.obj
 0001:00039550       _GLee_Lazy_glGetColorTableParameterfvSGI@12 0043a550 f   cinder:GLee.obj
 0001:00039580       _GLee_Lazy_glGetColorTableParameterivSGI@12 0043a580 f   cinder:GLee.obj
 0001:000395b0       _GLee_Lazy_glPixelTexGenParameteriSGIS@8 0043a5b0 f   cinder:GLee.obj
 0001:000395e0       _GLee_Lazy_glPixelTexGenParameterivSGIS@8 0043a5e0 f   cinder:GLee.obj
 0001:00039610       _GLee_Lazy_glPixelTexGenParameterfSGIS@8 0043a610 f   cinder:GLee.obj
 0001:00039640       _GLee_Lazy_glPixelTexGenParameterfvSGIS@8 0043a640 f   cinder:GLee.obj
 0001:00039670       _GLee_Lazy_glGetPixelTexGenParameterivSGIS@8 0043a670 f   cinder:GLee.obj
 0001:000396a0       _GLee_Lazy_glGetPixelTexGenParameterfvSGIS@8 0043a6a0 f   cinder:GLee.obj
 0001:000396d0       _GLee_Lazy_glPixelTexGenSGIX@4 0043a6d0 f   cinder:GLee.obj
 0001:000396f0       _GLee_Lazy_glTexImage4DSGIS@44 0043a6f0 f   cinder:GLee.obj
 0001:00039740       _GLee_Lazy_glTexSubImage4DSGIS@52 0043a740 f   cinder:GLee.obj
 0001:00039790       _GLee_Lazy_glAreTexturesResidentEXT@12 0043a790 f   cinder:GLee.obj
 0001:000397c0       _GLee_Lazy_glBindTextureEXT@8 0043a7c0 f   cinder:GLee.obj
 0001:000397f0       _GLee_Lazy_glDeleteTexturesEXT@8 0043a7f0 f   cinder:GLee.obj
 0001:00039820       _GLee_Lazy_glGenTexturesEXT@8 0043a820 f   cinder:GLee.obj
 0001:00039850       _GLee_Lazy_glIsTextureEXT@4 0043a850 f   cinder:GLee.obj
 0001:00039880       _GLee_Lazy_glPrioritizeTexturesEXT@12 0043a880 f   cinder:GLee.obj
 0001:000398b0       _GLee_Lazy_glDetailTexFuncSGIS@12 0043a8b0 f   cinder:GLee.obj
 0001:000398e0       _GLee_Lazy_glGetDetailTexFuncSGIS@8 0043a8e0 f   cinder:GLee.obj
 0001:00039910       _GLee_Lazy_glSharpenTexFuncSGIS@12 0043a910 f   cinder:GLee.obj
 0001:00039940       _GLee_Lazy_glGetSharpenTexFuncSGIS@8 0043a940 f   cinder:GLee.obj
 0001:00039970       _GLee_Lazy_glSampleMaskSGIS@8 0043a970 f   cinder:GLee.obj
 0001:000399a0       _GLee_Lazy_glSamplePatternSGIS@4 0043a9a0 f   cinder:GLee.obj
 0001:000399c0       _GLee_Lazy_glBlendEquationEXT@4 0043a9c0 f   cinder:GLee.obj
 0001:000399e0       _GLee_Lazy_glSpriteParameterfSGIX@8 0043a9e0 f   cinder:GLee.obj
 0001:00039a10       _GLee_Lazy_glSpriteParameterfvSGIX@8 0043aa10 f   cinder:GLee.obj
 0001:00039a40       _GLee_Lazy_glSpriteParameteriSGIX@8 0043aa40 f   cinder:GLee.obj
 0001:00039a70       _GLee_Lazy_glSpriteParameterivSGIX@8 0043aa70 f   cinder:GLee.obj
 0001:00039aa0       _GLee_Lazy_glPointParameterfEXT@8 0043aaa0 f   cinder:GLee.obj
 0001:00039ad0       _GLee_Lazy_glPointParameterfvEXT@8 0043aad0 f   cinder:GLee.obj
 0001:00039b00       _GLee_Lazy_glPointParameterfSGIS@8 0043ab00 f   cinder:GLee.obj
 0001:00039b30       _GLee_Lazy_glPointParameterfvSGIS@8 0043ab30 f   cinder:GLee.obj
 0001:00039b60       _GLee_Lazy_glGetInstrumentsSGIX@0 0043ab60 f   cinder:GLee.obj
 0001:00039b80       _GLee_Lazy_glInstrumentsBufferSGIX@8 0043ab80 f   cinder:GLee.obj
 0001:00039bb0       _GLee_Lazy_glPollInstrumentsSGIX@4 0043abb0 f   cinder:GLee.obj
 0001:00039be0       _GLee_Lazy_glReadInstrumentsSGIX@4 0043abe0 f   cinder:GLee.obj
 0001:00039c00       _GLee_Lazy_glStartInstrumentsSGIX@0 0043ac00 f   cinder:GLee.obj
 0001:00039c20       _GLee_Lazy_glStopInstrumentsSGIX@4 0043ac20 f   cinder:GLee.obj
 0001:00039c40       _GLee_Lazy_glFrameZoomSGIX@4 0043ac40 f   cinder:GLee.obj
 0001:00039c60       _GLee_Lazy_glTagSampleBufferSGIX@0 0043ac60 f   cinder:GLee.obj
 0001:00039c80       _GLee_Lazy_glDeformationMap3dSGIX@80 0043ac80 f   cinder:GLee.obj
 0001:00039cf0       _GLee_Lazy_glDeformationMap3fSGIX@56 0043acf0 f   cinder:GLee.obj
 0001:00039d60       _GLee_Lazy_glDeformSGIX@4  0043ad60 f   cinder:GLee.obj
 0001:00039d80       _GLee_Lazy_glLoadIdentityDeformationMapSGIX@4 0043ad80 f   cinder:GLee.obj
 0001:00039da0       _GLee_Lazy_glReferencePlaneSGIX@4 0043ada0 f   cinder:GLee.obj
 0001:00039dc0       _GLee_Lazy_glFlushRasterSGIX@0 0043adc0 f   cinder:GLee.obj
 0001:00039de0       _GLee_Lazy_glFogFuncSGIS@8 0043ade0 f   cinder:GLee.obj
 0001:00039e10       _GLee_Lazy_glGetFogFuncSGIS@4 0043ae10 f   cinder:GLee.obj
 0001:00039e30       _GLee_Lazy_glImageTransformParameteriHP@12 0043ae30 f   cinder:GLee.obj
 0001:00039e60       _GLee_Lazy_glImageTransformParameterfHP@12 0043ae60 f   cinder:GLee.obj
 0001:00039e90       _GLee_Lazy_glImageTransformParameterivHP@12 0043ae90 f   cinder:GLee.obj
 0001:00039ec0       _GLee_Lazy_glImageTransformParameterfvHP@12 0043aec0 f   cinder:GLee.obj
 0001:00039ef0       _GLee_Lazy_glGetImageTransformParameterivHP@12 0043aef0 f   cinder:GLee.obj
 0001:00039f20       _GLee_Lazy_glGetImageTransformParameterfvHP@12 0043af20 f   cinder:GLee.obj
 0001:00039f50       _GLee_Lazy_glColorSubTableEXT@24 0043af50 f   cinder:GLee.obj
 0001:00039f90       _GLee_Lazy_glCopyColorSubTableEXT@20 0043af90 f   cinder:GLee.obj
 0001:00039fc0       _GLee_Lazy_glHintPGI@8     0043afc0 f   cinder:GLee.obj
 0001:00039ff0       _GLee_Lazy_glGetListParameterfvSGIX@12 0043aff0 f   cinder:GLee.obj
 0001:0003a020       _GLee_Lazy_glGetListParameterivSGIX@12 0043b020 f   cinder:GLee.obj
 0001:0003a050       _GLee_Lazy_glListParameterfSGIX@12 0043b050 f   cinder:GLee.obj
 0001:0003a080       _GLee_Lazy_glListParameterfvSGIX@12 0043b080 f   cinder:GLee.obj
 0001:0003a0b0       _GLee_Lazy_glListParameteriSGIX@12 0043b0b0 f   cinder:GLee.obj
 0001:0003a0e0       _GLee_Lazy_glListParameterivSGIX@12 0043b0e0 f   cinder:GLee.obj
 0001:0003a110       _GLee_Lazy_glIndexMaterialEXT@8 0043b110 f   cinder:GLee.obj
 0001:0003a140       _GLee_Lazy_glIndexFuncEXT@8 0043b140 f   cinder:GLee.obj
 0001:0003a170       _GLee_Lazy_glLockArraysEXT@8 0043b170 f   cinder:GLee.obj
 0001:0003a1a0       _GLee_Lazy_glUnlockArraysEXT@0 0043b1a0 f   cinder:GLee.obj
 0001:0003a1c0       _GLee_Lazy_glCullParameterdvEXT@8 0043b1c0 f   cinder:GLee.obj
 0001:0003a1f0       _GLee_Lazy_glCullParameterfvEXT@8 0043b1f0 f   cinder:GLee.obj
 0001:0003a220       _GLee_Lazy_glFragmentColorMaterialSGIX@8 0043b220 f   cinder:GLee.obj
 0001:0003a250       _GLee_Lazy_glFragmentLightfSGIX@12 0043b250 f   cinder:GLee.obj
 0001:0003a280       _GLee_Lazy_glFragmentLightfvSGIX@12 0043b280 f   cinder:GLee.obj
 0001:0003a2b0       _GLee_Lazy_glFragmentLightiSGIX@12 0043b2b0 f   cinder:GLee.obj
 0001:0003a2e0       _GLee_Lazy_glFragmentLightivSGIX@12 0043b2e0 f   cinder:GLee.obj
 0001:0003a310       _GLee_Lazy_glFragmentLightModelfSGIX@8 0043b310 f   cinder:GLee.obj
 0001:0003a340       _GLee_Lazy_glFragmentLightModelfvSGIX@8 0043b340 f   cinder:GLee.obj
 0001:0003a370       _GLee_Lazy_glFragmentLightModeliSGIX@8 0043b370 f   cinder:GLee.obj
 0001:0003a3a0       _GLee_Lazy_glFragmentLightModelivSGIX@8 0043b3a0 f   cinder:GLee.obj
 0001:0003a3d0       _GLee_Lazy_glFragmentMaterialfSGIX@12 0043b3d0 f   cinder:GLee.obj
 0001:0003a400       _GLee_Lazy_glFragmentMaterialfvSGIX@12 0043b400 f   cinder:GLee.obj
 0001:0003a430       _GLee_Lazy_glFragmentMaterialiSGIX@12 0043b430 f   cinder:GLee.obj
 0001:0003a460       _GLee_Lazy_glFragmentMaterialivSGIX@12 0043b460 f   cinder:GLee.obj
 0001:0003a490       _GLee_Lazy_glGetFragmentLightfvSGIX@12 0043b490 f   cinder:GLee.obj
 0001:0003a4c0       _GLee_Lazy_glGetFragmentLightivSGIX@12 0043b4c0 f   cinder:GLee.obj
 0001:0003a4f0       _GLee_Lazy_glGetFragmentMaterialfvSGIX@12 0043b4f0 f   cinder:GLee.obj
 0001:0003a520       _GLee_Lazy_glGetFragmentMaterialivSGIX@12 0043b520 f   cinder:GLee.obj
 0001:0003a550       _GLee_Lazy_glLightEnviSGIX@8 0043b550 f   cinder:GLee.obj
 0001:0003a580       _GLee_Lazy_glDrawRangeElementsEXT@24 0043b580 f   cinder:GLee.obj
 0001:0003a5c0       _GLee_Lazy_glApplyTextureEXT@4 0043b5c0 f   cinder:GLee.obj
 0001:0003a5e0       _GLee_Lazy_glTextureLightEXT@4 0043b5e0 f   cinder:GLee.obj
 0001:0003a600       _GLee_Lazy_glTextureMaterialEXT@8 0043b600 f   cinder:GLee.obj
 0001:0003a630       _GLee_Lazy_glAsyncMarkerSGIX@4 0043b630 f   cinder:GLee.obj
 0001:0003a650       _GLee_Lazy_glFinishAsyncSGIX@4 0043b650 f   cinder:GLee.obj
 0001:0003a680       _GLee_Lazy_glPollAsyncSGIX@4 0043b680 f   cinder:GLee.obj
 0001:0003a6b0       _GLee_Lazy_glGenAsyncMarkersSGIX@4 0043b6b0 f   cinder:GLee.obj
 0001:0003a6e0       _GLee_Lazy_glDeleteAsyncMarkersSGIX@8 0043b6e0 f   cinder:GLee.obj
 0001:0003a710       _GLee_Lazy_glIsAsyncMarkerSGIX@4 0043b710 f   cinder:GLee.obj
 0001:0003a740       _GLee_Lazy_glVertexPointervINTEL@12 0043b740 f   cinder:GLee.obj
 0001:0003a770       _GLee_Lazy_glNormalPointervINTEL@8 0043b770 f   cinder:GLee.obj
 0001:0003a7a0       _GLee_Lazy_glColorPointervINTEL@12 0043b7a0 f   cinder:GLee.obj
 0001:0003a7d0       _GLee_Lazy_glTexCoordPointervINTEL@12 0043b7d0 f   cinder:GLee.obj
 0001:0003a800       _GLee_Lazy_glPixelTransformParameteriEXT@12 0043b800 f   cinder:GLee.obj
 0001:0003a830       _GLee_Lazy_glPixelTransformParameterfEXT@12 0043b830 f   cinder:GLee.obj
 0001:0003a860       _GLee_Lazy_glPixelTransformParameterivEXT@12 0043b860 f   cinder:GLee.obj
 0001:0003a890       _GLee_Lazy_glPixelTransformParameterfvEXT@12 0043b890 f   cinder:GLee.obj
 0001:0003a8c0       _GLee_Lazy_glSecondaryColor3bEXT@12 0043b8c0 f   cinder:GLee.obj
 0001:0003a8f0       _GLee_Lazy_glSecondaryColor3bvEXT@4 0043b8f0 f   cinder:GLee.obj
 0001:0003a910       _GLee_Lazy_glSecondaryColor3dEXT@24 0043b910 f   cinder:GLee.obj
 0001:0003a950       _GLee_Lazy_glSecondaryColor3dvEXT@4 0043b950 f   cinder:GLee.obj
 0001:0003a970       _GLee_Lazy_glSecondaryColor3fEXT@12 0043b970 f   cinder:GLee.obj
 0001:0003a9a0       _GLee_Lazy_glSecondaryColor3fvEXT@4 0043b9a0 f   cinder:GLee.obj
 0001:0003a9c0       _GLee_Lazy_glSecondaryColor3iEXT@12 0043b9c0 f   cinder:GLee.obj
 0001:0003a9f0       _GLee_Lazy_glSecondaryColor3ivEXT@4 0043b9f0 f   cinder:GLee.obj
 0001:0003aa10       _GLee_Lazy_glSecondaryColor3sEXT@12 0043ba10 f   cinder:GLee.obj
 0001:0003aa40       _GLee_Lazy_glSecondaryColor3svEXT@4 0043ba40 f   cinder:GLee.obj
 0001:0003aa60       _GLee_Lazy_glSecondaryColor3ubEXT@12 0043ba60 f   cinder:GLee.obj
 0001:0003aa90       _GLee_Lazy_glSecondaryColor3ubvEXT@4 0043ba90 f   cinder:GLee.obj
 0001:0003aab0       _GLee_Lazy_glSecondaryColor3uiEXT@12 0043bab0 f   cinder:GLee.obj
 0001:0003aae0       _GLee_Lazy_glSecondaryColor3uivEXT@4 0043bae0 f   cinder:GLee.obj
 0001:0003ab00       _GLee_Lazy_glSecondaryColor3usEXT@12 0043bb00 f   cinder:GLee.obj
 0001:0003ab30       _GLee_Lazy_glSecondaryColor3usvEXT@4 0043bb30 f   cinder:GLee.obj
 0001:0003ab50       _GLee_Lazy_glSecondaryColorPointerEXT@16 0043bb50 f   cinder:GLee.obj
 0001:0003ab80       _GLee_Lazy_glTextureNormalEXT@4 0043bb80 f   cinder:GLee.obj
 0001:0003aba0       _GLee_Lazy_glMultiDrawArraysEXT@16 0043bba0 f   cinder:GLee.obj
 0001:0003abd0       _GLee_Lazy_glMultiDrawElementsEXT@20 0043bbd0 f   cinder:GLee.obj
 0001:0003ac00       _GLee_Lazy_glFogCoordfEXT@4 0043bc00 f   cinder:GLee.obj
 0001:0003ac20       _GLee_Lazy_glFogCoordfvEXT@4 0043bc20 f   cinder:GLee.obj
 0001:0003ac40       _GLee_Lazy_glFogCoorddEXT@8 0043bc40 f   cinder:GLee.obj
 0001:0003ac70       _GLee_Lazy_glFogCoorddvEXT@4 0043bc70 f   cinder:GLee.obj
 0001:0003ac90       _GLee_Lazy_glFogCoordPointerEXT@12 0043bc90 f   cinder:GLee.obj
 0001:0003acc0       _GLee_Lazy_glTangent3bEXT@12 0043bcc0 f   cinder:GLee.obj
 0001:0003acf0       _GLee_Lazy_glTangent3bvEXT@4 0043bcf0 f   cinder:GLee.obj
 0001:0003ad10       _GLee_Lazy_glTangent3dEXT@24 0043bd10 f   cinder:GLee.obj
 0001:0003ad50       _GLee_Lazy_glTangent3dvEXT@4 0043bd50 f   cinder:GLee.obj
 0001:0003ad70       _GLee_Lazy_glTangent3fEXT@12 0043bd70 f   cinder:GLee.obj
 0001:0003ada0       _GLee_Lazy_glTangent3fvEXT@4 0043bda0 f   cinder:GLee.obj
 0001:0003adc0       _GLee_Lazy_glTangent3iEXT@12 0043bdc0 f   cinder:GLee.obj
 0001:0003adf0       _GLee_Lazy_glTangent3ivEXT@4 0043bdf0 f   cinder:GLee.obj
 0001:0003ae10       _GLee_Lazy_glTangent3sEXT@12 0043be10 f   cinder:GLee.obj
 0001:0003ae40       _GLee_Lazy_glTangent3svEXT@4 0043be40 f   cinder:GLee.obj
 0001:0003ae60       _GLee_Lazy_glBinormal3bEXT@12 0043be60 f   cinder:GLee.obj
 0001:0003ae90       _GLee_Lazy_glBinormal3bvEXT@4 0043be90 f   cinder:GLee.obj
 0001:0003aeb0       _GLee_Lazy_glBinormal3dEXT@24 0043beb0 f   cinder:GLee.obj
 0001:0003aef0       _GLee_Lazy_glBinormal3dvEXT@4 0043bef0 f   cinder:GLee.obj
 0001:0003af10       _GLee_Lazy_glBinormal3fEXT@12 0043bf10 f   cinder:GLee.obj
 0001:0003af40       _GLee_Lazy_glBinormal3fvEXT@4 0043bf40 f   cinder:GLee.obj
 0001:0003af60       _GLee_Lazy_glBinormal3iEXT@12 0043bf60 f   cinder:GLee.obj
 0001:0003af90       _GLee_Lazy_glBinormal3ivEXT@4 0043bf90 f   cinder:GLee.obj
 0001:0003afb0       _GLee_Lazy_glBinormal3sEXT@12 0043bfb0 f   cinder:GLee.obj
 0001:0003afe0       _GLee_Lazy_glBinormal3svEXT@4 0043bfe0 f   cinder:GLee.obj
 0001:0003b000       _GLee_Lazy_glTangentPointerEXT@12 0043c000 f   cinder:GLee.obj
 0001:0003b030       _GLee_Lazy_glBinormalPointerEXT@12 0043c030 f   cinder:GLee.obj
 0001:0003b060       _GLee_Lazy_glFinishTextureSUNX@0 0043c060 f   cinder:GLee.obj
 0001:0003b080       _GLee_Lazy_glGlobalAlphaFactorbSUN@4 0043c080 f   cinder:GLee.obj
 0001:0003b0a0       _GLee_Lazy_glGlobalAlphaFactorsSUN@4 0043c0a0 f   cinder:GLee.obj
 0001:0003b0c0       _GLee_Lazy_glGlobalAlphaFactoriSUN@4 0043c0c0 f   cinder:GLee.obj
 0001:0003b0e0       _GLee_Lazy_glGlobalAlphaFactorfSUN@4 0043c0e0 f   cinder:GLee.obj
 0001:0003b100       _GLee_Lazy_glGlobalAlphaFactordSUN@8 0043c100 f   cinder:GLee.obj
 0001:0003b130       _GLee_Lazy_glGlobalAlphaFactorubSUN@4 0043c130 f   cinder:GLee.obj
 0001:0003b150       _GLee_Lazy_glGlobalAlphaFactorusSUN@4 0043c150 f   cinder:GLee.obj
 0001:0003b170       _GLee_Lazy_glGlobalAlphaFactoruiSUN@4 0043c170 f   cinder:GLee.obj
 0001:0003b190       _GLee_Lazy_glReplacementCodeuiSUN@4 0043c190 f   cinder:GLee.obj
 0001:0003b1b0       _GLee_Lazy_glReplacementCodeusSUN@4 0043c1b0 f   cinder:GLee.obj
 0001:0003b1d0       _GLee_Lazy_glReplacementCodeubSUN@4 0043c1d0 f   cinder:GLee.obj
 0001:0003b1f0       _GLee_Lazy_glReplacementCodeuivSUN@4 0043c1f0 f   cinder:GLee.obj
 0001:0003b210       _GLee_Lazy_glReplacementCodeusvSUN@4 0043c210 f   cinder:GLee.obj
 0001:0003b230       _GLee_Lazy_glReplacementCodeubvSUN@4 0043c230 f   cinder:GLee.obj
 0001:0003b250       _GLee_Lazy_glReplacementCodePointerSUN@12 0043c250 f   cinder:GLee.obj
 0001:0003b280       _GLee_Lazy_glColor4ubVertex2fSUN@24 0043c280 f   cinder:GLee.obj
 0001:0003b2c0       _GLee_Lazy_glColor4ubVertex2fvSUN@8 0043c2c0 f   cinder:GLee.obj
 0001:0003b2f0       _GLee_Lazy_glColor4ubVertex3fSUN@28 0043c2f0 f   cinder:GLee.obj
 0001:0003b340       _GLee_Lazy_glColor4ubVertex3fvSUN@8 0043c340 f   cinder:GLee.obj
 0001:0003b370       _GLee_Lazy_glColor3fVertex3fSUN@24 0043c370 f   cinder:GLee.obj
 0001:0003b3c0       _GLee_Lazy_glColor3fVertex3fvSUN@8 0043c3c0 f   cinder:GLee.obj
 0001:0003b3f0       _GLee_Lazy_glNormal3fVertex3fSUN@24 0043c3f0 f   cinder:GLee.obj
 0001:0003b440       _GLee_Lazy_glNormal3fVertex3fvSUN@8 0043c440 f   cinder:GLee.obj
 0001:0003b470       _GLee_Lazy_glColor4fNormal3fVertex3fSUN@40 0043c470 f   cinder:GLee.obj
 0001:0003b4d0       _GLee_Lazy_glColor4fNormal3fVertex3fvSUN@12 0043c4d0 f   cinder:GLee.obj
 0001:0003b500       _GLee_Lazy_glTexCoord2fVertex3fSUN@20 0043c500 f   cinder:GLee.obj
 0001:0003b540       _GLee_Lazy_glTexCoord2fVertex3fvSUN@8 0043c540 f   cinder:GLee.obj
 0001:0003b570       _GLee_Lazy_glTexCoord4fVertex4fSUN@32 0043c570 f   cinder:GLee.obj
 0001:0003b5d0       _GLee_Lazy_glTexCoord4fVertex4fvSUN@8 0043c5d0 f   cinder:GLee.obj
 0001:0003b600       _GLee_Lazy_glTexCoord2fColor4ubVertex3fSUN@36 0043c600 f   cinder:GLee.obj
 0001:0003b650       _GLee_Lazy_glTexCoord2fColor4ubVertex3fvSUN@12 0043c650 f   cinder:GLee.obj
 0001:0003b680       _GLee_Lazy_glTexCoord2fColor3fVertex3fSUN@32 0043c680 f   cinder:GLee.obj
 0001:0003b6e0       _GLee_Lazy_glTexCoord2fColor3fVertex3fvSUN@12 0043c6e0 f   cinder:GLee.obj
 0001:0003b710       _GLee_Lazy_glTexCoord2fNormal3fVertex3fSUN@32 0043c710 f   cinder:GLee.obj
 0001:0003b770       _GLee_Lazy_glTexCoord2fNormal3fVertex3fvSUN@12 0043c770 f   cinder:GLee.obj
 0001:0003b7a0       _GLee_Lazy_glTexCoord2fColor4fNormal3fVertex3fSUN@48 0043c7a0 f   cinder:GLee.obj
 0001:0003b810       _GLee_Lazy_glTexCoord2fColor4fNormal3fVertex3fvSUN@16 0043c810 f   cinder:GLee.obj
 0001:0003b840       _GLee_Lazy_glTexCoord4fColor4fNormal3fVertex4fSUN@60 0043c840 f   cinder:GLee.obj
 0001:0003b8d0       _GLee_Lazy_glTexCoord4fColor4fNormal3fVertex4fvSUN@16 0043c8d0 f   cinder:GLee.obj
 0001:0003b900       _GLee_Lazy_glReplacementCodeuiVertex3fSUN@16 0043c900 f   cinder:GLee.obj
 0001:0003b940       _GLee_Lazy_glReplacementCodeuiVertex3fvSUN@8 0043c940 f   cinder:GLee.obj
 0001:0003b970       _GLee_Lazy_glReplacementCodeuiColor4ubVertex3fSUN@32 0043c970 f   cinder:GLee.obj
 0001:0003b9c0       _GLee_Lazy_glReplacementCodeuiColor4ubVertex3fvSUN@12 0043c9c0 f   cinder:GLee.obj
 0001:0003b9f0       _GLee_Lazy_glReplacementCodeuiColor3fVertex3fSUN@28 0043c9f0 f   cinder:GLee.obj
 0001:0003ba40       _GLee_Lazy_glReplacementCodeuiColor3fVertex3fvSUN@12 0043ca40 f   cinder:GLee.obj
 0001:0003ba70       _GLee_Lazy_glReplacementCodeuiNormal3fVertex3fSUN@28 0043ca70 f   cinder:GLee.obj
 0001:0003bac0       _GLee_Lazy_glReplacementCodeuiNormal3fVertex3fvSUN@12 0043cac0 f   cinder:GLee.obj
 0001:0003baf0       _GLee_Lazy_glReplacementCodeuiColor4fNormal3fVertex3fSUN@44 0043caf0 f   cinder:GLee.obj
 0001:0003bb60       _GLee_Lazy_glReplacementCodeuiColor4fNormal3fVertex3fvSUN@16 0043cb60 f   cinder:GLee.obj
 0001:0003bb90       _GLee_Lazy_glReplacementCodeuiTexCoord2fVertex3fSUN@24 0043cb90 f   cinder:GLee.obj
 0001:0003bbd0       _GLee_Lazy_glReplacementCodeuiTexCoord2fVertex3fvSUN@12 0043cbd0 f   cinder:GLee.obj
 0001:0003bc00       _GLee_Lazy_glReplacementCodeuiTexCoord2fNormal3fVertex3fSUN@36 0043cc00 f   cinder:GLee.obj
 0001:0003bc60       _GLee_Lazy_glReplacementCodeuiTexCoord2fNormal3fVertex3fvSUN@16 0043cc60 f   cinder:GLee.obj
 0001:0003bc90       _GLee_Lazy_glReplacementCodeuiTexCoord2fColor4fNormal3fVertex3fSUN@52 0043cc90 f   cinder:GLee.obj
 0001:0003bd10       _GLee_Lazy_glReplacementCodeuiTexCoord2fColor4fNormal3fVertex3fvSUN@20 0043cd10 f   cinder:GLee.obj
 0001:0003bd40       _GLee_Lazy_glBlendFuncSeparateEXT@16 0043cd40 f   cinder:GLee.obj
 0001:0003bd70       _GLee_Lazy_glVertexWeightfEXT@4 0043cd70 f   cinder:GLee.obj
 0001:0003bd90       _GLee_Lazy_glVertexWeightfvEXT@4 0043cd90 f   cinder:GLee.obj
 0001:0003bdb0       _GLee_Lazy_glVertexWeightPointerEXT@16 0043cdb0 f   cinder:GLee.obj
 0001:0003bde0       _GLee_Lazy_glFlushVertexArrayRangeNV@0 0043cde0 f   cinder:GLee.obj
 0001:0003be00       _GLee_Lazy_glVertexArrayRangeNV@8 0043ce00 f   cinder:GLee.obj
 0001:0003be30       _GLee_Lazy_glCombinerParameterfvNV@8 0043ce30 f   cinder:GLee.obj
 0001:0003be60       _GLee_Lazy_glCombinerParameterfNV@8 0043ce60 f   cinder:GLee.obj
 0001:0003be90       _GLee_Lazy_glCombinerParameterivNV@8 0043ce90 f   cinder:GLee.obj
 0001:0003bec0       _GLee_Lazy_glCombinerParameteriNV@8 0043cec0 f   cinder:GLee.obj
 0001:0003bef0       _GLee_Lazy_glCombinerInputNV@24 0043cef0 f   cinder:GLee.obj
 0001:0003bf30       _GLee_Lazy_glCombinerOutputNV@40 0043cf30 f   cinder:GLee.obj
 0001:0003bf80       _GLee_Lazy_glFinalCombinerInputNV@16 0043cf80 f   cinder:GLee.obj
 0001:0003bfb0       _GLee_Lazy_glGetCombinerInputParameterfvNV@20 0043cfb0 f   cinder:GLee.obj
 0001:0003bfe0       _GLee_Lazy_glGetCombinerInputParameterivNV@20 0043cfe0 f   cinder:GLee.obj
 0001:0003c010       _GLee_Lazy_glGetCombinerOutputParameterfvNV@16 0043d010 f   cinder:GLee.obj
 0001:0003c040       _GLee_Lazy_glGetCombinerOutputParameterivNV@16 0043d040 f   cinder:GLee.obj
 0001:0003c070       _GLee_Lazy_glGetFinalCombinerInputParameterfvNV@12 0043d070 f   cinder:GLee.obj
 0001:0003c0a0       _GLee_Lazy_glGetFinalCombinerInputParameterivNV@12 0043d0a0 f   cinder:GLee.obj
 0001:0003c0d0       _GLee_Lazy_glResizeBuffersMESA@0 0043d0d0 f   cinder:GLee.obj
 0001:0003c0f0       _GLee_Lazy_glWindowPos2dMESA@16 0043d0f0 f   cinder:GLee.obj
 0001:0003c120       _GLee_Lazy_glWindowPos2dvMESA@4 0043d120 f   cinder:GLee.obj
 0001:0003c140       _GLee_Lazy_glWindowPos2fMESA@8 0043d140 f   cinder:GLee.obj
 0001:0003c170       _GLee_Lazy_glWindowPos2fvMESA@4 0043d170 f   cinder:GLee.obj
 0001:0003c190       _GLee_Lazy_glWindowPos2iMESA@8 0043d190 f   cinder:GLee.obj
 0001:0003c1c0       _GLee_Lazy_glWindowPos2ivMESA@4 0043d1c0 f   cinder:GLee.obj
 0001:0003c1e0       _GLee_Lazy_glWindowPos2sMESA@8 0043d1e0 f   cinder:GLee.obj
 0001:0003c210       _GLee_Lazy_glWindowPos2svMESA@4 0043d210 f   cinder:GLee.obj
 0001:0003c230       _GLee_Lazy_glWindowPos3dMESA@24 0043d230 f   cinder:GLee.obj
 0001:0003c270       _GLee_Lazy_glWindowPos3dvMESA@4 0043d270 f   cinder:GLee.obj
 0001:0003c290       _GLee_Lazy_glWindowPos3fMESA@12 0043d290 f   cinder:GLee.obj
 0001:0003c2c0       _GLee_Lazy_glWindowPos3fvMESA@4 0043d2c0 f   cinder:GLee.obj
 0001:0003c2e0       _GLee_Lazy_glWindowPos3iMESA@12 0043d2e0 f   cinder:GLee.obj
 0001:0003c310       _GLee_Lazy_glWindowPos3ivMESA@4 0043d310 f   cinder:GLee.obj
 0001:0003c330       _GLee_Lazy_glWindowPos3sMESA@12 0043d330 f   cinder:GLee.obj
 0001:0003c360       _GLee_Lazy_glWindowPos3svMESA@4 0043d360 f   cinder:GLee.obj
 0001:0003c380       _GLee_Lazy_glWindowPos4dMESA@32 0043d380 f   cinder:GLee.obj
 0001:0003c3c0       _GLee_Lazy_glWindowPos4dvMESA@4 0043d3c0 f   cinder:GLee.obj
 0001:0003c3e0       _GLee_Lazy_glWindowPos4fMESA@16 0043d3e0 f   cinder:GLee.obj
 0001:0003c420       _GLee_Lazy_glWindowPos4fvMESA@4 0043d420 f   cinder:GLee.obj
 0001:0003c440       _GLee_Lazy_glWindowPos4iMESA@16 0043d440 f   cinder:GLee.obj
 0001:0003c470       _GLee_Lazy_glWindowPos4ivMESA@4 0043d470 f   cinder:GLee.obj
 0001:0003c490       _GLee_Lazy_glWindowPos4sMESA@16 0043d490 f   cinder:GLee.obj
 0001:0003c4c0       _GLee_Lazy_glWindowPos4svMESA@4 0043d4c0 f   cinder:GLee.obj
 0001:0003c4e0       _GLee_Lazy_glMultiModeDrawArraysIBM@20 0043d4e0 f   cinder:GLee.obj
 0001:0003c510       _GLee_Lazy_glMultiModeDrawElementsIBM@24 0043d510 f   cinder:GLee.obj
 0001:0003c550       _GLee_Lazy_glColorPointerListIBM@20 0043d550 f   cinder:GLee.obj
 0001:0003c580       _GLee_Lazy_glSecondaryColorPointerListIBM@20 0043d580 f   cinder:GLee.obj
 0001:0003c5b0       _GLee_Lazy_glEdgeFlagPointerListIBM@12 0043d5b0 f   cinder:GLee.obj
 0001:0003c5e0       _GLee_Lazy_glFogCoordPointerListIBM@16 0043d5e0 f   cinder:GLee.obj
 0001:0003c610       _GLee_Lazy_glIndexPointerListIBM@16 0043d610 f   cinder:GLee.obj
 0001:0003c640       _GLee_Lazy_glNormalPointerListIBM@16 0043d640 f   cinder:GLee.obj
 0001:0003c670       _GLee_Lazy_glTexCoordPointerListIBM@20 0043d670 f   cinder:GLee.obj
 0001:0003c6a0       _GLee_Lazy_glVertexPointerListIBM@20 0043d6a0 f   cinder:GLee.obj
 0001:0003c6d0       _GLee_Lazy_glTbufferMask3DFX@4 0043d6d0 f   cinder:GLee.obj
 0001:0003c6f0       _GLee_Lazy_glSampleMaskEXT@8 0043d6f0 f   cinder:GLee.obj
 0001:0003c720       _GLee_Lazy_glSamplePatternEXT@4 0043d720 f   cinder:GLee.obj
 0001:0003c740       _GLee_Lazy_glTextureColorMaskSGIS@16 0043d740 f   cinder:GLee.obj
 0001:0003c770       _GLee_Lazy_glDeleteFencesNV@8 0043d770 f   cinder:GLee.obj
 0001:0003c7a0       _GLee_Lazy_glGenFencesNV@8 0043d7a0 f   cinder:GLee.obj
 0001:0003c7d0       _GLee_Lazy_glIsFenceNV@4   0043d7d0 f   cinder:GLee.obj
 0001:0003c800       _GLee_Lazy_glTestFenceNV@4 0043d800 f   cinder:GLee.obj
 0001:0003c830       _GLee_Lazy_glGetFenceivNV@12 0043d830 f   cinder:GLee.obj
 0001:0003c860       _GLee_Lazy_glFinishFenceNV@4 0043d860 f   cinder:GLee.obj
 0001:0003c880       _GLee_Lazy_glSetFenceNV@8  0043d880 f   cinder:GLee.obj
 0001:0003c8b0       _GLee_Lazy_glMapControlPointsNV@36 0043d8b0 f   cinder:GLee.obj
 0001:0003c8f0       _GLee_Lazy_glMapParameterivNV@12 0043d8f0 f   cinder:GLee.obj
 0001:0003c920       _GLee_Lazy_glMapParameterfvNV@12 0043d920 f   cinder:GLee.obj
 0001:0003c950       _GLee_Lazy_glGetMapControlPointsNV@28 0043d950 f   cinder:GLee.obj
 0001:0003c990       _GLee_Lazy_glGetMapParameterivNV@12 0043d990 f   cinder:GLee.obj
 0001:0003c9c0       _GLee_Lazy_glGetMapParameterfvNV@12 0043d9c0 f   cinder:GLee.obj
 0001:0003c9f0       _GLee_Lazy_glGetMapAttribParameterivNV@16 0043d9f0 f   cinder:GLee.obj
 0001:0003ca20       _GLee_Lazy_glGetMapAttribParameterfvNV@16 0043da20 f   cinder:GLee.obj
 0001:0003ca50       _GLee_Lazy_glEvalMapsNV@8  0043da50 f   cinder:GLee.obj
 0001:0003ca80       _GLee_Lazy_glCombinerStageParameterfvNV@12 0043da80 f   cinder:GLee.obj
 0001:0003cab0       _GLee_Lazy_glGetCombinerStageParameterfvNV@12 0043dab0 f   cinder:GLee.obj
 0001:0003cae0       _GLee_Lazy_glAreProgramsResidentNV@12 0043dae0 f   cinder:GLee.obj
 0001:0003cb10       _GLee_Lazy_glBindProgramNV@8 0043db10 f   cinder:GLee.obj
 0001:0003cb40       _GLee_Lazy_glDeleteProgramsNV@8 0043db40 f   cinder:GLee.obj
 0001:0003cb70       _GLee_Lazy_glExecuteProgramNV@12 0043db70 f   cinder:GLee.obj
 0001:0003cba0       _GLee_Lazy_glGenProgramsNV@8 0043dba0 f   cinder:GLee.obj
 0001:0003cbd0       _GLee_Lazy_glGetProgramParameterdvNV@16 0043dbd0 f   cinder:GLee.obj
 0001:0003cc00       _GLee_Lazy_glGetProgramParameterfvNV@16 0043dc00 f   cinder:GLee.obj
 0001:0003cc30       _GLee_Lazy_glGetProgramivNV@12 0043dc30 f   cinder:GLee.obj
 0001:0003cc60       _GLee_Lazy_glGetProgramStringNV@12 0043dc60 f   cinder:GLee.obj
 0001:0003cc90       _GLee_Lazy_glGetTrackMatrixivNV@16 0043dc90 f   cinder:GLee.obj
 0001:0003ccc0       _GLee_Lazy_glGetVertexAttribdvNV@12 0043dcc0 f   cinder:GLee.obj
 0001:0003ccf0       _GLee_Lazy_glGetVertexAttribfvNV@12 0043dcf0 f   cinder:GLee.obj
 0001:0003cd20       _GLee_Lazy_glGetVertexAttribivNV@12 0043dd20 f   cinder:GLee.obj
 0001:0003cd50       _GLee_Lazy_glGetVertexAttribPointervNV@12 0043dd50 f   cinder:GLee.obj
 0001:0003cd80       _GLee_Lazy_glIsProgramNV@4 0043dd80 f   cinder:GLee.obj
 0001:0003cdb0       _GLee_Lazy_glLoadProgramNV@16 0043ddb0 f   cinder:GLee.obj
 0001:0003cde0       _GLee_Lazy_glProgramParameter4dNV@40 0043dde0 f   cinder:GLee.obj
 0001:0003ce30       _GLee_Lazy_glProgramParameter4dvNV@12 0043de30 f   cinder:GLee.obj
 0001:0003ce60       _GLee_Lazy_glProgramParameter4fNV@24 0043de60 f   cinder:GLee.obj
 0001:0003cea0       _GLee_Lazy_glProgramParameter4fvNV@12 0043dea0 f   cinder:GLee.obj
 0001:0003ced0       _GLee_Lazy_glProgramParameters4dvNV@16 0043ded0 f   cinder:GLee.obj
 0001:0003cf00       _GLee_Lazy_glProgramParameters4fvNV@16 0043df00 f   cinder:GLee.obj
 0001:0003cf30       _GLee_Lazy_glRequestResidentProgramsNV@8 0043df30 f   cinder:GLee.obj
 0001:0003cf60       _GLee_Lazy_glTrackMatrixNV@16 0043df60 f   cinder:GLee.obj
 0001:0003cf90       _GLee_Lazy_glVertexAttribPointerNV@20 0043df90 f   cinder:GLee.obj
 0001:0003cfc0       _GLee_Lazy_glVertexAttrib1dNV@12 0043dfc0 f   cinder:GLee.obj
 0001:0003cff0       _GLee_Lazy_glVertexAttrib1dvNV@8 0043dff0 f   cinder:GLee.obj
 0001:0003d020       _GLee_Lazy_glVertexAttrib1fNV@8 0043e020 f   cinder:GLee.obj
 0001:0003d050       _GLee_Lazy_glVertexAttrib1fvNV@8 0043e050 f   cinder:GLee.obj
 0001:0003d080       _GLee_Lazy_glVertexAttrib1sNV@8 0043e080 f   cinder:GLee.obj
 0001:0003d0b0       _GLee_Lazy_glVertexAttrib1svNV@8 0043e0b0 f   cinder:GLee.obj
 0001:0003d0e0       _GLee_Lazy_glVertexAttrib2dNV@20 0043e0e0 f   cinder:GLee.obj
 0001:0003d110       _GLee_Lazy_glVertexAttrib2dvNV@8 0043e110 f   cinder:GLee.obj
 0001:0003d140       _GLee_Lazy_glVertexAttrib2fNV@12 0043e140 f   cinder:GLee.obj
 0001:0003d170       _GLee_Lazy_glVertexAttrib2fvNV@8 0043e170 f   cinder:GLee.obj
 0001:0003d1a0       _GLee_Lazy_glVertexAttrib2sNV@12 0043e1a0 f   cinder:GLee.obj
 0001:0003d1d0       _GLee_Lazy_glVertexAttrib2svNV@8 0043e1d0 f   cinder:GLee.obj
 0001:0003d200       _GLee_Lazy_glVertexAttrib3dNV@28 0043e200 f   cinder:GLee.obj
 0001:0003d240       _GLee_Lazy_glVertexAttrib3dvNV@8 0043e240 f   cinder:GLee.obj
 0001:0003d270       _GLee_Lazy_glVertexAttrib3fNV@16 0043e270 f   cinder:GLee.obj
 0001:0003d2b0       _GLee_Lazy_glVertexAttrib3fvNV@8 0043e2b0 f   cinder:GLee.obj
 0001:0003d2e0       _GLee_Lazy_glVertexAttrib3sNV@16 0043e2e0 f   cinder:GLee.obj
 0001:0003d310       _GLee_Lazy_glVertexAttrib3svNV@8 0043e310 f   cinder:GLee.obj
 0001:0003d340       _GLee_Lazy_glVertexAttrib4dNV@36 0043e340 f   cinder:GLee.obj
 0001:0003d390       _GLee_Lazy_glVertexAttrib4dvNV@8 0043e390 f   cinder:GLee.obj
 0001:0003d3c0       _GLee_Lazy_glVertexAttrib4fNV@20 0043e3c0 f   cinder:GLee.obj
 0001:0003d400       _GLee_Lazy_glVertexAttrib4fvNV@8 0043e400 f   cinder:GLee.obj
 0001:0003d430       _GLee_Lazy_glVertexAttrib4sNV@20 0043e430 f   cinder:GLee.obj
 0001:0003d470       _GLee_Lazy_glVertexAttrib4svNV@8 0043e470 f   cinder:GLee.obj
 0001:0003d4a0       _GLee_Lazy_glVertexAttrib4ubNV@20 0043e4a0 f   cinder:GLee.obj
 0001:0003d4e0       _GLee_Lazy_glVertexAttrib4ubvNV@8 0043e4e0 f   cinder:GLee.obj
 0001:0003d510       _GLee_Lazy_glVertexAttribs1dvNV@12 0043e510 f   cinder:GLee.obj
 0001:0003d540       _GLee_Lazy_glVertexAttribs1fvNV@12 0043e540 f   cinder:GLee.obj
 0001:0003d570       _GLee_Lazy_glVertexAttribs1svNV@12 0043e570 f   cinder:GLee.obj
 0001:0003d5a0       _GLee_Lazy_glVertexAttribs2dvNV@12 0043e5a0 f   cinder:GLee.obj
 0001:0003d5d0       _GLee_Lazy_glVertexAttribs2fvNV@12 0043e5d0 f   cinder:GLee.obj
 0001:0003d600       _GLee_Lazy_glVertexAttribs2svNV@12 0043e600 f   cinder:GLee.obj
 0001:0003d630       _GLee_Lazy_glVertexAttribs3dvNV@12 0043e630 f   cinder:GLee.obj
 0001:0003d660       _GLee_Lazy_glVertexAttribs3fvNV@12 0043e660 f   cinder:GLee.obj
 0001:0003d690       _GLee_Lazy_glVertexAttribs3svNV@12 0043e690 f   cinder:GLee.obj
 0001:0003d6c0       _GLee_Lazy_glVertexAttribs4dvNV@12 0043e6c0 f   cinder:GLee.obj
 0001:0003d6f0       _GLee_Lazy_glVertexAttribs4fvNV@12 0043e6f0 f   cinder:GLee.obj
 0001:0003d720       _GLee_Lazy_glVertexAttribs4svNV@12 0043e720 f   cinder:GLee.obj
 0001:0003d750       _GLee_Lazy_glVertexAttribs4ubvNV@12 0043e750 f   cinder:GLee.obj
 0001:0003d780       _GLee_Lazy_glTexBumpParameterivATI@8 0043e780 f   cinder:GLee.obj
 0001:0003d7b0       _GLee_Lazy_glTexBumpParameterfvATI@8 0043e7b0 f   cinder:GLee.obj
 0001:0003d7e0       _GLee_Lazy_glGetTexBumpParameterivATI@8 0043e7e0 f   cinder:GLee.obj
 0001:0003d810       _GLee_Lazy_glGetTexBumpParameterfvATI@8 0043e810 f   cinder:GLee.obj
 0001:0003d840       _GLee_Lazy_glGenFragmentShadersATI@4 0043e840 f   cinder:GLee.obj
 0001:0003d870       _GLee_Lazy_glBindFragmentShaderATI@4 0043e870 f   cinder:GLee.obj
 0001:0003d890       _GLee_Lazy_glDeleteFragmentShaderATI@4 0043e890 f   cinder:GLee.obj
 0001:0003d8b0       _GLee_Lazy_glBeginFragmentShaderATI@0 0043e8b0 f   cinder:GLee.obj
 0001:0003d8d0       _GLee_Lazy_glEndFragmentShaderATI@0 0043e8d0 f   cinder:GLee.obj
 0001:0003d8f0       _GLee_Lazy_glPassTexCoordATI@12 0043e8f0 f   cinder:GLee.obj
 0001:0003d920       _GLee_Lazy_glSampleMapATI@12 0043e920 f   cinder:GLee.obj
 0001:0003d950       _GLee_Lazy_glColorFragmentOp1ATI@28 0043e950 f   cinder:GLee.obj
 0001:0003d990       _GLee_Lazy_glColorFragmentOp2ATI@40 0043e990 f   cinder:GLee.obj
 0001:0003d9e0       _GLee_Lazy_glColorFragmentOp3ATI@52 0043e9e0 f   cinder:GLee.obj
 0001:0003da30       _GLee_Lazy_glAlphaFragmentOp1ATI@24 0043ea30 f   cinder:GLee.obj
 0001:0003da70       _GLee_Lazy_glAlphaFragmentOp2ATI@36 0043ea70 f   cinder:GLee.obj
 0001:0003dab0       _GLee_Lazy_glAlphaFragmentOp3ATI@48 0043eab0 f   cinder:GLee.obj
 0001:0003db00       _GLee_Lazy_glSetFragmentShaderConstantATI@8 0043eb00 f   cinder:GLee.obj
 0001:0003db30       _GLee_Lazy_glPNTrianglesiATI@8 0043eb30 f   cinder:GLee.obj
 0001:0003db60       _GLee_Lazy_glPNTrianglesfATI@8 0043eb60 f   cinder:GLee.obj
 0001:0003db90       _GLee_Lazy_glNewObjectBufferATI@12 0043eb90 f   cinder:GLee.obj
 0001:0003dbc0       _GLee_Lazy_glIsObjectBufferATI@4 0043ebc0 f   cinder:GLee.obj
 0001:0003dbf0       _GLee_Lazy_glUpdateObjectBufferATI@20 0043ebf0 f   cinder:GLee.obj
 0001:0003dc20       _GLee_Lazy_glGetObjectBufferfvATI@12 0043ec20 f   cinder:GLee.obj
 0001:0003dc50       _GLee_Lazy_glGetObjectBufferivATI@12 0043ec50 f   cinder:GLee.obj
 0001:0003dc80       _GLee_Lazy_glFreeObjectBufferATI@4 0043ec80 f   cinder:GLee.obj
 0001:0003dca0       _GLee_Lazy_glArrayObjectATI@24 0043eca0 f   cinder:GLee.obj
 0001:0003dce0       _GLee_Lazy_glGetArrayObjectfvATI@12 0043ece0 f   cinder:GLee.obj
 0001:0003dd10       _GLee_Lazy_glGetArrayObjectivATI@12 0043ed10 f   cinder:GLee.obj
 0001:0003dd40       _GLee_Lazy_glVariantArrayObjectATI@20 0043ed40 f   cinder:GLee.obj
 0001:0003dd70       _GLee_Lazy_glGetVariantArrayObjectfvATI@12 0043ed70 f   cinder:GLee.obj
 0001:0003dda0       _GLee_Lazy_glGetVariantArrayObjectivATI@12 0043eda0 f   cinder:GLee.obj
 0001:0003ddd0       _GLee_Lazy_glBeginVertexShaderEXT@0 0043edd0 f   cinder:GLee.obj
 0001:0003ddf0       _GLee_Lazy_glEndVertexShaderEXT@0 0043edf0 f   cinder:GLee.obj
 0001:0003de10       _GLee_Lazy_glBindVertexShaderEXT@4 0043ee10 f   cinder:GLee.obj
 0001:0003de30       _GLee_Lazy_glGenVertexShadersEXT@4 0043ee30 f   cinder:GLee.obj
 0001:0003de60       _GLee_Lazy_glDeleteVertexShaderEXT@4 0043ee60 f   cinder:GLee.obj
 0001:0003de80       _GLee_Lazy_glShaderOp1EXT@12 0043ee80 f   cinder:GLee.obj
 0001:0003deb0       _GLee_Lazy_glShaderOp2EXT@16 0043eeb0 f   cinder:GLee.obj
 0001:0003dee0       _GLee_Lazy_glShaderOp3EXT@20 0043eee0 f   cinder:GLee.obj
 0001:0003df10       _GLee_Lazy_glSwizzleEXT@24 0043ef10 f   cinder:GLee.obj
 0001:0003df50       _GLee_Lazy_glWriteMaskEXT@24 0043ef50 f   cinder:GLee.obj
 0001:0003df90       _GLee_Lazy_glInsertComponentEXT@12 0043ef90 f   cinder:GLee.obj
 0001:0003dfc0       _GLee_Lazy_glExtractComponentEXT@12 0043efc0 f   cinder:GLee.obj
 0001:0003dff0       _GLee_Lazy_glGenSymbolsEXT@16 0043eff0 f   cinder:GLee.obj
 0001:0003e020       _GLee_Lazy_glSetInvariantEXT@12 0043f020 f   cinder:GLee.obj
 0001:0003e050       _GLee_Lazy_glSetLocalConstantEXT@12 0043f050 f   cinder:GLee.obj
 0001:0003e080       _GLee_Lazy_glVariantbvEXT@8 0043f080 f   cinder:GLee.obj
 0001:0003e0b0       _GLee_Lazy_glVariantsvEXT@8 0043f0b0 f   cinder:GLee.obj
 0001:0003e0e0       _GLee_Lazy_glVariantivEXT@8 0043f0e0 f   cinder:GLee.obj
 0001:0003e110       _GLee_Lazy_glVariantfvEXT@8 0043f110 f   cinder:GLee.obj
 0001:0003e140       _GLee_Lazy_glVariantdvEXT@8 0043f140 f   cinder:GLee.obj
 0001:0003e170       _GLee_Lazy_glVariantubvEXT@8 0043f170 f   cinder:GLee.obj
 0001:0003e1a0       _GLee_Lazy_glVariantusvEXT@8 0043f1a0 f   cinder:GLee.obj
 0001:0003e1d0       _GLee_Lazy_glVariantuivEXT@8 0043f1d0 f   cinder:GLee.obj
 0001:0003e200       _GLee_Lazy_glVariantPointerEXT@16 0043f200 f   cinder:GLee.obj
 0001:0003e230       _GLee_Lazy_glEnableVariantClientStateEXT@4 0043f230 f   cinder:GLee.obj
 0001:0003e250       _GLee_Lazy_glDisableVariantClientStateEXT@4 0043f250 f   cinder:GLee.obj
 0001:0003e270       _GLee_Lazy_glBindLightParameterEXT@8 0043f270 f   cinder:GLee.obj
 0001:0003e2a0       _GLee_Lazy_glBindMaterialParameterEXT@8 0043f2a0 f   cinder:GLee.obj
 0001:0003e2d0       _GLee_Lazy_glBindTexGenParameterEXT@12 0043f2d0 f   cinder:GLee.obj
 0001:0003e300       _GLee_Lazy_glBindTextureUnitParameterEXT@8 0043f300 f   cinder:GLee.obj
 0001:0003e330       _GLee_Lazy_glBindParameterEXT@4 0043f330 f   cinder:GLee.obj
 0001:0003e360       _GLee_Lazy_glIsVariantEnabledEXT@8 0043f360 f   cinder:GLee.obj
 0001:0003e390       _GLee_Lazy_glGetVariantBooleanvEXT@12 0043f390 f   cinder:GLee.obj
 0001:0003e3c0       _GLee_Lazy_glGetVariantIntegervEXT@12 0043f3c0 f   cinder:GLee.obj
 0001:0003e3f0       _GLee_Lazy_glGetVariantFloatvEXT@12 0043f3f0 f   cinder:GLee.obj
 0001:0003e420       _GLee_Lazy_glGetVariantPointervEXT@12 0043f420 f   cinder:GLee.obj
 0001:0003e450       _GLee_Lazy_glGetInvariantBooleanvEXT@12 0043f450 f   cinder:GLee.obj
 0001:0003e480       _GLee_Lazy_glGetInvariantIntegervEXT@12 0043f480 f   cinder:GLee.obj
 0001:0003e4b0       _GLee_Lazy_glGetInvariantFloatvEXT@12 0043f4b0 f   cinder:GLee.obj
 0001:0003e4e0       _GLee_Lazy_glGetLocalConstantBooleanvEXT@12 0043f4e0 f   cinder:GLee.obj
 0001:0003e510       _GLee_Lazy_glGetLocalConstantIntegervEXT@12 0043f510 f   cinder:GLee.obj
 0001:0003e540       _GLee_Lazy_glGetLocalConstantFloatvEXT@12 0043f540 f   cinder:GLee.obj
 0001:0003e570       _GLee_Lazy_glVertexStream1sATI@8 0043f570 f   cinder:GLee.obj
 0001:0003e5a0       _GLee_Lazy_glVertexStream1svATI@8 0043f5a0 f   cinder:GLee.obj
 0001:0003e5d0       _GLee_Lazy_glVertexStream1iATI@8 0043f5d0 f   cinder:GLee.obj
 0001:0003e600       _GLee_Lazy_glVertexStream1ivATI@8 0043f600 f   cinder:GLee.obj
 0001:0003e630       _GLee_Lazy_glVertexStream1fATI@8 0043f630 f   cinder:GLee.obj
 0001:0003e660       _GLee_Lazy_glVertexStream1fvATI@8 0043f660 f   cinder:GLee.obj
 0001:0003e690       _GLee_Lazy_glVertexStream1dATI@12 0043f690 f   cinder:GLee.obj
 0001:0003e6c0       _GLee_Lazy_glVertexStream1dvATI@8 0043f6c0 f   cinder:GLee.obj
 0001:0003e6f0       _GLee_Lazy_glVertexStream2sATI@12 0043f6f0 f   cinder:GLee.obj
 0001:0003e720       _GLee_Lazy_glVertexStream2svATI@8 0043f720 f   cinder:GLee.obj
 0001:0003e750       _GLee_Lazy_glVertexStream2iATI@12 0043f750 f   cinder:GLee.obj
 0001:0003e780       _GLee_Lazy_glVertexStream2ivATI@8 0043f780 f   cinder:GLee.obj
 0001:0003e7b0       _GLee_Lazy_glVertexStream2fATI@12 0043f7b0 f   cinder:GLee.obj
 0001:0003e7e0       _GLee_Lazy_glVertexStream2fvATI@8 0043f7e0 f   cinder:GLee.obj
 0001:0003e810       _GLee_Lazy_glVertexStream2dATI@20 0043f810 f   cinder:GLee.obj
 0001:0003e840       _GLee_Lazy_glVertexStream2dvATI@8 0043f840 f   cinder:GLee.obj
 0001:0003e870       _GLee_Lazy_glVertexStream3sATI@16 0043f870 f   cinder:GLee.obj
 0001:0003e8a0       _GLee_Lazy_glVertexStream3svATI@8 0043f8a0 f   cinder:GLee.obj
 0001:0003e8d0       _GLee_Lazy_glVertexStream3iATI@16 0043f8d0 f   cinder:GLee.obj
 0001:0003e900       _GLee_Lazy_glVertexStream3ivATI@8 0043f900 f   cinder:GLee.obj
 0001:0003e930       _GLee_Lazy_glVertexStream3fATI@16 0043f930 f   cinder:GLee.obj
 0001:0003e970       _GLee_Lazy_glVertexStream3fvATI@8 0043f970 f   cinder:GLee.obj
 0001:0003e9a0       _GLee_Lazy_glVertexStream3dATI@28 0043f9a0 f   cinder:GLee.obj
 0001:0003e9e0       _GLee_Lazy_glVertexStream3dvATI@8 0043f9e0 f   cinder:GLee.obj
 0001:0003ea10       _GLee_Lazy_glVertexStream4sATI@20 0043fa10 f   cinder:GLee.obj
 0001:0003ea50       _GLee_Lazy_glVertexStream4svATI@8 0043fa50 f   cinder:GLee.obj
 0001:0003ea80       _GLee_Lazy_glVertexStream4iATI@20 0043fa80 f   cinder:GLee.obj
 0001:0003eab0       _GLee_Lazy_glVertexStream4ivATI@8 0043fab0 f   cinder:GLee.obj
 0001:0003eae0       _GLee_Lazy_glVertexStream4fATI@20 0043fae0 f   cinder:GLee.obj
 0001:0003eb20       _GLee_Lazy_glVertexStream4fvATI@8 0043fb20 f   cinder:GLee.obj
 0001:0003eb50       _GLee_Lazy_glVertexStream4dATI@36 0043fb50 f   cinder:GLee.obj
 0001:0003eba0       _GLee_Lazy_glVertexStream4dvATI@8 0043fba0 f   cinder:GLee.obj
 0001:0003ebd0       _GLee_Lazy_glNormalStream3bATI@16 0043fbd0 f   cinder:GLee.obj
 0001:0003ec00       _GLee_Lazy_glNormalStream3bvATI@8 0043fc00 f   cinder:GLee.obj
 0001:0003ec30       _GLee_Lazy_glNormalStream3sATI@16 0043fc30 f   cinder:GLee.obj
 0001:0003ec60       _GLee_Lazy_glNormalStream3svATI@8 0043fc60 f   cinder:GLee.obj
 0001:0003ec90       _GLee_Lazy_glNormalStream3iATI@16 0043fc90 f   cinder:GLee.obj
 0001:0003ecc0       _GLee_Lazy_glNormalStream3ivATI@8 0043fcc0 f   cinder:GLee.obj
 0001:0003ecf0       _GLee_Lazy_glNormalStream3fATI@16 0043fcf0 f   cinder:GLee.obj
 0001:0003ed30       _GLee_Lazy_glNormalStream3fvATI@8 0043fd30 f   cinder:GLee.obj
 0001:0003ed60       _GLee_Lazy_glNormalStream3dATI@28 0043fd60 f   cinder:GLee.obj
 0001:0003eda0       _GLee_Lazy_glNormalStream3dvATI@8 0043fda0 f   cinder:GLee.obj
 0001:0003edd0       _GLee_Lazy_glClientActiveVertexStreamATI@4 0043fdd0 f   cinder:GLee.obj
 0001:0003edf0       _GLee_Lazy_glVertexBlendEnviATI@8 0043fdf0 f   cinder:GLee.obj
 0001:0003ee20       _GLee_Lazy_glVertexBlendEnvfATI@8 0043fe20 f   cinder:GLee.obj
 0001:0003ee50       _GLee_Lazy_glElementPointerATI@8 0043fe50 f   cinder:GLee.obj
 0001:0003ee80       _GLee_Lazy_glDrawElementArrayATI@8 0043fe80 f   cinder:GLee.obj
 0001:0003eeb0       _GLee_Lazy_glDrawRangeElementArrayATI@16 0043feb0 f   cinder:GLee.obj
 0001:0003eee0       _GLee_Lazy_glDrawMeshArraysSUN@16 0043fee0 f   cinder:GLee.obj
 0001:0003ef10       _GLee_Lazy_glGenOcclusionQueriesNV@8 0043ff10 f   cinder:GLee.obj
 0001:0003ef40       _GLee_Lazy_glDeleteOcclusionQueriesNV@8 0043ff40 f   cinder:GLee.obj
 0001:0003ef70       _GLee_Lazy_glIsOcclusionQueryNV@4 0043ff70 f   cinder:GLee.obj
 0001:0003efa0       _GLee_Lazy_glBeginOcclusionQueryNV@4 0043ffa0 f   cinder:GLee.obj
 0001:0003efc0       _GLee_Lazy_glEndOcclusionQueryNV@0 0043ffc0 f   cinder:GLee.obj
 0001:0003efe0       _GLee_Lazy_glGetOcclusionQueryivNV@12 0043ffe0 f   cinder:GLee.obj
 0001:0003f010       _GLee_Lazy_glGetOcclusionQueryuivNV@12 00440010 f   cinder:GLee.obj
 0001:0003f040       _GLee_Lazy_glPointParameteriNV@8 00440040 f   cinder:GLee.obj
 0001:0003f070       _GLee_Lazy_glPointParameterivNV@8 00440070 f   cinder:GLee.obj
 0001:0003f0a0       _GLee_Lazy_glActiveStencilFaceEXT@4 004400a0 f   cinder:GLee.obj
 0001:0003f0c0       _GLee_Lazy_glElementPointerAPPLE@8 004400c0 f   cinder:GLee.obj
 0001:0003f0f0       _GLee_Lazy_glDrawElementArrayAPPLE@12 004400f0 f   cinder:GLee.obj
 0001:0003f120       _GLee_Lazy_glDrawRangeElementArrayAPPLE@20 00440120 f   cinder:GLee.obj
 0001:0003f150       _GLee_Lazy_glMultiDrawElementArrayAPPLE@16 00440150 f   cinder:GLee.obj
 0001:0003f180       _GLee_Lazy_glMultiDrawRangeElementArrayAPPLE@24 00440180 f   cinder:GLee.obj
 0001:0003f1c0       _GLee_Lazy_glGenFencesAPPLE@8 004401c0 f   cinder:GLee.obj
 0001:0003f1f0       _GLee_Lazy_glDeleteFencesAPPLE@8 004401f0 f   cinder:GLee.obj
 0001:0003f220       _GLee_Lazy_glSetFenceAPPLE@4 00440220 f   cinder:GLee.obj
 0001:0003f240       _GLee_Lazy_glIsFenceAPPLE@4 00440240 f   cinder:GLee.obj
 0001:0003f270       _GLee_Lazy_glTestFenceAPPLE@4 00440270 f   cinder:GLee.obj
 0001:0003f2a0       _GLee_Lazy_glFinishFenceAPPLE@4 004402a0 f   cinder:GLee.obj
 0001:0003f2c0       _GLee_Lazy_glTestObjectAPPLE@8 004402c0 f   cinder:GLee.obj
 0001:0003f2f0       _GLee_Lazy_glFinishObjectAPPLE@8 004402f0 f   cinder:GLee.obj
 0001:0003f320       _GLee_Lazy_glBindVertexArrayAPPLE@4 00440320 f   cinder:GLee.obj
 0001:0003f340       _GLee_Lazy_glDeleteVertexArraysAPPLE@8 00440340 f   cinder:GLee.obj
 0001:0003f370       _GLee_Lazy_glGenVertexArraysAPPLE@8 00440370 f   cinder:GLee.obj
 0001:0003f3a0       _GLee_Lazy_glIsVertexArrayAPPLE@4 004403a0 f   cinder:GLee.obj
 0001:0003f3d0       _GLee_Lazy_glVertexArrayRangeAPPLE@8 004403d0 f   cinder:GLee.obj
 0001:0003f400       _GLee_Lazy_glFlushVertexArrayRangeAPPLE@8 00440400 f   cinder:GLee.obj
 0001:0003f430       _GLee_Lazy_glVertexArrayParameteriAPPLE@8 00440430 f   cinder:GLee.obj
 0001:0003f460       _GLee_Lazy_glDrawBuffersATI@8 00440460 f   cinder:GLee.obj
 0001:0003f490       _GLee_Lazy_glProgramNamedParameter4fNV@28 00440490 f   cinder:GLee.obj
 0001:0003f4e0       _GLee_Lazy_glProgramNamedParameter4dNV@44 004404e0 f   cinder:GLee.obj
 0001:0003f530       _GLee_Lazy_glProgramNamedParameter4fvNV@16 00440530 f   cinder:GLee.obj
 0001:0003f560       _GLee_Lazy_glProgramNamedParameter4dvNV@16 00440560 f   cinder:GLee.obj
 0001:0003f590       _GLee_Lazy_glGetProgramNamedParameterfvNV@16 00440590 f   cinder:GLee.obj
 0001:0003f5c0       _GLee_Lazy_glGetProgramNamedParameterdvNV@16 004405c0 f   cinder:GLee.obj
 0001:0003f5f0       _GLee_Lazy_glVertex2hNV@8  004405f0 f   cinder:GLee.obj
 0001:0003f620       _GLee_Lazy_glVertex2hvNV@4 00440620 f   cinder:GLee.obj
 0001:0003f640       _GLee_Lazy_glVertex3hNV@12 00440640 f   cinder:GLee.obj
 0001:0003f670       _GLee_Lazy_glVertex3hvNV@4 00440670 f   cinder:GLee.obj
 0001:0003f690       _GLee_Lazy_glVertex4hNV@16 00440690 f   cinder:GLee.obj
 0001:0003f6c0       _GLee_Lazy_glVertex4hvNV@4 004406c0 f   cinder:GLee.obj
 0001:0003f6e0       _GLee_Lazy_glNormal3hNV@12 004406e0 f   cinder:GLee.obj
 0001:0003f710       _GLee_Lazy_glNormal3hvNV@4 00440710 f   cinder:GLee.obj
 0001:0003f730       _GLee_Lazy_glColor3hNV@12  00440730 f   cinder:GLee.obj
 0001:0003f760       _GLee_Lazy_glColor3hvNV@4  00440760 f   cinder:GLee.obj
 0001:0003f780       _GLee_Lazy_glColor4hNV@16  00440780 f   cinder:GLee.obj
 0001:0003f7b0       _GLee_Lazy_glColor4hvNV@4  004407b0 f   cinder:GLee.obj
 0001:0003f7d0       _GLee_Lazy_glTexCoord1hNV@4 004407d0 f   cinder:GLee.obj
 0001:0003f7f0       _GLee_Lazy_glTexCoord1hvNV@4 004407f0 f   cinder:GLee.obj
 0001:0003f810       _GLee_Lazy_glTexCoord2hNV@8 00440810 f   cinder:GLee.obj
 0001:0003f840       _GLee_Lazy_glTexCoord2hvNV@4 00440840 f   cinder:GLee.obj
 0001:0003f860       _GLee_Lazy_glTexCoord3hNV@12 00440860 f   cinder:GLee.obj
 0001:0003f890       _GLee_Lazy_glTexCoord3hvNV@4 00440890 f   cinder:GLee.obj
 0001:0003f8b0       _GLee_Lazy_glTexCoord4hNV@16 004408b0 f   cinder:GLee.obj
 0001:0003f8e0       _GLee_Lazy_glTexCoord4hvNV@4 004408e0 f   cinder:GLee.obj
 0001:0003f900       _GLee_Lazy_glMultiTexCoord1hNV@8 00440900 f   cinder:GLee.obj
 0001:0003f930       _GLee_Lazy_glMultiTexCoord1hvNV@8 00440930 f   cinder:GLee.obj
 0001:0003f960       _GLee_Lazy_glMultiTexCoord2hNV@12 00440960 f   cinder:GLee.obj
 0001:0003f990       _GLee_Lazy_glMultiTexCoord2hvNV@8 00440990 f   cinder:GLee.obj
 0001:0003f9c0       _GLee_Lazy_glMultiTexCoord3hNV@16 004409c0 f   cinder:GLee.obj
 0001:0003f9f0       _GLee_Lazy_glMultiTexCoord3hvNV@8 004409f0 f   cinder:GLee.obj
 0001:0003fa20       _GLee_Lazy_glMultiTexCoord4hNV@20 00440a20 f   cinder:GLee.obj
 0001:0003fa60       _GLee_Lazy_glMultiTexCoord4hvNV@8 00440a60 f   cinder:GLee.obj
 0001:0003fa90       _GLee_Lazy_glFogCoordhNV@4 00440a90 f   cinder:GLee.obj
 0001:0003fab0       _GLee_Lazy_glFogCoordhvNV@4 00440ab0 f   cinder:GLee.obj
 0001:0003fad0       _GLee_Lazy_glSecondaryColor3hNV@12 00440ad0 f   cinder:GLee.obj
 0001:0003fb00       _GLee_Lazy_glSecondaryColor3hvNV@4 00440b00 f   cinder:GLee.obj
 0001:0003fb20       _GLee_Lazy_glVertexWeighthNV@4 00440b20 f   cinder:GLee.obj
 0001:0003fb40       _GLee_Lazy_glVertexWeighthvNV@4 00440b40 f   cinder:GLee.obj
 0001:0003fb60       _GLee_Lazy_glVertexAttrib1hNV@8 00440b60 f   cinder:GLee.obj
 0001:0003fb90       _GLee_Lazy_glVertexAttrib1hvNV@8 00440b90 f   cinder:GLee.obj
 0001:0003fbc0       _GLee_Lazy_glVertexAttrib2hNV@12 00440bc0 f   cinder:GLee.obj
 0001:0003fbf0       _GLee_Lazy_glVertexAttrib2hvNV@8 00440bf0 f   cinder:GLee.obj
 0001:0003fc20       _GLee_Lazy_glVertexAttrib3hNV@16 00440c20 f   cinder:GLee.obj
 0001:0003fc50       _GLee_Lazy_glVertexAttrib3hvNV@8 00440c50 f   cinder:GLee.obj
 0001:0003fc80       _GLee_Lazy_glVertexAttrib4hNV@20 00440c80 f   cinder:GLee.obj
 0001:0003fcc0       _GLee_Lazy_glVertexAttrib4hvNV@8 00440cc0 f   cinder:GLee.obj
 0001:0003fcf0       _GLee_Lazy_glVertexAttribs1hvNV@12 00440cf0 f   cinder:GLee.obj
 0001:0003fd20       _GLee_Lazy_glVertexAttribs2hvNV@12 00440d20 f   cinder:GLee.obj
 0001:0003fd50       _GLee_Lazy_glVertexAttribs3hvNV@12 00440d50 f   cinder:GLee.obj
 0001:0003fd80       _GLee_Lazy_glVertexAttribs4hvNV@12 00440d80 f   cinder:GLee.obj
 0001:0003fdb0       _GLee_Lazy_glPixelDataRangeNV@12 00440db0 f   cinder:GLee.obj
 0001:0003fde0       _GLee_Lazy_glFlushPixelDataRangeNV@4 00440de0 f   cinder:GLee.obj
 0001:0003fe00       _GLee_Lazy_glPrimitiveRestartNV@0 00440e00 f   cinder:GLee.obj
 0001:0003fe20       _GLee_Lazy_glPrimitiveRestartIndexNV@4 00440e20 f   cinder:GLee.obj
 0001:0003fe40       _GLee_Lazy_glMapObjectBufferATI@4 00440e40 f   cinder:GLee.obj
 0001:0003fe70       _GLee_Lazy_glUnmapObjectBufferATI@4 00440e70 f   cinder:GLee.obj
 0001:0003fe90       _GLee_Lazy_glStencilOpSeparateATI@16 00440e90 f   cinder:GLee.obj
 0001:0003fec0       _GLee_Lazy_glStencilFuncSeparateATI@16 00440ec0 f   cinder:GLee.obj
 0001:0003fef0       _GLee_Lazy_glVertexAttribArrayObjectATI@28 00440ef0 f   cinder:GLee.obj
 0001:0003ff30       _GLee_Lazy_glGetVertexAttribArrayObjectfvATI@12 00440f30 f   cinder:GLee.obj
 0001:0003ff60       _GLee_Lazy_glGetVertexAttribArrayObjectivATI@12 00440f60 f   cinder:GLee.obj
 0001:0003ff90       _GLee_Lazy_glDepthBoundsEXT@16 00440f90 f   cinder:GLee.obj
 0001:0003ffc0       _GLee_Lazy_glBlendEquationSeparateEXT@8 00440fc0 f   cinder:GLee.obj
 0001:0003fff0       _GLee_Lazy_glIsRenderbufferEXT@4 00440ff0 f   cinder:GLee.obj
 0001:00040020       _GLee_Lazy_glBindRenderbufferEXT@8 00441020 f   cinder:GLee.obj
 0001:00040050       _GLee_Lazy_glDeleteRenderbuffersEXT@8 00441050 f   cinder:GLee.obj
 0001:00040080       _GLee_Lazy_glGenRenderbuffersEXT@8 00441080 f   cinder:GLee.obj
 0001:000400b0       _GLee_Lazy_glRenderbufferStorageEXT@16 004410b0 f   cinder:GLee.obj
 0001:000400e0       _GLee_Lazy_glGetRenderbufferParameterivEXT@12 004410e0 f   cinder:GLee.obj
 0001:00040110       _GLee_Lazy_glIsFramebufferEXT@4 00441110 f   cinder:GLee.obj
 0001:00040140       _GLee_Lazy_glBindFramebufferEXT@8 00441140 f   cinder:GLee.obj
 0001:00040170       _GLee_Lazy_glDeleteFramebuffersEXT@8 00441170 f   cinder:GLee.obj
 0001:000401a0       _GLee_Lazy_glGenFramebuffersEXT@8 004411a0 f   cinder:GLee.obj
 0001:000401d0       _GLee_Lazy_glCheckFramebufferStatusEXT@4 004411d0 f   cinder:GLee.obj
 0001:00040200       _GLee_Lazy_glFramebufferTexture1DEXT@20 00441200 f   cinder:GLee.obj
 0001:00040230       _GLee_Lazy_glFramebufferTexture2DEXT@20 00441230 f   cinder:GLee.obj
 0001:00040260       _GLee_Lazy_glFramebufferTexture3DEXT@24 00441260 f   cinder:GLee.obj
 0001:000402a0       _GLee_Lazy_glFramebufferRenderbufferEXT@16 004412a0 f   cinder:GLee.obj
 0001:000402d0       _GLee_Lazy_glGetFramebufferAttachmentParameterivEXT@16 004412d0 f   cinder:GLee.obj
 0001:00040300       _GLee_Lazy_glGenerateMipmapEXT@4 00441300 f   cinder:GLee.obj
 0001:00040320       _GLee_Lazy_glStringMarkerGREMEDY@8 00441320 f   cinder:GLee.obj
 0001:00040350       _GLee_Lazy_glStencilClearTagEXT@8 00441350 f   cinder:GLee.obj
 0001:00040380       _GLee_Lazy_glBlitFramebufferEXT@40 00441380 f   cinder:GLee.obj
 0001:000403d0       _GLee_Lazy_glRenderbufferStorageMultisampleEXT@20 004413d0 f   cinder:GLee.obj
 0001:00040400       _GLee_Lazy_glGetQueryObjecti64vEXT@12 00441400 f   cinder:GLee.obj
 0001:00040430       _GLee_Lazy_glGetQueryObjectui64vEXT@12 00441430 f   cinder:GLee.obj
 0001:00040460       _GLee_Lazy_glProgramEnvParameters4fvEXT@16 00441460 f   cinder:GLee.obj
 0001:00040490       _GLee_Lazy_glProgramLocalParameters4fvEXT@16 00441490 f   cinder:GLee.obj
 0001:000404c0       _GLee_Lazy_glBufferParameteriAPPLE@12 004414c0 f   cinder:GLee.obj
 0001:000404f0       _GLee_Lazy_glFlushMappedBufferRangeAPPLE@12 004414f0 f   cinder:GLee.obj
 0001:00040520       _GLee_Lazy_glGetUniformuivEXT@12 00441520 f   cinder:GLee.obj
 0001:00040550       _GLee_Lazy_glBindFragDataLocationEXT@12 00441550 f   cinder:GLee.obj
 0001:00040580       _GLee_Lazy_glGetFragDataLocationEXT@8 00441580 f   cinder:GLee.obj
 0001:000405b0       _GLee_Lazy_glUniform1uiEXT@8 004415b0 f   cinder:GLee.obj
 0001:000405e0       _GLee_Lazy_glUniform2uiEXT@12 004415e0 f   cinder:GLee.obj
 0001:00040610       _GLee_Lazy_glUniform3uiEXT@16 00441610 f   cinder:GLee.obj
 0001:00040640       _GLee_Lazy_glUniform4uiEXT@20 00441640 f   cinder:GLee.obj
 0001:00040670       _GLee_Lazy_glUniform1uivEXT@12 00441670 f   cinder:GLee.obj
 0001:000406a0       _GLee_Lazy_glUniform2uivEXT@12 004416a0 f   cinder:GLee.obj
 0001:000406d0       _GLee_Lazy_glUniform3uivEXT@12 004416d0 f   cinder:GLee.obj
 0001:00040700       _GLee_Lazy_glUniform4uivEXT@12 00441700 f   cinder:GLee.obj
 0001:00040730       _GLee_Lazy_glDrawArraysInstancedEXT@16 00441730 f   cinder:GLee.obj
 0001:00040760       _GLee_Lazy_glDrawElementsInstancedEXT@20 00441760 f   cinder:GLee.obj
 0001:00040790       _GLee_Lazy_glTexBufferEXT@12 00441790 f   cinder:GLee.obj
 0001:000407c0       _GLee_Lazy_glDepthRangedNV@16 004417c0 f   cinder:GLee.obj
 0001:000407f0       _GLee_Lazy_glClearDepthdNV@8 004417f0 f   cinder:GLee.obj
 0001:00040820       _GLee_Lazy_glDepthBoundsdNV@16 00441820 f   cinder:GLee.obj
 0001:00040850       _GLee_Lazy_glRenderbufferStorageMultisampleCoverageNV@24 00441850 f   cinder:GLee.obj
 0001:00040890       _GLee_Lazy_glProgramBufferParametersfvNV@20 00441890 f   cinder:GLee.obj
 0001:000408c0       _GLee_Lazy_glProgramBufferParametersIivNV@20 004418c0 f   cinder:GLee.obj
 0001:000408f0       _GLee_Lazy_glProgramBufferParametersIuivNV@20 004418f0 f   cinder:GLee.obj
 0001:00040920       _GLee_Lazy_glColorMaskIndexedEXT@20 00441920 f   cinder:GLee.obj
 0001:00040960       _GLee_Lazy_glGetBooleanIndexedvEXT@12 00441960 f   cinder:GLee.obj
 0001:00040990       _GLee_Lazy_glGetIntegerIndexedvEXT@12 00441990 f   cinder:GLee.obj
 0001:000409c0       _GLee_Lazy_glEnableIndexedEXT@8 004419c0 f   cinder:GLee.obj
 0001:000409f0       _GLee_Lazy_glDisableIndexedEXT@8 004419f0 f   cinder:GLee.obj
 0001:00040a20       _GLee_Lazy_glIsEnabledIndexedEXT@8 00441a20 f   cinder:GLee.obj
 0001:00040a50       _GLee_Lazy_glBeginTransformFeedbackNV@4 00441a50 f   cinder:GLee.obj
 0001:00040a70       _GLee_Lazy_glEndTransformFeedbackNV@0 00441a70 f   cinder:GLee.obj
 0001:00040a90       _GLee_Lazy_glTransformFeedbackAttribsNV@12 00441a90 f   cinder:GLee.obj
 0001:00040ac0       _GLee_Lazy_glBindBufferRangeNV@20 00441ac0 f   cinder:GLee.obj
 0001:00040af0       _GLee_Lazy_glBindBufferOffsetNV@16 00441af0 f   cinder:GLee.obj
 0001:00040b20       _GLee_Lazy_glBindBufferBaseNV@12 00441b20 f   cinder:GLee.obj
 0001:00040b50       _GLee_Lazy_glTransformFeedbackVaryingsNV@16 00441b50 f   cinder:GLee.obj
 0001:00040b80       _GLee_Lazy_glActiveVaryingNV@8 00441b80 f   cinder:GLee.obj
 0001:00040bb0       _GLee_Lazy_glGetVaryingLocationNV@8 00441bb0 f   cinder:GLee.obj
 0001:00040be0       _GLee_Lazy_glGetActiveVaryingNV@28 00441be0 f   cinder:GLee.obj
 0001:00040c20       _GLee_Lazy_glGetTransformFeedbackVaryingNV@12 00441c20 f   cinder:GLee.obj
 0001:00040c50       _GLee_Lazy_glUniformBufferEXT@12 00441c50 f   cinder:GLee.obj
 0001:00040c80       _GLee_Lazy_glGetUniformBufferSizeEXT@8 00441c80 f   cinder:GLee.obj
 0001:00040cb0       _GLee_Lazy_glGetUniformOffsetEXT@8 00441cb0 f   cinder:GLee.obj
 0001:00040ce0       _GLee_Lazy_glTexParameterIivEXT@12 00441ce0 f   cinder:GLee.obj
 0001:00040d10       _GLee_Lazy_glTexParameterIuivEXT@12 00441d10 f   cinder:GLee.obj
 0001:00040d40       _GLee_Lazy_glGetTexParameterIivEXT@12 00441d40 f   cinder:GLee.obj
 0001:00040d70       _GLee_Lazy_glGetTexParameterIuivEXT@12 00441d70 f   cinder:GLee.obj
 0001:00040da0       _GLee_Lazy_glClearColorIiEXT@16 00441da0 f   cinder:GLee.obj
 0001:00040dd0       _GLee_Lazy_glClearColorIuiEXT@16 00441dd0 f   cinder:GLee.obj
 0001:00040e00       _GLee_Lazy_glFrameTerminatorGREMEDY@0 00441e00 f   cinder:GLee.obj
 0001:00040e20       _GLee_Lazy_glBeginConditionalRenderNV@8 00441e20 f   cinder:GLee.obj
 0001:00040e50       _GLee_Lazy_glEndConditionalRenderNV@0 00441e50 f   cinder:GLee.obj
 0001:00040e70       _GLee_Lazy_glBeginTransformFeedbackEXT@4 00441e70 f   cinder:GLee.obj
 0001:00040e90       _GLee_Lazy_glEndTransformFeedbackEXT@0 00441e90 f   cinder:GLee.obj
 0001:00040eb0       _GLee_Lazy_glBindBufferRangeEXT@20 00441eb0 f   cinder:GLee.obj
 0001:00040ee0       _GLee_Lazy_glBindBufferOffsetEXT@16 00441ee0 f   cinder:GLee.obj
 0001:00040f10       _GLee_Lazy_glBindBufferBaseEXT@12 00441f10 f   cinder:GLee.obj
 0001:00040f40       _GLee_Lazy_glTransformFeedbackVaryingsEXT@16 00441f40 f   cinder:GLee.obj
 0001:00040f70       _GLee_Lazy_glGetTransformFeedbackVaryingEXT@12 00441f70 f   cinder:GLee.obj
 0001:00040fa0       _GLee_Lazy_glClientAttribDefaultEXT@4 00441fa0 f   cinder:GLee.obj
 0001:00040fc0       _GLee_Lazy_glPushClientAttribDefaultEXT@4 00441fc0 f   cinder:GLee.obj
 0001:00040fe0       _GLee_Lazy_glMatrixLoadfEXT@8 00441fe0 f   cinder:GLee.obj
 0001:00041010       _GLee_Lazy_glMatrixLoaddEXT@8 00442010 f   cinder:GLee.obj
 0001:00041040       _GLee_Lazy_glMatrixMultfEXT@8 00442040 f   cinder:GLee.obj
 0001:00041070       _GLee_Lazy_glMatrixMultdEXT@8 00442070 f   cinder:GLee.obj
 0001:000410a0       _GLee_Lazy_glMatrixLoadIdentityEXT@4 004420a0 f   cinder:GLee.obj
 0001:000410c0       _GLee_Lazy_glMatrixRotatefEXT@20 004420c0 f   cinder:GLee.obj
 0001:00041100       _GLee_Lazy_glMatrixRotatedEXT@36 00442100 f   cinder:GLee.obj
 0001:00041150       _GLee_Lazy_glMatrixScalefEXT@16 00442150 f   cinder:GLee.obj
 0001:00041190       _GLee_Lazy_glMatrixScaledEXT@28 00442190 f   cinder:GLee.obj
 0001:000411d0       _GLee_Lazy_glMatrixTranslatefEXT@16 004421d0 f   cinder:GLee.obj
 0001:00041210       _GLee_Lazy_glMatrixTranslatedEXT@28 00442210 f   cinder:GLee.obj
 0001:00041250       _GLee_Lazy_glMatrixFrustumEXT@52 00442250 f   cinder:GLee.obj
 0001:000412b0       _GLee_Lazy_glMatrixOrthoEXT@52 004422b0 f   cinder:GLee.obj
 0001:00041310       _GLee_Lazy_glMatrixPopEXT@4 00442310 f   cinder:GLee.obj
 0001:00041330       _GLee_Lazy_glMatrixPushEXT@4 00442330 f   cinder:GLee.obj
 0001:00041350       _GLee_Lazy_glMatrixLoadTransposefEXT@8 00442350 f   cinder:GLee.obj
 0001:00041380       _GLee_Lazy_glMatrixLoadTransposedEXT@8 00442380 f   cinder:GLee.obj
 0001:000413b0       _GLee_Lazy_glMatrixMultTransposefEXT@8 004423b0 f   cinder:GLee.obj
 0001:000413e0       _GLee_Lazy_glMatrixMultTransposedEXT@8 004423e0 f   cinder:GLee.obj
 0001:00041410       _GLee_Lazy_glTextureParameterfEXT@16 00442410 f   cinder:GLee.obj
 0001:00041440       _GLee_Lazy_glTextureParameterfvEXT@16 00442440 f   cinder:GLee.obj
 0001:00041470       _GLee_Lazy_glTextureParameteriEXT@16 00442470 f   cinder:GLee.obj
 0001:000414a0       _GLee_Lazy_glTextureParameterivEXT@16 004424a0 f   cinder:GLee.obj
 0001:000414d0       _GLee_Lazy_glTextureImage1DEXT@36 004424d0 f   cinder:GLee.obj
 0001:00041510       _GLee_Lazy_glTextureImage2DEXT@40 00442510 f   cinder:GLee.obj
 0001:00041560       _GLee_Lazy_glTextureSubImage1DEXT@32 00442560 f   cinder:GLee.obj
 0001:000415a0       _GLee_Lazy_glTextureSubImage2DEXT@40 004425a0 f   cinder:GLee.obj
 0001:000415f0       _GLee_Lazy_glCopyTextureImage1DEXT@32 004425f0 f   cinder:GLee.obj
 0001:00041630       _GLee_Lazy_glCopyTextureImage2DEXT@36 00442630 f   cinder:GLee.obj
 0001:00041670       _GLee_Lazy_glCopyTextureSubImage1DEXT@28 00442670 f   cinder:GLee.obj
 0001:000416b0       _GLee_Lazy_glCopyTextureSubImage2DEXT@36 004426b0 f   cinder:GLee.obj
 0001:000416f0       _GLee_Lazy_glGetTextureImageEXT@24 004426f0 f   cinder:GLee.obj
 0001:00041730       _GLee_Lazy_glGetTextureParameterfvEXT@16 00442730 f   cinder:GLee.obj
 0001:00041760       _GLee_Lazy_glGetTextureParameterivEXT@16 00442760 f   cinder:GLee.obj
 0001:00041790       _GLee_Lazy_glGetTextureLevelParameterfvEXT@20 00442790 f   cinder:GLee.obj
 0001:000417c0       _GLee_Lazy_glGetTextureLevelParameterivEXT@20 004427c0 f   cinder:GLee.obj
 0001:000417f0       _GLee_Lazy_glTextureImage3DEXT@44 004427f0 f   cinder:GLee.obj
 0001:00041840       _GLee_Lazy_glTextureSubImage3DEXT@48 00442840 f   cinder:GLee.obj
 0001:00041890       _GLee_Lazy_glCopyTextureSubImage3DEXT@40 00442890 f   cinder:GLee.obj
 0001:000418e0       _GLee_Lazy_glMultiTexParameterfEXT@16 004428e0 f   cinder:GLee.obj
 0001:00041910       _GLee_Lazy_glMultiTexParameterfvEXT@16 00442910 f   cinder:GLee.obj
 0001:00041940       _GLee_Lazy_glMultiTexParameteriEXT@16 00442940 f   cinder:GLee.obj
 0001:00041970       _GLee_Lazy_glMultiTexParameterivEXT@16 00442970 f   cinder:GLee.obj
 0001:000419a0       _GLee_Lazy_glMultiTexImage1DEXT@36 004429a0 f   cinder:GLee.obj
 0001:000419e0       _GLee_Lazy_glMultiTexImage2DEXT@40 004429e0 f   cinder:GLee.obj
 0001:00041a30       _GLee_Lazy_glMultiTexSubImage1DEXT@32 00442a30 f   cinder:GLee.obj
 0001:00041a70       _GLee_Lazy_glMultiTexSubImage2DEXT@40 00442a70 f   cinder:GLee.obj
 0001:00041ac0       _GLee_Lazy_glCopyMultiTexImage1DEXT@32 00442ac0 f   cinder:GLee.obj
 0001:00041b00       _GLee_Lazy_glCopyMultiTexImage2DEXT@36 00442b00 f   cinder:GLee.obj
 0001:00041b40       _GLee_Lazy_glCopyMultiTexSubImage1DEXT@28 00442b40 f   cinder:GLee.obj
 0001:00041b80       _GLee_Lazy_glCopyMultiTexSubImage2DEXT@36 00442b80 f   cinder:GLee.obj
 0001:00041bc0       _GLee_Lazy_glGetMultiTexImageEXT@24 00442bc0 f   cinder:GLee.obj
 0001:00041c00       _GLee_Lazy_glGetMultiTexParameterfvEXT@16 00442c00 f   cinder:GLee.obj
 0001:00041c30       _GLee_Lazy_glGetMultiTexParameterivEXT@16 00442c30 f   cinder:GLee.obj
 0001:00041c60       _GLee_Lazy_glGetMultiTexLevelParameterfvEXT@20 00442c60 f   cinder:GLee.obj
 0001:00041c90       _GLee_Lazy_glGetMultiTexLevelParameterivEXT@20 00442c90 f   cinder:GLee.obj
 0001:00041cc0       _GLee_Lazy_glMultiTexImage3DEXT@44 00442cc0 f   cinder:GLee.obj
 0001:00041d10       _GLee_Lazy_glMultiTexSubImage3DEXT@48 00442d10 f   cinder:GLee.obj
 0001:00041d60       _GLee_Lazy_glCopyMultiTexSubImage3DEXT@40 00442d60 f   cinder:GLee.obj
 0001:00041db0       _GLee_Lazy_glBindMultiTextureEXT@12 00442db0 f   cinder:GLee.obj
 0001:00041de0       _GLee_Lazy_glEnableClientStateIndexedEXT@8 00442de0 f   cinder:GLee.obj
 0001:00041e10       _GLee_Lazy_glDisableClientStateIndexedEXT@8 00442e10 f   cinder:GLee.obj
 0001:00041e40       _GLee_Lazy_glMultiTexCoordPointerEXT@20 00442e40 f   cinder:GLee.obj
 0001:00041e70       _GLee_Lazy_glMultiTexEnvfEXT@16 00442e70 f   cinder:GLee.obj
 0001:00041ea0       _GLee_Lazy_glMultiTexEnvfvEXT@16 00442ea0 f   cinder:GLee.obj
 0001:00041ed0       _GLee_Lazy_glMultiTexEnviEXT@16 00442ed0 f   cinder:GLee.obj
 0001:00041f00       _GLee_Lazy_glMultiTexEnvivEXT@16 00442f00 f   cinder:GLee.obj
 0001:00041f30       _GLee_Lazy_glMultiTexGendEXT@20 00442f30 f   cinder:GLee.obj
 0001:00041f60       _GLee_Lazy_glMultiTexGendvEXT@16 00442f60 f   cinder:GLee.obj
 0001:00041f90       _GLee_Lazy_glMultiTexGenfEXT@16 00442f90 f   cinder:GLee.obj
 0001:00041fc0       _GLee_Lazy_glMultiTexGenfvEXT@16 00442fc0 f   cinder:GLee.obj
 0001:00041ff0       _GLee_Lazy_glMultiTexGeniEXT@16 00442ff0 f   cinder:GLee.obj
 0001:00042020       _GLee_Lazy_glMultiTexGenivEXT@16 00443020 f   cinder:GLee.obj
 0001:00042050       _GLee_Lazy_glGetMultiTexEnvfvEXT@16 00443050 f   cinder:GLee.obj
 0001:00042080       _GLee_Lazy_glGetMultiTexEnvivEXT@16 00443080 f   cinder:GLee.obj
 0001:000420b0       _GLee_Lazy_glGetMultiTexGendvEXT@16 004430b0 f   cinder:GLee.obj
 0001:000420e0       _GLee_Lazy_glGetMultiTexGenfvEXT@16 004430e0 f   cinder:GLee.obj
 0001:00042110       _GLee_Lazy_glGetMultiTexGenivEXT@16 00443110 f   cinder:GLee.obj
 0001:00042140       _GLee_Lazy_glGetFloatIndexedvEXT@12 00443140 f   cinder:GLee.obj
 0001:00042170       _GLee_Lazy_glGetDoubleIndexedvEXT@12 00443170 f   cinder:GLee.obj
 0001:000421a0       _GLee_Lazy_glGetPointerIndexedvEXT@12 004431a0 f   cinder:GLee.obj
 0001:000421d0       _GLee_Lazy_glCompressedTextureImage3DEXT@40 004431d0 f   cinder:GLee.obj
 0001:00042220       _GLee_Lazy_glCompressedTextureImage2DEXT@36 00443220 f   cinder:GLee.obj
 0001:00042260       _GLee_Lazy_glCompressedTextureImage1DEXT@32 00443260 f   cinder:GLee.obj
 0001:000422a0       _GLee_Lazy_glCompressedTextureSubImage3DEXT@48 004432a0 f   cinder:GLee.obj
 0001:000422f0       _GLee_Lazy_glCompressedTextureSubImage2DEXT@40 004432f0 f   cinder:GLee.obj
 0001:00042340       _GLee_Lazy_glCompressedTextureSubImage1DEXT@32 00443340 f   cinder:GLee.obj
 0001:00042380       _GLee_Lazy_glGetCompressedTextureImageEXT@16 00443380 f   cinder:GLee.obj
 0001:000423b0       _GLee_Lazy_glCompressedMultiTexImage3DEXT@40 004433b0 f   cinder:GLee.obj
 0001:00042400       _GLee_Lazy_glCompressedMultiTexImage2DEXT@36 00443400 f   cinder:GLee.obj
 0001:00042440       _GLee_Lazy_glCompressedMultiTexImage1DEXT@32 00443440 f   cinder:GLee.obj
 0001:00042480       _GLee_Lazy_glCompressedMultiTexSubImage3DEXT@48 00443480 f   cinder:GLee.obj
 0001:000424d0       _GLee_Lazy_glCompressedMultiTexSubImage2DEXT@40 004434d0 f   cinder:GLee.obj
 0001:00042520       _GLee_Lazy_glCompressedMultiTexSubImage1DEXT@32 00443520 f   cinder:GLee.obj
 0001:00042560       _GLee_Lazy_glGetCompressedMultiTexImageEXT@16 00443560 f   cinder:GLee.obj
 0001:00042590       _GLee_Lazy_glNamedProgramStringEXT@20 00443590 f   cinder:GLee.obj
 0001:000425c0       _GLee_Lazy_glNamedProgramLocalParameter4dEXT@44 004435c0 f   cinder:GLee.obj
 0001:00042610       _GLee_Lazy_glNamedProgramLocalParameter4dvEXT@16 00443610 f   cinder:GLee.obj
 0001:00042640       _GLee_Lazy_glNamedProgramLocalParameter4fEXT@28 00443640 f   cinder:GLee.obj
 0001:00042690       _GLee_Lazy_glNamedProgramLocalParameter4fvEXT@16 00443690 f   cinder:GLee.obj
 0001:000426c0       _GLee_Lazy_glGetNamedProgramLocalParameterdvEXT@16 004436c0 f   cinder:GLee.obj
 0001:000426f0       _GLee_Lazy_glGetNamedProgramLocalParameterfvEXT@16 004436f0 f   cinder:GLee.obj
 0001:00042720       _GLee_Lazy_glGetNamedProgramivEXT@16 00443720 f   cinder:GLee.obj
 0001:00042750       _GLee_Lazy_glGetNamedProgramStringEXT@16 00443750 f   cinder:GLee.obj
 0001:00042780       _GLee_Lazy_glNamedProgramLocalParameters4fvEXT@20 00443780 f   cinder:GLee.obj
 0001:000427b0       _GLee_Lazy_glNamedProgramLocalParameterI4iEXT@28 004437b0 f   cinder:GLee.obj
 0001:000427f0       _GLee_Lazy_glNamedProgramLocalParameterI4ivEXT@16 004437f0 f   cinder:GLee.obj
 0001:00042820       _GLee_Lazy_glNamedProgramLocalParametersI4ivEXT@20 00443820 f   cinder:GLee.obj
 0001:00042850       _GLee_Lazy_glNamedProgramLocalParameterI4uiEXT@28 00443850 f   cinder:GLee.obj
 0001:00042890       _GLee_Lazy_glNamedProgramLocalParameterI4uivEXT@16 00443890 f   cinder:GLee.obj
 0001:000428c0       _GLee_Lazy_glNamedProgramLocalParametersI4uivEXT@20 004438c0 f   cinder:GLee.obj
 0001:000428f0       _GLee_Lazy_glGetNamedProgramLocalParameterIivEXT@16 004438f0 f   cinder:GLee.obj
 0001:00042920       _GLee_Lazy_glGetNamedProgramLocalParameterIuivEXT@16 00443920 f   cinder:GLee.obj
 0001:00042950       _GLee_Lazy_glTextureParameterIivEXT@16 00443950 f   cinder:GLee.obj
 0001:00042980       _GLee_Lazy_glTextureParameterIuivEXT@16 00443980 f   cinder:GLee.obj
 0001:000429b0       _GLee_Lazy_glGetTextureParameterIivEXT@16 004439b0 f   cinder:GLee.obj
 0001:000429e0       _GLee_Lazy_glGetTextureParameterIuivEXT@16 004439e0 f   cinder:GLee.obj
 0001:00042a10       _GLee_Lazy_glMultiTexParameterIivEXT@16 00443a10 f   cinder:GLee.obj
 0001:00042a40       _GLee_Lazy_glMultiTexParameterIuivEXT@16 00443a40 f   cinder:GLee.obj
 0001:00042a70       _GLee_Lazy_glGetMultiTexParameterIivEXT@16 00443a70 f   cinder:GLee.obj
 0001:00042aa0       _GLee_Lazy_glGetMultiTexParameterIuivEXT@16 00443aa0 f   cinder:GLee.obj
 0001:00042ad0       _GLee_Lazy_glProgramUniform1fEXT@12 00443ad0 f   cinder:GLee.obj
 0001:00042b00       _GLee_Lazy_glProgramUniform2fEXT@16 00443b00 f   cinder:GLee.obj
 0001:00042b30       _GLee_Lazy_glProgramUniform3fEXT@20 00443b30 f   cinder:GLee.obj
 0001:00042b70       _GLee_Lazy_glProgramUniform4fEXT@24 00443b70 f   cinder:GLee.obj
 0001:00042bb0       _GLee_Lazy_glProgramUniform1iEXT@12 00443bb0 f   cinder:GLee.obj
 0001:00042be0       _GLee_Lazy_glProgramUniform2iEXT@16 00443be0 f   cinder:GLee.obj
 0001:00042c10       _GLee_Lazy_glProgramUniform3iEXT@20 00443c10 f   cinder:GLee.obj
 0001:00042c40       _GLee_Lazy_glProgramUniform4iEXT@24 00443c40 f   cinder:GLee.obj
 0001:00042c80       _GLee_Lazy_glProgramUniform1fvEXT@16 00443c80 f   cinder:GLee.obj
 0001:00042cb0       _GLee_Lazy_glProgramUniform2fvEXT@16 00443cb0 f   cinder:GLee.obj
 0001:00042ce0       _GLee_Lazy_glProgramUniform3fvEXT@16 00443ce0 f   cinder:GLee.obj
 0001:00042d10       _GLee_Lazy_glProgramUniform4fvEXT@16 00443d10 f   cinder:GLee.obj
 0001:00042d40       _GLee_Lazy_glProgramUniform1ivEXT@16 00443d40 f   cinder:GLee.obj
 0001:00042d70       _GLee_Lazy_glProgramUniform2ivEXT@16 00443d70 f   cinder:GLee.obj
 0001:00042da0       _GLee_Lazy_glProgramUniform3ivEXT@16 00443da0 f   cinder:GLee.obj
 0001:00042dd0       _GLee_Lazy_glProgramUniform4ivEXT@16 00443dd0 f   cinder:GLee.obj
 0001:00042e00       _GLee_Lazy_glProgramUniformMatrix2fvEXT@20 00443e00 f   cinder:GLee.obj
 0001:00042e30       _GLee_Lazy_glProgramUniformMatrix3fvEXT@20 00443e30 f   cinder:GLee.obj
 0001:00042e60       _GLee_Lazy_glProgramUniformMatrix4fvEXT@20 00443e60 f   cinder:GLee.obj
 0001:00042e90       _GLee_Lazy_glProgramUniformMatrix2x3fvEXT@20 00443e90 f   cinder:GLee.obj
 0001:00042ec0       _GLee_Lazy_glProgramUniformMatrix3x2fvEXT@20 00443ec0 f   cinder:GLee.obj
 0001:00042ef0       _GLee_Lazy_glProgramUniformMatrix2x4fvEXT@20 00443ef0 f   cinder:GLee.obj
 0001:00042f20       _GLee_Lazy_glProgramUniformMatrix4x2fvEXT@20 00443f20 f   cinder:GLee.obj
 0001:00042f50       _GLee_Lazy_glProgramUniformMatrix3x4fvEXT@20 00443f50 f   cinder:GLee.obj
 0001:00042f80       _GLee_Lazy_glProgramUniformMatrix4x3fvEXT@20 00443f80 f   cinder:GLee.obj
 0001:00042fb0       _GLee_Lazy_glProgramUniform1uiEXT@12 00443fb0 f   cinder:GLee.obj
 0001:00042fe0       _GLee_Lazy_glProgramUniform2uiEXT@16 00443fe0 f   cinder:GLee.obj
 0001:00043010       _GLee_Lazy_glProgramUniform3uiEXT@20 00444010 f   cinder:GLee.obj
 0001:00043040       _GLee_Lazy_glProgramUniform4uiEXT@24 00444040 f   cinder:GLee.obj
 0001:00043080       _GLee_Lazy_glProgramUniform1uivEXT@16 00444080 f   cinder:GLee.obj
 0001:000430b0       _GLee_Lazy_glProgramUniform2uivEXT@16 004440b0 f   cinder:GLee.obj
 0001:000430e0       _GLee_Lazy_glProgramUniform3uivEXT@16 004440e0 f   cinder:GLee.obj
 0001:00043110       _GLee_Lazy_glProgramUniform4uivEXT@16 00444110 f   cinder:GLee.obj
 0001:00043140       _GLee_Lazy_glNamedBufferDataEXT@16 00444140 f   cinder:GLee.obj
 0001:00043170       _GLee_Lazy_glNamedBufferSubDataEXT@16 00444170 f   cinder:GLee.obj
 0001:000431a0       _GLee_Lazy_glMapNamedBufferEXT@8 004441a0 f   cinder:GLee.obj
 0001:000431d0       _GLee_Lazy_glUnmapNamedBufferEXT@4 004441d0 f   cinder:GLee.obj
 0001:00043200       _GLee_Lazy_glGetNamedBufferParameterivEXT@12 00444200 f   cinder:GLee.obj
 0001:00043230       _GLee_Lazy_glGetNamedBufferPointervEXT@12 00444230 f   cinder:GLee.obj
 0001:00043260       _GLee_Lazy_glGetNamedBufferSubDataEXT@16 00444260 f   cinder:GLee.obj
 0001:00043290       _GLee_Lazy_glTextureBufferEXT@16 00444290 f   cinder:GLee.obj
 0001:000432c0       _GLee_Lazy_glMultiTexBufferEXT@16 004442c0 f   cinder:GLee.obj
 0001:000432f0       _GLee_Lazy_glNamedRenderbufferStorageEXT@16 004442f0 f   cinder:GLee.obj
 0001:00043320       _GLee_Lazy_glGetNamedRenderbufferParameterivEXT@12 00444320 f   cinder:GLee.obj
 0001:00043350       _GLee_Lazy_glCheckNamedFramebufferStatusEXT@8 00444350 f   cinder:GLee.obj
 0001:00043380       _GLee_Lazy_glNamedFramebufferTexture1DEXT@20 00444380 f   cinder:GLee.obj
 0001:000433b0       _GLee_Lazy_glNamedFramebufferTexture2DEXT@20 004443b0 f   cinder:GLee.obj
 0001:000433e0       _GLee_Lazy_glNamedFramebufferTexture3DEXT@24 004443e0 f   cinder:GLee.obj
 0001:00043420       _GLee_Lazy_glNamedFramebufferRenderbufferEXT@16 00444420 f   cinder:GLee.obj
 0001:00043450       _GLee_Lazy_glGetNamedFramebufferAttachmentParameterivEXT@16 00444450 f   cinder:GLee.obj
 0001:00043480       _GLee_Lazy_glGenerateTextureMipmapEXT@8 00444480 f   cinder:GLee.obj
 0001:000434b0       _GLee_Lazy_glGenerateMultiTexMipmapEXT@8 004444b0 f   cinder:GLee.obj
 0001:000434e0       _GLee_Lazy_glFramebufferDrawBufferEXT@8 004444e0 f   cinder:GLee.obj
 0001:00043510       _GLee_Lazy_glFramebufferDrawBuffersEXT@12 00444510 f   cinder:GLee.obj
 0001:00043540       _GLee_Lazy_glFramebufferReadBufferEXT@8 00444540 f   cinder:GLee.obj
 0001:00043570       _GLee_Lazy_glGetFramebufferParameterivEXT@12 00444570 f   cinder:GLee.obj
 0001:000435a0       _GLee_Lazy_glNamedRenderbufferStorageMultisampleEXT@20 004445a0 f   cinder:GLee.obj
 0001:000435d0       _GLee_Lazy_glNamedRenderbufferStorageMultisampleCoverageEXT@24 004445d0 f   cinder:GLee.obj
 0001:00043610       _GLee_Lazy_glNamedFramebufferTextureEXT@16 00444610 f   cinder:GLee.obj
 0001:00043640       _GLee_Lazy_glNamedFramebufferTextureLayerEXT@20 00444640 f   cinder:GLee.obj
 0001:00043670       _GLee_Lazy_glNamedFramebufferTextureFaceEXT@20 00444670 f   cinder:GLee.obj
 0001:000436a0       _GLee_Lazy_glTextureRenderbufferEXT@12 004446a0 f   cinder:GLee.obj
 0001:000436d0       _GLee_Lazy_glMultiTexRenderbufferEXT@12 004446d0 f   cinder:GLee.obj
 0001:00043700       _GLee_Lazy_glGetMultisamplefvNV@12 00444700 f   cinder:GLee.obj
 0001:00043730       _GLee_Lazy_glSampleMaskIndexedNV@8 00444730 f   cinder:GLee.obj
 0001:00043760       _GLee_Lazy_glTexRenderbufferNV@8 00444760 f   cinder:GLee.obj
 0001:00043790       _GLee_Lazy_glBindTransformFeedbackNV@8 00444790 f   cinder:GLee.obj
 0001:000437c0       _GLee_Lazy_glDeleteTransformFeedbacksNV@8 004447c0 f   cinder:GLee.obj
 0001:000437f0       _GLee_Lazy_glGenTransformFeedbacksNV@8 004447f0 f   cinder:GLee.obj
 0001:00043820       _GLee_Lazy_glIsTransformFeedbackNV@4 00444820 f   cinder:GLee.obj
 0001:00043850       _GLee_Lazy_glPauseTransformFeedbackNV@0 00444850 f   cinder:GLee.obj
 0001:00043870       _GLee_Lazy_glResumeTransformFeedbackNV@0 00444870 f   cinder:GLee.obj
 0001:00043890       _GLee_Lazy_glDrawTransformFeedbackNV@8 00444890 f   cinder:GLee.obj
 0001:000438c0       _GLee_Lazy_glBlendFuncSeparateINGR@16 004448c0 f   cinder:GLee.obj
 0001:000438f0       _GLee_Lazy_glIglooInterfaceSGIX@8 004448f0 f   cinder:GLee.obj
 0001:00043920       _GLee_Lazy_glFragmentLightModeliEXT@8 00444920 f   cinder:GLee.obj
 0001:00043950       _GLee_Lazy_glFragmentLightModelfEXT@8 00444950 f   cinder:GLee.obj
 0001:00043980       _GLee_Lazy_glFragmentLightModelivEXT@8 00444980 f   cinder:GLee.obj
 0001:000439b0       _GLee_Lazy_glFragmentLightModelfvEXT@8 004449b0 f   cinder:GLee.obj
 0001:000439e0       _GLee_Lazy_glFragmentLightiEXT@12 004449e0 f   cinder:GLee.obj
 0001:00043a10       _GLee_Lazy_glFragmentLightfEXT@12 00444a10 f   cinder:GLee.obj
 0001:00043a40       _GLee_Lazy_glFragmentLightivEXT@12 00444a40 f   cinder:GLee.obj
 0001:00043a70       _GLee_Lazy_glFragmentLightfvEXT@12 00444a70 f   cinder:GLee.obj
 0001:00043aa0       _GLee_Lazy_glGetFragmentLightivEXT@12 00444aa0 f   cinder:GLee.obj
 0001:00043ad0       _GLee_Lazy_glGetFragmentLightfvEXT@12 00444ad0 f   cinder:GLee.obj
 0001:00043b00       _GLee_Lazy_glFragmentMaterialfEXT@12 00444b00 f   cinder:GLee.obj
 0001:00043b30       _GLee_Lazy_glFragmentMaterialiEXT@12 00444b30 f   cinder:GLee.obj
 0001:00043b60       _GLee_Lazy_glFragmentMaterialfvEXT@12 00444b60 f   cinder:GLee.obj
 0001:00043b90       _GLee_Lazy_glFragmentMaterialivEXT@12 00444b90 f   cinder:GLee.obj
 0001:00043bc0       _GLee_Lazy_glFragmentColorMaterialEXT@8 00444bc0 f   cinder:GLee.obj
 0001:00043bf0       _GLee_Lazy_glGetFragmentMaterialfvEXT@12 00444bf0 f   cinder:GLee.obj
 0001:00043c20       _GLee_Lazy_glGetFragmentMaterialivEXT@12 00444c20 f   cinder:GLee.obj
 0001:00043c50       _GLee_Lazy_glLightEnviEXT@8 00444c50 f   cinder:GLee.obj
 0001:00043c80       _GLee_Lazy_glProgramParameteriEXT@12 00444c80 f   cinder:GLee.obj
 0001:00043cb0       _GLee_Lazy_glFramebufferTextureEXT@16 00444cb0 f   cinder:GLee.obj
 0001:00043ce0       _GLee_Lazy_glFramebufferTextureLayerEXT@20 00444ce0 f   cinder:GLee.obj
 0001:00043d10       _GLee_Lazy_glFramebufferTextureFaceEXT@20 00444d10 f   cinder:GLee.obj
 0001:00043d40       _GLee_Lazy_glBeginSceneEXT@0 00444d40 f   cinder:GLee.obj
 0001:00043d60       _GLee_Lazy_glEndSceneEXT@0 00444d60 f   cinder:GLee.obj
 0001:00043d80       _GLee_Lazy_glProgramLocalParameterI4iNV@24 00444d80 f   cinder:GLee.obj
 0001:00043dc0       _GLee_Lazy_glProgramLocalParameterI4ivNV@12 00444dc0 f   cinder:GLee.obj
 0001:00043df0       _GLee_Lazy_glProgramLocalParametersI4ivNV@16 00444df0 f   cinder:GLee.obj
 0001:00043e20       _GLee_Lazy_glProgramLocalParameterI4uiNV@24 00444e20 f   cinder:GLee.obj
 0001:00043e60       _GLee_Lazy_glProgramLocalParameterI4uivNV@12 00444e60 f   cinder:GLee.obj
 0001:00043e90       _GLee_Lazy_glProgramLocalParametersI4uivNV@16 00444e90 f   cinder:GLee.obj
 0001:00043ec0       _GLee_Lazy_glProgramEnvParameterI4iNV@24 00444ec0 f   cinder:GLee.obj
 0001:00043f00       _GLee_Lazy_glProgramEnvParameterI4ivNV@12 00444f00 f   cinder:GLee.obj
 0001:00043f30       _GLee_Lazy_glProgramEnvParametersI4ivNV@16 00444f30 f   cinder:GLee.obj
 0001:00043f60       _GLee_Lazy_glProgramEnvParameterI4uiNV@24 00444f60 f   cinder:GLee.obj
 0001:00043fa0       _GLee_Lazy_glProgramEnvParameterI4uivNV@12 00444fa0 f   cinder:GLee.obj
 0001:00043fd0       _GLee_Lazy_glProgramEnvParametersI4uivNV@16 00444fd0 f   cinder:GLee.obj
 0001:00044000       _GLee_Lazy_glGetProgramLocalParameterIivNV@12 00445000 f   cinder:GLee.obj
 0001:00044030       _GLee_Lazy_glGetProgramLocalParameterIuivNV@12 00445030 f   cinder:GLee.obj
 0001:00044060       _GLee_Lazy_glGetProgramEnvParameterIivNV@12 00445060 f   cinder:GLee.obj
 0001:00044090       _GLee_Lazy_glGetProgramEnvParameterIuivNV@12 00445090 f   cinder:GLee.obj
 0001:000440c0       _GLee_Lazy_glVertexAttribI2iEXT@12 004450c0 f   cinder:GLee.obj
 0001:000440f0       _GLee_Lazy_glVertexAttribI3iEXT@16 004450f0 f   cinder:GLee.obj
 0001:00044120       _GLee_Lazy_glVertexAttribI4iEXT@20 00445120 f   cinder:GLee.obj
 0001:00044150       _GLee_Lazy_glVertexAttribI1uiEXT@8 00445150 f   cinder:GLee.obj
 0001:00044180       _GLee_Lazy_glVertexAttribI2uiEXT@12 00445180 f   cinder:GLee.obj
 0001:000441b0       _GLee_Lazy_glVertexAttribI3uiEXT@16 004451b0 f   cinder:GLee.obj
 0001:000441e0       _GLee_Lazy_glVertexAttribI4uiEXT@20 004451e0 f   cinder:GLee.obj
 0001:00044210       _GLee_Lazy_glVertexAttribI1ivEXT@8 00445210 f   cinder:GLee.obj
 0001:00044240       _GLee_Lazy_glVertexAttribI2ivEXT@8 00445240 f   cinder:GLee.obj
 0001:00044270       _GLee_Lazy_glVertexAttribI3ivEXT@8 00445270 f   cinder:GLee.obj
 0001:000442a0       _GLee_Lazy_glVertexAttribI4ivEXT@8 004452a0 f   cinder:GLee.obj
 0001:000442d0       _GLee_Lazy_glVertexAttribI1uivEXT@8 004452d0 f   cinder:GLee.obj
 0001:00044300       _GLee_Lazy_glVertexAttribI2uivEXT@8 00445300 f   cinder:GLee.obj
 0001:00044330       _GLee_Lazy_glVertexAttribI3uivEXT@8 00445330 f   cinder:GLee.obj
 0001:00044360       _GLee_Lazy_glVertexAttribI4uivEXT@8 00445360 f   cinder:GLee.obj
 0001:00044390       _GLee_Lazy_glVertexAttribI4bvEXT@8 00445390 f   cinder:GLee.obj
 0001:000443c0       _GLee_Lazy_glVertexAttribI4svEXT@8 004453c0 f   cinder:GLee.obj
 0001:000443f0       _GLee_Lazy_glVertexAttribI4ubvEXT@8 004453f0 f   cinder:GLee.obj
 0001:00044420       _GLee_Lazy_glVertexAttribI4usvEXT@8 00445420 f   cinder:GLee.obj
 0001:00044450       _GLee_Lazy_glVertexAttribIPointerEXT@20 00445450 f   cinder:GLee.obj
 0001:00044480       _GLee_Lazy_glGetVertexAttribIivEXT@12 00445480 f   cinder:GLee.obj
 0001:000444b0       _GLee_Lazy_glGetVertexAttribIuivEXT@12 004454b0 f   cinder:GLee.obj
 0001:000444e0       _GLee_Lazy_glDepthRangefOES@8 004454e0 f   cinder:GLee.obj
 0001:00044510       _GLee_Lazy_glFrustumfOES@24 00445510 f   cinder:GLee.obj
 0001:00044560       _GLee_Lazy_glOrthofOES@24  00445560 f   cinder:GLee.obj
 0001:000445b0       _GLee_Lazy_glClipPlanefOES@8 004455b0 f   cinder:GLee.obj
 0001:000445e0       _GLee_Lazy_glGetClipPlanefOES@8 004455e0 f   cinder:GLee.obj
 0001:00044610       _GLee_Lazy_glClearDepthfOES@8 00445610 f   cinder:GLee.obj
 0001:00044640       _GLee_Lazy_wglCreateBufferRegionARB@12 00445640 f   cinder:GLee.obj
 0001:00044670       _GLee_Lazy_wglDeleteBufferRegionARB@4 00445670 f   cinder:GLee.obj
 0001:00044690       _GLee_Lazy_wglSaveBufferRegionARB@20 00445690 f   cinder:GLee.obj
 0001:000446d0       _GLee_Lazy_wglRestoreBufferRegionARB@28 004456d0 f   cinder:GLee.obj
 0001:00044710       _GLee_Lazy_wglGetExtensionsStringARB@4 00445710 f   cinder:GLee.obj
 0001:00044740       _GLee_Lazy_wglGetPixelFormatAttribivARB@24 00445740 f   cinder:GLee.obj
 0001:00044780       _GLee_Lazy_wglGetPixelFormatAttribfvARB@24 00445780 f   cinder:GLee.obj
 0001:000447c0       _GLee_Lazy_wglChoosePixelFormatARB@24 004457c0 f   cinder:GLee.obj
 0001:00044800       _GLee_Lazy_wglMakeContextCurrentARB@12 00445800 f   cinder:GLee.obj
 0001:00044830       _GLee_Lazy_wglGetCurrentReadDCARB@0 00445830 f   cinder:GLee.obj
 0001:00044850       _GLee_Lazy_wglCreatePbufferARB@20 00445850 f   cinder:GLee.obj
 0001:00044890       _GLee_Lazy_wglGetPbufferDCARB@4 00445890 f   cinder:GLee.obj
 0001:000448c0       _GLee_Lazy_wglReleasePbufferDCARB@8 004458c0 f   cinder:GLee.obj
 0001:000448f0       _GLee_Lazy_wglDestroyPbufferARB@4 004458f0 f   cinder:GLee.obj
 0001:00044920       _GLee_Lazy_wglQueryPbufferARB@12 00445920 f   cinder:GLee.obj
 0001:00044950       _GLee_Lazy_wglBindTexImageARB@8 00445950 f   cinder:GLee.obj
 0001:00044980       _GLee_Lazy_wglReleaseTexImageARB@8 00445980 f   cinder:GLee.obj
 0001:000449b0       _GLee_Lazy_wglSetPbufferAttribARB@8 004459b0 f   cinder:GLee.obj
 0001:000449e0       _GLee_Lazy_wglCreateContextAttribsARB@12 004459e0 f   cinder:GLee.obj
 0001:00044a10       _GLee_Lazy_wglMakeContextCurrentEXT@12 00445a10 f   cinder:GLee.obj
 0001:00044a40       _GLee_Lazy_wglGetCurrentReadDCEXT@0 00445a40 f   cinder:GLee.obj
 0001:00044a60       _GLee_Lazy_wglGetPixelFormatAttribivEXT@24 00445a60 f   cinder:GLee.obj
 0001:00044aa0       _GLee_Lazy_wglGetPixelFormatAttribfvEXT@24 00445aa0 f   cinder:GLee.obj
 0001:00044ae0       _GLee_Lazy_wglChoosePixelFormatEXT@24 00445ae0 f   cinder:GLee.obj
 0001:00044b20       _GLee_Lazy_wglCreatePbufferEXT@20 00445b20 f   cinder:GLee.obj
 0001:00044b60       _GLee_Lazy_wglGetPbufferDCEXT@4 00445b60 f   cinder:GLee.obj
 0001:00044b90       _GLee_Lazy_wglReleasePbufferDCEXT@8 00445b90 f   cinder:GLee.obj
 0001:00044bc0       _GLee_Lazy_wglDestroyPbufferEXT@4 00445bc0 f   cinder:GLee.obj
 0001:00044bf0       _GLee_Lazy_wglQueryPbufferEXT@12 00445bf0 f   cinder:GLee.obj
 0001:00044c20       _GLee_Lazy_wglGetDigitalVideoParametersI3D@12 00445c20 f   cinder:GLee.obj
 0001:00044c50       _GLee_Lazy_wglSetDigitalVideoParametersI3D@12 00445c50 f   cinder:GLee.obj
 0001:00044c80       _GLee_Lazy_wglGetGammaTableParametersI3D@12 00445c80 f   cinder:GLee.obj
 0001:00044cb0       _GLee_Lazy_wglSetGammaTableParametersI3D@12 00445cb0 f   cinder:GLee.obj
 0001:00044ce0       _GLee_Lazy_wglGetGammaTableI3D@20 00445ce0 f   cinder:GLee.obj
 0001:00044d20       _GLee_Lazy_wglSetGammaTableI3D@20 00445d20 f   cinder:GLee.obj
 0001:00044d60       _GLee_Lazy_wglEnableGenlockI3D@4 00445d60 f   cinder:GLee.obj
 0001:00044d90       _GLee_Lazy_wglDisableGenlockI3D@4 00445d90 f   cinder:GLee.obj
 0001:00044dc0       _GLee_Lazy_wglIsEnabledGenlockI3D@8 00445dc0 f   cinder:GLee.obj
 0001:00044df0       _GLee_Lazy_wglGenlockSourceI3D@8 00445df0 f   cinder:GLee.obj
 0001:00044e20       _GLee_Lazy_wglGetGenlockSourceI3D@8 00445e20 f   cinder:GLee.obj
 0001:00044e50       _GLee_Lazy_wglGenlockSourceEdgeI3D@8 00445e50 f   cinder:GLee.obj
 0001:00044e80       _GLee_Lazy_wglGetGenlockSourceEdgeI3D@8 00445e80 f   cinder:GLee.obj
 0001:00044eb0       _GLee_Lazy_wglGenlockSampleRateI3D@8 00445eb0 f   cinder:GLee.obj
 0001:00044ee0       _GLee_Lazy_wglGetGenlockSampleRateI3D@8 00445ee0 f   cinder:GLee.obj
 0001:00044f10       _GLee_Lazy_wglGenlockSourceDelayI3D@8 00445f10 f   cinder:GLee.obj
 0001:00044f40       _GLee_Lazy_wglGetGenlockSourceDelayI3D@8 00445f40 f   cinder:GLee.obj
 0001:00044f70       _GLee_Lazy_wglQueryGenlockMaxSourceDelayI3D@12 00445f70 f   cinder:GLee.obj
 0001:00044fa0       _GLee_Lazy_wglCreateImageBufferI3D@12 00445fa0 f   cinder:GLee.obj
 0001:00044fd0       _GLee_Lazy_wglDestroyImageBufferI3D@8 00445fd0 f   cinder:GLee.obj
 0001:00045000       _GLee_Lazy_wglAssociateImageBufferEventsI3D@20 00446000 f   cinder:GLee.obj
 0001:00045040       _GLee_Lazy_wglReleaseImageBufferEventsI3D@12 00446040 f   cinder:GLee.obj
 0001:00045070       _GLee_Lazy_wglEnableFrameLockI3D@0 00446070 f   cinder:GLee.obj
 0001:00045090       _GLee_Lazy_wglDisableFrameLockI3D@0 00446090 f   cinder:GLee.obj
 0001:000450b0       _GLee_Lazy_wglIsEnabledFrameLockI3D@4 004460b0 f   cinder:GLee.obj
 0001:000450e0       _GLee_Lazy_wglQueryFrameLockMasterI3D@4 004460e0 f   cinder:GLee.obj
 0001:00045110       _GLee_Lazy_wglEnumerateVideoDevicesNV@8 00446110 f   cinder:GLee.obj
 0001:00045140       _GLee_Lazy_wglBindVideoDeviceNV@16 00446140 f   cinder:GLee.obj
 0001:00045170       _GLee_Lazy_wglQueryCurrentContextNV@8 00446170 f   cinder:GLee.obj
 0001:000451a0       _GLee_Lazy_wglJoinSwapGroupNV@8 004461a0 f   cinder:GLee.obj
 0001:000451d0       _GLee_Lazy_wglBindSwapBarrierNV@8 004461d0 f   cinder:GLee.obj
 0001:00045200       _GLee_Lazy_wglQuerySwapGroupNV@12 00446200 f   cinder:GLee.obj
 0001:00045230       _GLee_Lazy_wglQueryMaxSwapGroupsNV@12 00446230 f   cinder:GLee.obj
 0001:00045260       _GLee_Lazy_wglQueryFrameCountNV@8 00446260 f   cinder:GLee.obj
 0001:00045290       _GLee_Lazy_wglResetFrameCountNV@4 00446290 f   cinder:GLee.obj
 0001:000452c0       _GLee_Lazy_wglEnumGpusNV@8 004462c0 f   cinder:GLee.obj
 0001:000452f0       _GLee_Lazy_wglEnumGpuDevicesNV@12 004462f0 f   cinder:GLee.obj
 0001:00045320       _GLee_Lazy_wglCreateAffinityDCNV@4 00446320 f   cinder:GLee.obj
 0001:00045350       _GLee_Lazy_wglEnumGpusFromAffinityDCNV@12 00446350 f   cinder:GLee.obj
 0001:00045380       _GLee_Lazy_wglDeleteDCNV@4 00446380 f   cinder:GLee.obj
 0001:000453b0       _GLee_Lazy_wglCreateDisplayColorTableEXT@4 004463b0 f   cinder:GLee.obj
 0001:000453e0       _GLee_Lazy_wglLoadDisplayColorTableEXT@8 004463e0 f   cinder:GLee.obj
 0001:00045410       _GLee_Lazy_wglBindDisplayColorTableEXT@4 00446410 f   cinder:GLee.obj
 0001:00045440       _GLee_Lazy_wglDestroyDisplayColorTableEXT@4 00446440 f   cinder:GLee.obj
 0001:00045460       _GLee_Lazy_wglGetExtensionsStringEXT@0 00446460 f   cinder:GLee.obj
 0001:00045480       _GLee_Lazy_wglSwapIntervalEXT@4 00446480 f   cinder:GLee.obj
 0001:000454b0       _GLee_Lazy_wglGetSwapIntervalEXT@0 004464b0 f   cinder:GLee.obj
 0001:000454d0       _GLee_Lazy_wglAllocateMemoryNV@16 004464d0 f   cinder:GLee.obj
 0001:00045510       _GLee_Lazy_wglFreeMemoryNV@4 00446510 f   cinder:GLee.obj
 0001:00045530       _GLee_Lazy_wglGetSyncValuesOML@16 00446530 f   cinder:GLee.obj
 0001:00045560       _GLee_Lazy_wglGetMscRateOML@12 00446560 f   cinder:GLee.obj
 0001:00045590       _GLee_Lazy_wglSwapBuffersMscOML@28 00446590 f   cinder:GLee.obj
 0001:000455d0       _GLee_Lazy_wglSwapLayerBuffersMscOML@32 004465d0 f   cinder:GLee.obj
 0001:00045610       _GLee_Lazy_wglWaitForMscOML@40 00446610 f   cinder:GLee.obj
 0001:00045660       _GLee_Lazy_wglWaitForSbcOML@24 00446660 f   cinder:GLee.obj
 0001:000456a0       _GLee_Lazy_wglGetFrameUsageI3D@4 004466a0 f   cinder:GLee.obj
 0001:000456d0       _GLee_Lazy_wglBeginFrameTrackingI3D@0 004466d0 f   cinder:GLee.obj
 0001:000456f0       _GLee_Lazy_wglEndFrameTrackingI3D@0 004466f0 f   cinder:GLee.obj
 0001:00045710       _GLee_Lazy_wglQueryFrameTrackingI3D@12 00446710 f   cinder:GLee.obj
 0001:00045740       _GLee_Lazy_wglGetVideoDeviceNV@12 00446740 f   cinder:GLee.obj
 0001:00045770       _GLee_Lazy_wglReleaseVideoDeviceNV@4 00446770 f   cinder:GLee.obj
 0001:000457a0       _GLee_Lazy_wglBindVideoImageNV@12 004467a0 f   cinder:GLee.obj
 0001:000457d0       _GLee_Lazy_wglReleaseVideoImageNV@8 004467d0 f   cinder:GLee.obj
 0001:00045800       _GLee_Lazy_wglSendPbufferToVideoNV@16 00446800 f   cinder:GLee.obj
 0001:00045830       _GLee_Lazy_wglGetVideoInfoNV@12 00446830 f   cinder:GLee.obj
 0001:00045860       ?calcProjection@CameraPersp@cinder@@MAEXXZ 00446860 f   cinder:Camera.obj
 0001:00045a70       ??D?$Quaternion@M@cinder@@QAE?BV?$Vec3@M@1@ABV21@@Z 00446a70 f i cinder:Camera.obj
 0001:00045b30       ?set@?$Quaternion@M@cinder@@QAEXABV?$Matrix44@M@2@@Z 00446b30 f i cinder:Camera.obj
 0001:00045c90       ??0Camera@cinder@@QAE@XZ   00446c90 f i cinder:Camera.obj
 0001:00045e70       ?calcModelView@Camera@cinder@@IAEXXZ 00446e70 f   cinder:Camera.obj
 0001:00046050       ?normalized@?$Quaternion@M@cinder@@QBE?AV12@XZ 00447050 f i cinder:Camera.obj
 0001:00046100       ?alignZAxisWithTarget@?$Matrix44@M@cinder@@SA?AV12@V?$Vec3@M@2@0@Z 00447100 f i cinder:Camera.obj
 0001:00046460       ?lookAt@Camera@cinder@@QAEXABV?$Vec3@M@2@0@Z 00447460 f   cinder:Camera.obj
 0001:00046590       ??0CameraPersp@cinder@@QAE@HHM@Z 00447590 f   cinder:Camera.obj
 0001:00046690       ?allocate@?$allocator@I@std@@QAEPAII@Z 00447690 f i cinder:VBO.obj
 0001:00046690       ?allocate@?$allocator@M@std@@QAEPAMI@Z 00447690 f i opencv_core230:matrix.obj
 0001:00046690       ?allocate@?$allocator@H@std@@QAEPAHI@Z 00447690 f i cinder:VBO.obj
 0001:000466f0       ?reserve@?$vector@HV?$allocator@H@std@@@std@@QAEXI@Z 004476f0 f i cinder:VBO.obj
 0001:00046770       ?_Reserve@?$vector@HV?$allocator@H@std@@@std@@IAEXI@Z 00447770 f i cinder:VBO.obj
 0001:000467d0       ?assign@?$basic_string@_WU?$char_traits@_W@std@@V?$allocator@_W@2@@std@@QAEAAV12@$$QAV12@@Z 004477d0 f i cinder:Text.obj
 0001:00046850       ??$_Allocate@G@std@@YAPAGIPAG@Z 00447850 f i cinder:Font.obj
 0001:000468b0       ?writeData@OStream@cinder@@QAEXPBXI@Z 004478b0 f   cinder:Stream.obj
 0001:000468c0       ?_Destroy@?$_Ref_count@UObj@Capture@cinder@@@tr1@std@@EAEXXZ 004478c0 f i cinder:Capture.obj
 0001:000468c0       ?_Destroy@?$_Ref_count@VRenderer@app@cinder@@@tr1@std@@EAEXXZ 004478c0 f i cinder:App.obj
 0001:000468c0       ?_Destroy@?$_Ref_count@VDevice@CaptureImplDirectShow@cinder@@@tr1@std@@EAEXXZ 004478c0 f i cinder:CaptureImplDirectShow.obj
 0001:000468c0       ?_Destroy@?$_Ref_count@VTimeline@cinder@@@tr1@std@@EAEXXZ 004478c0 f i cinder:App.obj
 0001:000468d0       ??$fill@PAII@std@@YAXPAI0ABI@Z 004478d0 f i cinder:CaptureImplDirectShow.obj
 0001:000468f0       ?_Destroy@?$_Ref_count@VCaptureMgr@cinder@@@tr1@std@@EAEXXZ 004478f0 f i cinder:CaptureImplDirectShow.obj
 0001:00046920       ?end@?$vector@_NV?$allocator@_N@std@@@std@@QAE?AV?$_Vb_iterator@V?$allocator@_N@std@@@2@XZ 00447920 f i cinder:CaptureImplDirectShow.obj
 0001:00046980       ??H?$_Vb_iterator@V?$allocator@_N@std@@@std@@QBE?AV01@H@Z 00447980 f i cinder:CaptureImplDirectShow.obj
 0001:000469e0       ??$_Resetp@VCaptureMgr@cinder@@@?$shared_ptr@VCaptureMgr@cinder@@@tr1@std@@AAEXPAVCaptureMgr@cinder@@@Z 004479e0 f i cinder:CaptureImplDirectShow.obj
 0001:00046a90       ??$_Resetp@VDevice@CaptureImplDirectShow@cinder@@@?$shared_ptr@VDevice@Capture@cinder@@@tr1@std@@AAEXPAVDevice@CaptureImplDirectShow@cinder@@@Z 00447a90 f i cinder:CaptureImplDirectShow.obj
 0001:00046b30       ?_Ufill@?$vector@IV?$allocator@I@std@@@std@@IAEPAIPAIIPBI@Z 00447b30 f i cinder:CaptureImplDirectShow.obj
 0001:00046b60       ?erase@?$vector@IV?$allocator@I@std@@@std@@QAE?AV?$_Vector_iterator@V?$_Vector_val@IV?$allocator@I@std@@@std@@@2@V?$_Vector_const_iterator@V?$_Vector_val@IV?$allocator@I@std@@@std@@@2@0@Z 00447b60 f i cinder:CaptureImplDirectShow.obj
 0001:00046bc0       ?_Insert_n@?$vector@IV?$allocator@I@std@@@std@@IAEXV?$_Vector_const_iterator@V?$_Vector_val@IV?$allocator@I@std@@@std@@@2@IABI@Z 00447bc0 f i cinder:CaptureImplDirectShow.obj
 0001:00046da0       ??$_Fill@V?$_Vb_iterator@V?$allocator@_N@std@@@std@@_N@std@@YAXV?$_Vb_iterator@V?$allocator@_N@std@@@0@0AB_N@Z 00447da0 f i cinder:CaptureImplDirectShow.obj
 0001:00046df0       ??$_Copy_backward@V?$_Vb_iterator@V?$allocator@_N@std@@@std@@V12@@std@@YA?AV?$_Vb_iterator@V?$allocator@_N@std@@@0@V10@00U_Nonscalar_ptr_iterator_tag@0@@Z 00447df0 f i cinder:CaptureImplDirectShow.obj
 0001:00046e70       ??1Device@Capture@cinder@@UAE@XZ 00447e70 f i cinder:CaptureImplDirectShow.obj
 0001:00046ea0       ??_GDevice@CaptureImplDirectShow@cinder@@UAEPAXI@Z 00447ea0 f i cinder:CaptureImplDirectShow.obj
 0001:00046ea0       ??_GDevice@Capture@cinder@@UAEPAXI@Z 00447ea0 f i cinder:CaptureImplDirectShow.obj
 0001:00046ea0       ??_EDevice@Capture@cinder@@UAEPAXI@Z 00447ea0 f i cinder:CaptureImplDirectShow.obj
 0001:00046ea0       ??_EDevice@CaptureImplDirectShow@cinder@@UAEPAXI@Z 00447ea0 f i cinder:CaptureImplDirectShow.obj
 0001:00046ef0       ?surfaceDeallocator@SurfaceCache@cinder@@SAXPAX@Z 00447ef0 f i cinder:CaptureImplDirectShow.obj
 0001:00046f50       ?_Construct_n@?$vector@IV?$allocator@I@std@@@std@@QAEXIPBI@Z 00447f50 f i cinder:CaptureImplDirectShow.obj
 0001:00046fc0       ??$_Uninit_move@PAU?$pair@PAVSurfaceCache@cinder@@H@std@@PAU12@V?$allocator@U?$pair@PAVSurfaceCache@cinder@@H@std@@@2@U12@@std@@YAPAU?$pair@PAVSurfaceCache@cinder@@H@0@PAU10@00AAV?$allocator@U?$pair@PAVSurfaceCache@cinder@@H@std@@@0@0U_Nonscalar_ptr_iterator_tag@0@@Z 00447fc0 f i cinder:CaptureImplDirectShow.obj
 0001:00046fc0       ??$_Uninit_move@PAV?$Vec@H$01@cv@@PAV12@V?$allocator@V?$Vec@H$01@cv@@@std@@V12@@std@@YAPAV?$Vec@H$01@cv@@PAV12@00AAV?$allocator@V?$Vec@H$01@cv@@@0@0U_Nonscalar_ptr_iterator_tag@0@@Z 00447fc0 f i opencv_core230:matrix.obj
 0001:00046ff0       ??4?$shared_ptr@UIWICBitmapEncoder@@@tr1@std@@QAEAAV012@$$QAV012@@Z 00447ff0 f i cinder:ImageTargetFileWic.obj
 0001:00046ff0       ??4?$shared_ptr@V?$basic_dostream@DU?$char_traits@D@std@@@msw@cinder@@@tr1@std@@QAEAAV012@$$QAV012@@Z 00447ff0 f i cinder:App.obj
 0001:00046ff0       ??4?$shared_ptr@UInst@ImageIoRegistrar@cinder@@@tr1@std@@QAEAAV012@$$QAV012@@Z 00447ff0 f i cinder:ImageIo.obj
 0001:00046ff0       ??4?$shared_ptr@VSurfaceCache@cinder@@@tr1@std@@QAEAAV012@$$QAV012@@Z 00447ff0 f i cinder:CaptureImplDirectShow.obj
 0001:00046ff0       ??4?$shared_ptr@UIWICBitmapFrameEncode@@@tr1@std@@QAEAAV012@$$QAV012@@Z 00447ff0 f i cinder:ImageTargetFileWic.obj
 0001:00046ff0       ??4?$shared_ptr@VCaptureMgr@cinder@@@tr1@std@@QAEAAV012@$$QAV012@@Z 00447ff0 f i cinder:CaptureImplDirectShow.obj
 0001:00046ff0       ??4?$shared_ptr@V?$map@V?$basic_string@DU?$char_traits@D@std@@V?$allocator@D@2@@std@@PBU_GUID@@U?$less@V?$basic_string@DU?$char_traits@D@std@@V?$allocator@D@2@@std@@@2@V?$allocator@U?$pair@$$CBV?$basic_string@DU?$char_traits@D@std@@V?$allocator@D@2@@std@@PBU_GUID@@@std@@@2@@std@@@tr1@std@@QAEAAV012@$$QAV012@@Z 00447ff0 f i cinder:ImageTargetFileWic.obj
 0001:00046ff0       ??4?$shared_ptr@E@tr1@std@@QAEAAV012@$$QAV012@@Z 00447ff0 f i cinder:Texture.obj
 0001:00047060       ??$copy_backward@V?$_Vb_iterator@V?$allocator@_N@std@@@std@@V12@@std@@YA?AV?$_Vb_iterator@V?$allocator@_N@std@@@0@V10@00@Z 00448060 f i cinder:CaptureImplDirectShow.obj
 0001:000470a0       ??$_Move@PAV?$shared_ptr@VDevice@Capture@cinder@@@tr1@std@@PAV123@@std@@YAPAV?$shared_ptr@VDevice@Capture@cinder@@@tr1@0@PAV120@00U_Nonscalar_ptr_iterator_tag@0@@Z 004480a0 f i cinder:CaptureImplDirectShow.obj
 0001:00047120       ?instance@CaptureMgr@cinder@@SA?AV?$shared_ptr@VCaptureMgr@cinder@@@tr1@std@@XZ 00448120 f   cinder:CaptureImplDirectShow.obj
 0001:00047230       ?getNewSurface@SurfaceCache@cinder@@QAE?AV?$SurfaceT@E@2@XZ 00448230 f i cinder:CaptureImplDirectShow.obj
 0001:00047420       ??1?$vector@_NV?$allocator@_N@std@@@std@@QAE@XZ 00448420 f i cinder:CaptureImplDirectShow.obj
 0001:00047450       ?_Insert_x@?$vector@_NV?$allocator@_N@std@@@std@@QAEIV?$_Vb_const_iterator@V?$allocator@_N@std@@@2@I@Z 00448450 f i cinder:CaptureImplDirectShow.obj
 0001:00047550       ?getUniqueId@Device@CaptureImplDirectShow@cinder@@UBEHXZ 00448550 f i cinder:CaptureImplDirectShow.obj
 0001:00047560       ?instanceVI@CaptureMgr@cinder@@SAPAVvideoInput@@XZ 00448560 f i cinder:CaptureImplDirectShow.obj
 0001:000475b0       ?checkAvailable@Device@CaptureImplDirectShow@cinder@@UBE_NXZ 004485b0 f   cinder:CaptureImplDirectShow.obj
 0001:00047630       ?isConnected@Device@CaptureImplDirectShow@cinder@@UBE_NXZ 00448630 f   cinder:CaptureImplDirectShow.obj
 0001:00047690       ??1CaptureImplDirectShow@cinder@@QAE@XZ 00448690 f   cinder:CaptureImplDirectShow.obj
 0001:00047800       ?start@CaptureImplDirectShow@cinder@@QAEXXZ 00448800 f   cinder:CaptureImplDirectShow.obj
 0001:000478f0       ??0CaptureExc@cinder@@QAE@ABV01@@Z 004488f0 f i cinder:CaptureImplDirectShow.obj
 0001:00047910       ??0CaptureExcInitFail@cinder@@QAE@ABV01@@Z 00448910 f i cinder:CaptureImplDirectShow.obj
 0001:00047930       ?getSurface@CaptureImplDirectShow@cinder@@QBE?AV?$SurfaceT@E@2@XZ 00448930 f   cinder:CaptureImplDirectShow.obj
 0001:00047aa0       ?_Insert_n@?$vector@_NV?$allocator@_N@std@@@std@@QAEXV?$_Vb_const_iterator@V?$allocator@_N@std@@@2@I_N@Z 00448aa0 f i cinder:CaptureImplDirectShow.obj
 0001:00047b40       ??$_Uninit_move@PAV?$shared_ptr@VDisplay@cinder@@@tr1@std@@PAV123@V?$allocator@V?$shared_ptr@VDisplay@cinder@@@tr1@std@@@3@V123@@std@@YAPAV?$shared_ptr@VDisplay@cinder@@@tr1@0@PAV120@00AAV?$allocator@V?$shared_ptr@VDisplay@cinder@@@tr1@std@@@0@0U_Nonscalar_ptr_iterator_tag@0@@Z 00448b40 f i cinder:Display.obj
 0001:00047b40       ??$_Uninit_move@PAV?$shared_ptr@VDevice@Capture@cinder@@@tr1@std@@PAV123@V?$allocator@V?$shared_ptr@VDevice@Capture@cinder@@@tr1@std@@@3@V123@@std@@YAPAV?$shared_ptr@VDevice@Capture@cinder@@@tr1@0@PAV120@00AAV?$allocator@V?$shared_ptr@VDevice@Capture@cinder@@@tr1@std@@@0@0U_Nonscalar_ptr_iterator_tag@0@@Z 00448b40 f i cinder:CaptureImplDirectShow.obj
 0001:00047b40       ??$_Uninit_move@PAV?$shared_ptr@E@tr1@std@@PAV123@V?$allocator@V?$shared_ptr@E@tr1@std@@@3@V123@@std@@YAPAV?$shared_ptr@E@tr1@0@PAV120@00AAV?$allocator@V?$shared_ptr@E@tr1@std@@@0@0U_Nonscalar_ptr_iterator_tag@0@@Z 00448b40 f i cinder:CaptureImplDirectShow.obj
 0001:00047b90       ?reserve@?$vector@V?$shared_ptr@E@tr1@std@@V?$allocator@V?$shared_ptr@E@tr1@std@@@3@@std@@QAEXI@Z 00448b90 f i cinder:CaptureImplDirectShow.obj
 0001:00047b90       ?reserve@?$vector@V?$shared_ptr@VDisplay@cinder@@@tr1@std@@V?$allocator@V?$shared_ptr@VDisplay@cinder@@@tr1@std@@@3@@std@@QAEXI@Z 00448b90 f i cinder:Display.obj
 0001:00047b90       ?reserve@?$vector@V?$shared_ptr@VDevice@Capture@cinder@@@tr1@std@@V?$allocator@V?$shared_ptr@VDevice@Capture@cinder@@@tr1@std@@@3@@std@@QAEXI@Z 00448b90 f i cinder:CaptureImplDirectShow.obj
 0001:00047c80       ?_Reserve@?$vector@V?$shared_ptr@E@tr1@std@@V?$allocator@V?$shared_ptr@E@tr1@std@@@3@@std@@IAEXI@Z 00448c80 f i cinder:CaptureImplDirectShow.obj
 0001:00047c80       ?_Reserve@?$vector@V?$shared_ptr@VDisplay@cinder@@@tr1@std@@V?$allocator@V?$shared_ptr@VDisplay@cinder@@@tr1@std@@@3@@std@@IAEXI@Z 00448c80 f i cinder:Display.obj
 0001:00047c80       ?_Reserve@?$vector@V?$shared_ptr@VDevice@Capture@cinder@@@tr1@std@@V?$allocator@V?$shared_ptr@VDevice@Capture@cinder@@@tr1@std@@@3@@std@@IAEXI@Z 00448c80 f i cinder:CaptureImplDirectShow.obj
 0001:00047ce0       ??1SurfaceCache@cinder@@QAE@XZ 00448ce0 f i cinder:CaptureImplDirectShow.obj
 0001:00047d50       ?push_back@?$vector@V?$shared_ptr@E@tr1@std@@V?$allocator@V?$shared_ptr@E@tr1@std@@@3@@std@@QAEX$$QAV?$shared_ptr@E@tr1@2@@Z 00448d50 f i cinder:CaptureImplDirectShow.obj
 0001:00047d50       ?push_back@?$vector@V?$shared_ptr@VDevice@Capture@cinder@@@tr1@std@@V?$allocator@V?$shared_ptr@VDevice@Capture@cinder@@@tr1@std@@@3@@std@@QAEX$$QAV?$shared_ptr@VDevice@Capture@cinder@@@tr1@2@@Z 00448d50 f i cinder:CaptureImplDirectShow.obj
 0001:00047e00       ?_Destroy@?$_Ref_count@VSurfaceCache@cinder@@@tr1@std@@EAEXXZ 00448e00 f i cinder:CaptureImplDirectShow.obj
 0001:00047e20       ?getDevices@CaptureImplDirectShow@cinder@@SAABV?$vector@V?$shared_ptr@VDevice@Capture@cinder@@@tr1@std@@V?$allocator@V?$shared_ptr@VDevice@Capture@cinder@@@tr1@std@@@3@@std@@_N@Z 00448e20 f   cinder:CaptureImplDirectShow.obj
 0001:000480c0       ??$_Resetp@VSurfaceCache@cinder@@@?$shared_ptr@VSurfaceCache@cinder@@@tr1@std@@AAEXPAVSurfaceCache@cinder@@@Z 004490c0 f i cinder:CaptureImplDirectShow.obj
 0001:00048160       ??0SurfaceCache@cinder@@QAE@HHVSurfaceChannelOrder@1@H@Z 00449160 f i cinder:CaptureImplDirectShow.obj
 0001:000483c0       ??0CaptureImplDirectShow@cinder@@QAE@HHV?$shared_ptr@VDevice@Capture@cinder@@@tr1@std@@@Z 004493c0 f   cinder:CaptureImplDirectShow.obj
 0001:000486e0       ?destroy@sp_counted_base@detail@boost@@UAEXXZ 004496e0 f i cinder:CinderMsw.obj
 0001:000486f0       ??_Esp_counted_base@detail@boost@@UAEPAXI@Z 004496f0 f i cinder:CinderMsw.obj
 0001:000486f0       ??_E?$sp_counted_impl_pd@PAUdelete_data@?$thread_specific_ptr@UComInitializer@msw@cinder@@@boost@@U?$do_heap_delete@Udelete_data@?$thread_specific_ptr@UComInitializer@msw@cinder@@@boost@@@detail@3@@detail@boost@@UAEPAXI@Z 004496f0 f i cinder:CinderMsw.obj
 0001:000486f0       ??_G?$sp_counted_impl_pd@PAUdelete_data@?$thread_specific_ptr@UComInitializer@msw@cinder@@@boost@@U?$do_heap_delete@Udelete_data@?$thread_specific_ptr@UComInitializer@msw@cinder@@@boost@@@detail@3@@detail@boost@@UAEPAXI@Z 004496f0 f i cinder:CinderMsw.obj
 0001:000486f0       ??_Gsp_counted_base@detail@boost@@UAEPAXI@Z 004496f0 f i cinder:CinderMsw.obj
 0001:00048720       _IsEqualGUID               00449720 f i cinder:CinderMsw.obj
 0001:00048790       ?free_raw_heap_memory@detail@boost@@YAXPAX@Z 00449790 f i cinder:CinderMsw.obj
 0001:000487b0       ??_Gdelete_data@?$thread_specific_ptr@UComInitializer@msw@cinder@@@boost@@UAEPAXI@Z 004497b0 f i cinder:CinderMsw.obj
 0001:000487b0       ??_Gtss_cleanup_function@detail@boost@@UAEPAXI@Z 004497b0 f i cinder:CinderMsw.obj
 0001:000487b0       ??_Etss_cleanup_function@detail@boost@@UAEPAXI@Z 004497b0 f i cinder:CinderMsw.obj
 0001:000487b0       ??_Edelete_data@?$thread_specific_ptr@UComInitializer@msw@cinder@@@boost@@UAEPAXI@Z 004497b0 f i cinder:CinderMsw.obj
 0001:000487e0       ?ComDelete@msw@cinder@@YAXPAX@Z 004497e0 f   cinder:CinderMsw.obj
 0001:00048800       ?QueryInterface@ComOStream@msw@cinder@@UAGJABU_GUID@@PAPAX@Z 00449800 f   cinder:CinderMsw.obj
 0001:00048860       ?AddRef@ComOStream@msw@cinder@@UAGKXZ 00449860 f   cinder:CinderMsw.obj
 0001:00048880       ?get_deleter@?$sp_counted_impl_pd@PAUdelete_data@?$thread_specific_ptr@UComInitializer@msw@cinder@@@boost@@U?$do_heap_delete@Udelete_data@?$thread_specific_ptr@UComInitializer@msw@cinder@@@boost@@@detail@3@@detail@boost@@UAEPAXABVtype_info@@@Z 00449880 f i cinder:CinderMsw.obj
 0001:000488b0       ??1?$shared_ptr@Utss_cleanup_function@detail@boost@@@boost@@QAE@XZ 004498b0 f i cinder:CinderMsw.obj
 0001:000488f0       ??Rdelete_data@?$thread_specific_ptr@UComInitializer@msw@cinder@@@boost@@UAEXPAX@Z 004498f0 f i cinder:CinderMsw.obj
 0001:00048910       ??R?$do_heap_delete@Udelete_data@?$thread_specific_ptr@UComInitializer@msw@cinder@@@boost@@@detail@boost@@QBEXPAUdelete_data@?$thread_specific_ptr@UComInitializer@msw@cinder@@@2@@Z 00449910 f i cinder:CinderMsw.obj
 0001:00048940       ?dispose@?$sp_counted_impl_pd@PAUdelete_data@?$thread_specific_ptr@UComInitializer@msw@cinder@@@boost@@U?$do_heap_delete@Udelete_data@?$thread_specific_ptr@UComInitializer@msw@cinder@@@boost@@@detail@3@@detail@boost@@UAEXXZ 00449940 f i cinder:CinderMsw.obj
 0001:00048960       ?Write@ComOStream@msw@cinder@@UAGJPBXKPAK@Z 00449960 f   cinder:CinderMsw.obj
 0001:00048990       ?Seek@ComOStream@msw@cinder@@UAGJT_LARGE_INTEGER@@KPAT_ULARGE_INTEGER@@@Z 00449990 f   cinder:CinderMsw.obj
 0001:00048a30       ??1?$thread_specific_ptr@UComInitializer@msw@cinder@@@boost@@QAE@XZ 00449a30 f i cinder:CinderMsw.obj
 0001:00048ad0       ??0?$error_info_injector@Vbad_alloc@std@@@exception_detail@boost@@QAE@ABU012@@Z 00449ad0 f i cinder:CinderMsw.obj
 0001:00048b70       ??_E?$error_info_injector@Vbad_alloc@std@@@exception_detail@boost@@WM@AEPAXI@Z 00449b70 f i cinder:CinderMsw.obj
 0001:00048b80       ??1?$error_info_injector@Vbad_alloc@std@@@exception_detail@boost@@UAE@XZ 00449b80 f i cinder:CinderMsw.obj
 0001:00048bc0       ??1?$clone_impl@U?$error_info_injector@Vbad_alloc@std@@@exception_detail@boost@@@exception_detail@boost@@UAE@XZ 00449bc0 f i cinder:CinderMsw.obj
 0001:00048c10       ??$?0PAUdelete_data@?$thread_specific_ptr@UComInitializer@msw@cinder@@@boost@@U?$do_heap_delete@Udelete_data@?$thread_specific_ptr@UComInitializer@msw@cinder@@@boost@@@detail@2@@shared_count@detail@boost@@QAE@PAUdelete_data@?$thread_specific_ptr@UComInitializer@msw@cinder@@@2@U?$do_heap_delete@Udelete_data@?$thread_specific_ptr@UComInitializer@msw@cinder@@@boost@@@12@@Z 00449c10 f i cinder:CinderMsw.obj
 0001:00048ca0       ?initializeCom@msw@cinder@@YAXK@Z 00449ca0 f   cinder:CinderMsw.obj
 0001:00048d30       ??_G?$error_info_injector@Vbad_alloc@std@@@exception_detail@boost@@UAEPAXI@Z 00449d30 f i cinder:CinderMsw.obj
 0001:00048d30       ??_E?$error_info_injector@Vbad_alloc@std@@@exception_detail@boost@@UAEPAXI@Z 00449d30 f i cinder:CinderMsw.obj
 0001:00048d90       ??$enable_error_info@Vbad_alloc@std@@@boost@@YA?AU?$error_info_injector@Vbad_alloc@std@@@exception_detail@0@ABVbad_alloc@std@@@Z 00449d90 f i cinder:CinderMsw.obj
 0001:00048de0       ??_E?$clone_impl@U?$error_info_injector@Vbad_alloc@std@@@exception_detail@boost@@@exception_detail@boost@@WCA@AEPAXI@Z 00449de0 f i cinder:CinderMsw.obj
 0001:00048df0       ??_E?$clone_impl@U?$error_info_injector@Vbad_alloc@std@@@exception_detail@boost@@@exception_detail@boost@@WM@AEPAXI@Z 00449df0 f i cinder:CinderMsw.obj
 0001:00048e00       ??0?$clone_impl@U?$error_info_injector@Vbad_alloc@std@@@exception_detail@boost@@@exception_detail@boost@@QAE@ABV012@@Z 00449e00 f i cinder:CinderMsw.obj
 0001:00048e40       ??_E?$clone_impl@U?$error_info_injector@Vbad_alloc@std@@@exception_detail@boost@@@exception_detail@boost@@UAEPAXI@Z 00449e40 f i cinder:CinderMsw.obj
 0001:00048e40       ??_G?$clone_impl@U?$error_info_injector@Vbad_alloc@std@@@exception_detail@boost@@@exception_detail@boost@@UAEPAXI@Z 00449e40 f i cinder:CinderMsw.obj
 0001:00048ea0       ?clone@?$clone_impl@U?$error_info_injector@Vbad_alloc@std@@@exception_detail@boost@@@exception_detail@boost@@EBEPBVclone_base@23@XZ 00449ea0 f i cinder:CinderMsw.obj
 0001:00048f20       ?rethrow@?$clone_impl@U?$error_info_injector@Vbad_alloc@std@@@exception_detail@boost@@@exception_detail@boost@@EBEXXZ 00449f20 f i cinder:CinderMsw.obj
 0001:00048f60       ??$enable_current_exception@U?$error_info_injector@Vbad_alloc@std@@@exception_detail@boost@@@boost@@YA?AV?$clone_impl@U?$error_info_injector@Vbad_alloc@std@@@exception_detail@boost@@@exception_detail@0@ABU?$error_info_injector@Vbad_alloc@std@@@20@@Z 00449f60 f i cinder:CinderMsw.obj
 0001:00048ff0       ?Release@ComOStream@msw@cinder@@UAGKXZ 00449ff0 f   cinder:CinderMsw.obj
 0001:00049050       ??$throw_exception@Vbad_alloc@std@@@boost@@YAXABVbad_alloc@std@@@Z 0044a050 f i cinder:CinderMsw.obj
 0001:000490b0       ??$heap_new@Udelete_data@?$thread_specific_ptr@UComInitializer@msw@cinder@@@boost@@@detail@boost@@YAPAUdelete_data@?$thread_specific_ptr@UComInitializer@msw@cinder@@@1@XZ 0044a0b0 f i cinder:CinderMsw.obj
 0001:000495a0       ?translateNativeKeyCode@KeyEvent@app@cinder@@SAHH@Z 0044a5a0 f   cinder:KeyEvent.obj
 0001:000495d0       ?min@?$math@M@cinder@@SAMMM@Z 0044a5d0 f i cinder:TimelineItem.obj
 0001:00049600       ?loopTime@TimelineItem@cinder@@IAEMM@Z 0044a600 f   cinder:TimelineItem.obj
 0001:00049690       ?updateDuration@TimelineItem@cinder@@IBEXXZ 0044a690 f   cinder:TimelineItem.obj
 0001:00049700       ?stepTo@TimelineItem@cinder@@QAEXM_N@Z 0044a700 f   cinder:TimelineItem.obj
 0001:000498e0       ??0TimelineItem@cinder@@QAE@PAVTimeline@1@PAXMM@Z 0044a8e0 f   cinder:TimelineItem.obj
 0001:00049960       ?_Destroy@?$_Ref_count@VImageSourceFileWic@cinder@@@tr1@std@@EAEXXZ 0044a960 f i cinder:ImageSourceFileWic.obj
 0001:00049960       ?_Destroy@?$_Ref_count@VImageTargetFileWic@cinder@@@tr1@std@@EAEXXZ 0044a960 f i cinder:ImageTargetFileWic.obj
 0001:00049980       ?_Get_deleter@?$_Ref_count_del@UIWICBitmapEncoder@@P6AXPAX@Z@tr1@std@@UBEPAXABVtype_info@@@Z 0044a980 f i cinder:ImageTargetFileWic.obj
 0001:00049980       ?_Get_deleter@?$_Ref_count_del@VComOStream@msw@cinder@@P6AXPAX@Z@tr1@std@@UBEPAXABVtype_info@@@Z 0044a980 f i cinder:ImageTargetFileWic.obj
 0001:00049980       ?_Get_deleter@?$_Ref_count_del@UIWICBitmapFrameDecode@@P6AXPAX@Z@tr1@std@@UBEPAXABVtype_info@@@Z 0044a980 f i cinder:ImageSourceFileWic.obj
 0001:00049980       ?_Get_deleter@?$_Ref_count_del@UIWICImagingFactory@@P6AXPAX@Z@tr1@std@@UBEPAXABVtype_info@@@Z 0044a980 f i cinder:ImageSourceFileWic.obj
 0001:00049980       ?_Get_deleter@?$_Ref_count_del@UIWICBitmapDecoder@@P6AXPAX@Z@tr1@std@@UBEPAXABVtype_info@@@Z 0044a980 f i cinder:ImageSourceFileWic.obj
 0001:00049980       ?_Get_deleter@?$_Ref_count_del@UIWICFormatConverter@@P6AXPAX@Z@tr1@std@@UBEPAXABVtype_info@@@Z 0044a980 f i cinder:ImageSourceFileWic.obj
 0001:00049980       ?_Get_deleter@?$_Ref_count_del@UIWICBitmapFrameEncode@@P6AXPAX@Z@tr1@std@@UBEPAXABVtype_info@@@Z 0044a980 f i cinder:ImageTargetFileWic.obj
 0001:00049980       ?_Get_deleter@?$_Ref_count_del@UIWICStream@@P6AXPAX@Z@tr1@std@@UBEPAXABVtype_info@@@Z 0044a980 f i cinder:ImageSourceFileWic.obj
 0001:000499b0       ?_Delete_this@?$_Ref_count_del@UIWICBitmapFrameEncode@@P6AXPAX@Z@tr1@std@@EAEXXZ 0044a9b0 f i cinder:ImageTargetFileWic.obj
 0001:000499b0       ?_Delete_this@?$_Ref_count_del@EU?$checked_array_deleter@E@boost@@@tr1@std@@EAEXXZ 0044a9b0 f i cinder:Texture.obj
 0001:000499b0       ?_Delete_this@?$_Ref_count_del@UIWICFormatConverter@@P6AXPAX@Z@tr1@std@@EAEXXZ 0044a9b0 f i cinder:ImageSourceFileWic.obj
 0001:000499b0       ?_Delete_this@?$_Ref_count@VDevice@CaptureImplDirectShow@cinder@@@tr1@std@@EAEXXZ 0044a9b0 f i cinder:CaptureImplDirectShow.obj
 0001:000499b0       ?_Delete_this@?$_Ref_count@UObj@Texture@gl@cinder@@@tr1@std@@EAEXXZ 0044a9b0 f i cinder:Texture.obj
 0001:000499b0       ?_Delete_this@?$_Ref_count@UObj@?$ChannelT@E@cinder@@@tr1@std@@EAEXXZ 0044a9b0 f i cinder:Channel.obj
 0001:000499b0       ?_Delete_this@?$_Ref_count_del@UIWICBitmapFrameDecode@@P6AXPAX@Z@tr1@std@@EAEXXZ 0044a9b0 f i cinder:ImageSourceFileWic.obj
 0001:000499b0       ?_Delete_this@?$_Ref_count_del@VComOStream@msw@cinder@@P6AXPAX@Z@tr1@std@@EAEXXZ 0044a9b0 f i cinder:ImageTargetFileWic.obj
 0001:000499b0       ?_Delete_this@?$_Ref_count@VDisplay@cinder@@@tr1@std@@EAEXXZ 0044a9b0 f i cinder:Display.obj
 0001:000499b0       ?_Delete_this@?$_Ref_count_del@UtagTOUCHINPUT@@U?$checked_array_deleter@UtagTOUCHINPUT@@@boost@@@tr1@std@@EAEXXZ 0044a9b0 f i cinder:AppImplMswBasic.obj
 0001:000499b0       ?_Delete_this@?$_Ref_count@VCaptureMgr@cinder@@@tr1@std@@EAEXXZ 0044a9b0 f i cinder:CaptureImplDirectShow.obj
 0001:000499b0       ?_Delete_this@?$_Ref_count_del@UIWICImagingFactory@@P6AXPAX@Z@tr1@std@@EAEXXZ 0044a9b0 f i cinder:ImageSourceFileWic.obj
 0001:000499b0       ?_Delete_this@?$_Ref_count_del@UIWICBitmapEncoder@@P6AXPAX@Z@tr1@std@@EAEXXZ 0044a9b0 f i cinder:ImageTargetFileWic.obj
 0001:000499b0       ?_Delete_this@?$_Ref_count@VTimeline@cinder@@@tr1@std@@EAEXXZ 0044a9b0 f i cinder:App.obj
 0001:000499b0       ?_Delete_this@?$_Ref_count_del@UIWICStream@@P6AXPAX@Z@tr1@std@@EAEXXZ 0044a9b0 f i cinder:ImageSourceFileWic.obj
 0001:000499b0       ?_Delete_this@?$_Ref_count@V?$map@V?$basic_string@DU?$char_traits@D@std@@V?$allocator@D@2@@std@@PBU_GUID@@U?$less@V?$basic_string@DU?$char_traits@D@std@@V?$allocator@D@2@@std@@@2@V?$allocator@U?$pair@$$CBV?$basic_string@DU?$char_traits@D@std@@V?$allocator@D@2@@std@@PBU_GUID@@@std@@@2@@std@@@tr1@std@@EAEXXZ 0044a9b0 f i cinder:ImageTargetFileWic.obj
 0001:000499b0       ?_Delete_this@?$_Ref_count@V?$basic_dostream@DU?$char_traits@D@std@@@msw@cinder@@@tr1@std@@EAEXXZ 0044a9b0 f i cinder:App.obj
 0001:000499b0       ?_Delete_this@?$_Ref_count@VSurfaceCache@cinder@@@tr1@std@@EAEXXZ 0044a9b0 f i cinder:CaptureImplDirectShow.obj
 0001:000499b0       ?_Delete_this@?$_Ref_count@VImageSourceFileWic@cinder@@@tr1@std@@EAEXXZ 0044a9b0 f i cinder:ImageSourceFileWic.obj
 0001:000499b0       ?_Delete_this@?$_Ref_count_del@EP6AXPAE@Z@tr1@std@@EAEXXZ 0044a9b0 f i cinder:Texture.obj
 0001:000499b0       ?_Delete_this@?$_Ref_count@UInst@ImageIoRegistrar@cinder@@@tr1@std@@EAEXXZ 0044a9b0 f i cinder:ImageIo.obj
 0001:000499b0       ?_Delete_this@?$_Ref_count_del@UIWICBitmapDecoder@@P6AXPAX@Z@tr1@std@@EAEXXZ 0044a9b0 f i cinder:ImageSourceFileWic.obj
 0001:000499b0       ?_Delete_this@?$_Ref_count@UObj@Capture@cinder@@@tr1@std@@EAEXXZ 0044a9b0 f i cinder:Capture.obj
 0001:000499b0       ?_Delete_this@?$_Ref_count@VImageTargetFileWic@cinder@@@tr1@std@@EAEXXZ 0044a9b0 f i cinder:ImageTargetFileWic.obj
 0001:000499b0       ?_Delete_this@?$_Ref_count@VRenderer@app@cinder@@@tr1@std@@EAEXXZ 0044a9b0 f i cinder:App.obj
 0001:000499b0       ?_Delete_this@?$_Ref_count@UObj@?$SurfaceT@E@cinder@@@tr1@std@@EAEXXZ 0044a9b0 f i cinder:Surface.obj
 0001:000499c0       ?_Destroy@?$_Ref_count_del@UIWICStream@@P6AXPAX@Z@tr1@std@@EAEXXZ 0044a9c0 f i cinder:ImageSourceFileWic.obj
 0001:000499c0       ?_Destroy@?$_Ref_count_del@EP6AXPAE@Z@tr1@std@@EAEXXZ 0044a9c0 f i cinder:Texture.obj
 0001:000499c0       ?_Destroy@?$_Ref_count_del@UIWICBitmapDecoder@@P6AXPAX@Z@tr1@std@@EAEXXZ 0044a9c0 f i cinder:ImageSourceFileWic.obj
 0001:000499c0       ?_Destroy@?$_Ref_count_del@VComOStream@msw@cinder@@P6AXPAX@Z@tr1@std@@EAEXXZ 0044a9c0 f i cinder:ImageTargetFileWic.obj
 0001:000499c0       ?_Destroy@?$_Ref_count_del@UIWICBitmapEncoder@@P6AXPAX@Z@tr1@std@@EAEXXZ 0044a9c0 f i cinder:ImageTargetFileWic.obj
 0001:000499c0       ?_Destroy@?$_Ref_count_del@UIWICImagingFactory@@P6AXPAX@Z@tr1@std@@EAEXXZ 0044a9c0 f i cinder:ImageSourceFileWic.obj
 0001:000499c0       ?_Destroy@?$_Ref_count_del@UIWICFormatConverter@@P6AXPAX@Z@tr1@std@@EAEXXZ 0044a9c0 f i cinder:ImageSourceFileWic.obj
 0001:000499c0       ?_Destroy@?$_Ref_count_del@UIWICBitmapFrameDecode@@P6AXPAX@Z@tr1@std@@EAEXXZ 0044a9c0 f i cinder:ImageSourceFileWic.obj
 0001:000499c0       ?_Destroy@?$_Ref_count_del@UIWICBitmapFrameEncode@@P6AXPAX@Z@tr1@std@@EAEXXZ 0044a9c0 f i cinder:ImageTargetFileWic.obj
 0001:000499d0       ?processFormat@ImageSourceFileWic@cinder@@IAE_NABU_GUID@@PAU3@@Z 0044a9d0 f   cinder:ImageSourceFileWic.obj
 0001:00049cf0       ??_G?$_Ref_count@VImageSourceFileWic@cinder@@@tr1@std@@UAEPAXI@Z 0044acf0 f i cinder:ImageSourceFileWic.obj
 0001:00049cf0       ??_E?$_Ref_count_del@UIWICBitmapEncoder@@P6AXPAX@Z@tr1@std@@UAEPAXI@Z 0044acf0 f i cinder:ImageTargetFileWic.obj
 0001:00049cf0       ??_E?$_Ref_count_del@UIWICBitmapFrameEncode@@P6AXPAX@Z@tr1@std@@UAEPAXI@Z 0044acf0 f i cinder:ImageTargetFileWic.obj
 0001:00049cf0       ??_G?$_Ref_count@V?$map@V?$basic_string@DU?$char_traits@D@std@@V?$allocator@D@2@@std@@PBU_GUID@@U?$less@V?$basic_string@DU?$char_traits@D@std@@V?$allocator@D@2@@std@@@2@V?$allocator@U?$pair@$$CBV?$basic_string@DU?$char_traits@D@std@@V?$allocator@D@2@@std@@PBU_GUID@@@std@@@2@@std@@@tr1@std@@UAEPAXI@Z 0044acf0 f i cinder:ImageTargetFileWic.obj
 0001:00049cf0       ??_G?$_Ref_count@VDevice@CaptureImplDirectShow@cinder@@@tr1@std@@UAEPAXI@Z 0044acf0 f i cinder:CaptureImplDirectShow.obj
 0001:00049cf0       ??_E?$_Ref_count_del@UIWICStream@@P6AXPAX@Z@tr1@std@@UAEPAXI@Z 0044acf0 f i cinder:ImageSourceFileWic.obj
 0001:00049cf0       ??_E?$_Ref_count@VCaptureMgr@cinder@@@tr1@std@@UAEPAXI@Z 0044acf0 f i cinder:CaptureImplDirectShow.obj
 0001:00049cf0       ??_G?$_Ref_count_del@UIWICBitmapEncoder@@P6AXPAX@Z@tr1@std@@UAEPAXI@Z 0044acf0 f i cinder:ImageTargetFileWic.obj
 0001:00049cf0       ??_E_Ref_count_base@tr1@std@@UAEPAXI@Z 0044acf0 f i cinder:App.obj
 0001:00049cf0       ??_E?$_Ref_count@UObj@Texture@gl@cinder@@@tr1@std@@UAEPAXI@Z 0044acf0 f i cinder:Texture.obj
 0001:00049cf0       ??_E?$_Ref_count@V?$map@V?$basic_string@DU?$char_traits@D@std@@V?$allocator@D@2@@std@@PBU_GUID@@U?$less@V?$basic_string@DU?$char_traits@D@std@@V?$allocator@D@2@@std@@@2@V?$allocator@U?$pair@$$CBV?$basic_string@DU?$char_traits@D@std@@V?$allocator@D@2@@std@@PBU_GUID@@@std@@@2@@std@@@tr1@std@@UAEPAXI@Z 0044acf0 f i cinder:ImageTargetFileWic.obj
 0001:00049cf0       ??_G?$_Ref_count_del@UIWICBitmapFrameEncode@@P6AXPAX@Z@tr1@std@@UAEPAXI@Z 0044acf0 f i cinder:ImageTargetFileWic.obj
 0001:00049cf0       ??_G?$_Ref_count@VCaptureMgr@cinder@@@tr1@std@@UAEPAXI@Z 0044acf0 f i cinder:CaptureImplDirectShow.obj
 0001:00049cf0       ??_G?$_Ref_count_del@UtagTOUCHINPUT@@U?$checked_array_deleter@UtagTOUCHINPUT@@@boost@@@tr1@std@@UAEPAXI@Z 0044acf0 f i cinder:AppImplMswBasic.obj
 0001:00049cf0       ??_E?$_Ref_count@VSurfaceCache@cinder@@@tr1@std@@UAEPAXI@Z 0044acf0 f i cinder:CaptureImplDirectShow.obj
 0001:00049cf0       ??_E?$_Ref_count_del@EU?$checked_array_deleter@E@boost@@@tr1@std@@UAEPAXI@Z 0044acf0 f i cinder:Texture.obj
 0001:00049cf0       ??_E?$_Ref_count@UObj@Capture@cinder@@@tr1@std@@UAEPAXI@Z 0044acf0 f i cinder:Capture.obj
 0001:00049cf0       ??_G?$_Ref_count@VImageTargetFileWic@cinder@@@tr1@std@@UAEPAXI@Z 0044acf0 f i cinder:ImageTargetFileWic.obj
 0001:00049cf0       ??_G?$_Ref_count_del@EU?$checked_array_deleter@E@boost@@@tr1@std@@UAEPAXI@Z 0044acf0 f i cinder:Texture.obj
 0001:00049cf0       ??_G_Ref_count_base@tr1@std@@UAEPAXI@Z 0044acf0 f i cinder:App.obj
 0001:00049cf0       ??_G?$_Ref_count@UObj@Capture@cinder@@@tr1@std@@UAEPAXI@Z 0044acf0 f i cinder:Capture.obj
 0001:00049cf0       ??_E?$_Ref_count_del@EP6AXPAE@Z@tr1@std@@UAEPAXI@Z 0044acf0 f i cinder:Texture.obj
 0001:00049cf0       ??_E?$_Ref_count@V?$basic_dostream@DU?$char_traits@D@std@@@msw@cinder@@@tr1@std@@UAEPAXI@Z 0044acf0 f i cinder:App.obj
 0001:00049cf0       ??_E?$_Ref_count@VDevice@CaptureImplDirectShow@cinder@@@tr1@std@@UAEPAXI@Z 0044acf0 f i cinder:CaptureImplDirectShow.obj
 0001:00049cf0       ??_E?$_Ref_count_del@VComOStream@msw@cinder@@P6AXPAX@Z@tr1@std@@UAEPAXI@Z 0044acf0 f i cinder:ImageTargetFileWic.obj
 0001:00049cf0       ??_E?$_Ref_count@VImageSourceFileWic@cinder@@@tr1@std@@UAEPAXI@Z 0044acf0 f i cinder:ImageSourceFileWic.obj
 0001:00049cf0       ??_E?$_Ref_count_del@UIWICBitmapFrameDecode@@P6AXPAX@Z@tr1@std@@UAEPAXI@Z 0044acf0 f i cinder:ImageSourceFileWic.obj
 0001:00049cf0       ??_E?$_Ref_count_del@UIWICFormatConverter@@P6AXPAX@Z@tr1@std@@UAEPAXI@Z 0044acf0 f i cinder:ImageSourceFileWic.obj
 0001:00049cf0       ??_G?$_Ref_count@V?$basic_dostream@DU?$char_traits@D@std@@@msw@cinder@@@tr1@std@@UAEPAXI@Z 0044acf0 f i cinder:App.obj
 0001:00049cf0       ??_E?$_Ref_count@VTimeline@cinder@@@tr1@std@@UAEPAXI@Z 0044acf0 f i cinder:App.obj
 0001:00049cf0       ??_G?$_Ref_count@UInst@ImageIoRegistrar@cinder@@@tr1@std@@UAEPAXI@Z 0044acf0 f i cinder:ImageIo.obj
 0001:00049cf0       ??_G?$_Ref_count_del@UIWICStream@@P6AXPAX@Z@tr1@std@@UAEPAXI@Z 0044acf0 f i cinder:ImageSourceFileWic.obj
 0001:00049cf0       ??_G?$_Ref_count_del@EP6AXPAE@Z@tr1@std@@UAEPAXI@Z 0044acf0 f i cinder:Texture.obj
 0001:00049cf0       ??_G?$_Ref_count@UObj@Texture@gl@cinder@@@tr1@std@@UAEPAXI@Z 0044acf0 f i cinder:Texture.obj
 0001:00049cf0       ??_E?$_Ref_count@VDisplay@cinder@@@tr1@std@@UAEPAXI@Z 0044acf0 f i cinder:Display.obj
 0001:00049cf0       ??_G?$_Ref_count@VTimeline@cinder@@@tr1@std@@UAEPAXI@Z 0044acf0 f i cinder:App.obj
 0001:00049cf0       ??_E?$_Ref_count@UObj@?$SurfaceT@E@cinder@@@tr1@std@@UAEPAXI@Z 0044acf0 f i cinder:Surface.obj
 0001:00049cf0       ??_G?$_Ref_count@UObj@?$SurfaceT@E@cinder@@@tr1@std@@UAEPAXI@Z 0044acf0 f i cinder:Surface.obj
 0001:00049cf0       ??_E?$_Ref_count@VRenderer@app@cinder@@@tr1@std@@UAEPAXI@Z 0044acf0 f i cinder:App.obj
 0001:00049cf0       ??_E?$_Ref_count_del@UIWICBitmapDecoder@@P6AXPAX@Z@tr1@std@@UAEPAXI@Z 0044acf0 f i cinder:ImageSourceFileWic.obj
 0001:00049cf0       ??_E?$_Ref_count@UObj@?$ChannelT@E@cinder@@@tr1@std@@UAEPAXI@Z 0044acf0 f i cinder:Channel.obj
 0001:00049cf0       ??_G?$_Ref_count@VSurfaceCache@cinder@@@tr1@std@@UAEPAXI@Z 0044acf0 f i cinder:CaptureImplDirectShow.obj
 0001:00049cf0       ??_E?$_Ref_count_del@UtagTOUCHINPUT@@U?$checked_array_deleter@UtagTOUCHINPUT@@@boost@@@tr1@std@@UAEPAXI@Z 0044acf0 f i cinder:AppImplMswBasic.obj
 0001:00049cf0       ??_G?$_Ref_count@VRenderer@app@cinder@@@tr1@std@@UAEPAXI@Z 0044acf0 f i cinder:App.obj
 0001:00049cf0       ??_G?$_Ref_count_del@VComOStream@msw@cinder@@P6AXPAX@Z@tr1@std@@UAEPAXI@Z 0044acf0 f i cinder:ImageTargetFileWic.obj
 0001:00049cf0       ??_E?$_Ref_count@VImageTargetFileWic@cinder@@@tr1@std@@UAEPAXI@Z 0044acf0 f i cinder:ImageTargetFileWic.obj
 0001:00049cf0       ??_E?$_Ref_count_del@UIWICImagingFactory@@P6AXPAX@Z@tr1@std@@UAEPAXI@Z 0044acf0 f i cinder:ImageSourceFileWic.obj
 0001:00049cf0       ??_G?$_Ref_count_del@UIWICImagingFactory@@P6AXPAX@Z@tr1@std@@UAEPAXI@Z 0044acf0 f i cinder:ImageSourceFileWic.obj
 0001:00049cf0       ??_E?$_Ref_count@UInst@ImageIoRegistrar@cinder@@@tr1@std@@UAEPAXI@Z 0044acf0 f i cinder:ImageIo.obj
 0001:00049cf0       ??_G?$_Ref_count_del@UIWICBitmapFrameDecode@@P6AXPAX@Z@tr1@std@@UAEPAXI@Z 0044acf0 f i cinder:ImageSourceFileWic.obj
 0001:00049cf0       ??_G?$_Ref_count@UObj@?$ChannelT@E@cinder@@@tr1@std@@UAEPAXI@Z 0044acf0 f i cinder:Channel.obj
 0001:00049cf0       ??_G?$_Ref_count@VDisplay@cinder@@@tr1@std@@UAEPAXI@Z 0044acf0 f i cinder:Display.obj
 0001:00049cf0       ??_G?$_Ref_count_del@UIWICFormatConverter@@P6AXPAX@Z@tr1@std@@UAEPAXI@Z 0044acf0 f i cinder:ImageSourceFileWic.obj
 0001:00049cf0       ??_G?$_Ref_count_del@UIWICBitmapDecoder@@P6AXPAX@Z@tr1@std@@UAEPAXI@Z 0044acf0 f i cinder:ImageSourceFileWic.obj
 0001:00049d20       ??$_Resetp@VImageSourceFileWic@cinder@@@?$shared_ptr@VImageSourceFileWic@cinder@@@tr1@std@@AAEXPAVImageSourceFileWic@cinder@@@Z 0044ad20 f i cinder:ImageSourceFileWic.obj
 0001:00049dc0       ??$_Resetp@UIWICImagingFactory@@P6AXPAX@Z@?$shared_ptr@UIWICImagingFactory@@@tr1@std@@AAEXPAUIWICImagingFactory@@P6AXPAX@Z@Z 0044adc0 f i cinder:ImageSourceFileWic.obj
 0001:00049e60       ??$_Resetp@UIWICStream@@P6AXPAX@Z@?$shared_ptr@UIWICStream@@@tr1@std@@AAEXPAUIWICStream@@P6AXPAX@Z@Z 0044ae60 f i cinder:ImageSourceFileWic.obj
 0001:00049f00       ??$_Resetp@UIWICBitmapDecoder@@P6AXPAX@Z@?$shared_ptr@UIWICBitmapDecoder@@@tr1@std@@AAEXPAUIWICBitmapDecoder@@P6AXPAX@Z@Z 0044af00 f i cinder:ImageSourceFileWic.obj
 0001:00049fa0       ??$_Resetp@UIWICBitmapFrameDecode@@P6AXPAX@Z@?$shared_ptr@UIWICBitmapFrameDecode@@@tr1@std@@AAEXPAUIWICBitmapFrameDecode@@P6AXPAX@Z@Z 0044afa0 f i cinder:ImageSourceFileWic.obj
 0001:0004a040       ??$_Resetp@UIWICFormatConverter@@P6AXPAX@Z@?$shared_ptr@UIWICFormatConverter@@@tr1@std@@AAEXPAUIWICFormatConverter@@P6AXPAX@Z@Z 0044b040 f i cinder:ImageSourceFileWic.obj
 0001:0004a0e0       ?load@ImageSourceFileWic@cinder@@UAEXV?$shared_ptr@VImageTarget@cinder@@@tr1@std@@@Z 0044b0e0 f   cinder:ImageSourceFileWic.obj
 0001:0004a200       ??$makeComShared@UIWICImagingFactory@@@msw@cinder@@YA?AV?$shared_ptr@UIWICImagingFactory@@@tr1@std@@PAUIWICImagingFactory@@@Z 0044b200 f i cinder:ImageSourceFileWic.obj
 0001:0004a230       ??$makeComShared@UIWICStream@@@msw@cinder@@YA?AV?$shared_ptr@UIWICStream@@@tr1@std@@PAUIWICStream@@@Z 0044b230 f i cinder:ImageSourceFileWic.obj
 0001:0004a260       ??$makeComShared@UIWICBitmapDecoder@@@msw@cinder@@YA?AV?$shared_ptr@UIWICBitmapDecoder@@@tr1@std@@PAUIWICBitmapDecoder@@@Z 0044b260 f i cinder:ImageSourceFileWic.obj
 0001:0004a290       ??$makeComShared@UIWICBitmapFrameDecode@@@msw@cinder@@YA?AV?$shared_ptr@UIWICBitmapFrameDecode@@@tr1@std@@PAUIWICBitmapFrameDecode@@@Z 0044b290 f i cinder:ImageSourceFileWic.obj
 0001:0004a2c0       ??$makeComShared@UIWICFormatConverter@@@msw@cinder@@YA?AV?$shared_ptr@UIWICFormatConverter@@@tr1@std@@PAUIWICFormatConverter@@@Z 0044b2c0 f i cinder:ImageSourceFileWic.obj
 0001:0004a2f0       ??0ImageSourceFileWic@cinder@@IAE@V?$shared_ptr@VDataSource@cinder@@@tr1@std@@VOptions@ImageSource@1@@Z 0044b2f0 f   cinder:ImageSourceFileWic.obj
 0001:0004a810       ??_EImageSourceFileWic@cinder@@UAEPAXI@Z 0044b810 f i cinder:ImageSourceFileWic.obj
 0001:0004a810       ??_GImageSourceFileWic@cinder@@UAEPAXI@Z 0044b810 f i cinder:ImageSourceFileWic.obj
 0001:0004a8a0       ?createFileWicRef@ImageSourceFileWic@cinder@@SA?AV?$shared_ptr@VImageSourceFileWic@cinder@@@tr1@std@@V?$shared_ptr@VDataSource@cinder@@@45@VOptions@ImageSource@2@@Z 0044b8a0 f   cinder:ImageSourceFileWic.obj
 0001:0004a970       ?createRef@ImageSourceFileWic@cinder@@SA?AV?$shared_ptr@VImageSource@cinder@@@tr1@std@@V?$shared_ptr@VDataSource@cinder@@@45@VOptions@ImageSource@2@@Z 0044b970 f i cinder:ImageSourceFileWic.obj
 0001:0004aa60       ?registerSelf@ImageSourceFileWic@cinder@@SAXXZ 0044ba60 f   cinder:ImageSourceFileWic.obj
 0001:0004aa70       ?_Max@?$_Tree_val@V?$_Tmap_traits@V?$basic_string@DU?$char_traits@D@std@@V?$allocator@D@2@@std@@PBU_GUID@@U?$less@V?$basic_string@DU?$char_traits@D@std@@V?$allocator@D@2@@std@@@2@V?$allocator@U?$pair@$$CBV?$basic_string@DU?$char_traits@D@std@@V?$allocator@D@2@@std@@PBU_GUID@@@std@@@2@$0A@@std@@@std@@SAPAU_Node@?$_Tree_nod@V?$_Tmap_traits@V?$basic_string@DU?$char_traits@D@std@@V?$allocator@D@2@@std@@PBU_GUID@@U?$less@V?$basic_string@DU?$char_traits@D@std@@V?$allocator@D@2@@std@@@2@V?$allocator@U?$pair@$$CBV?$basic_string@DU?$char_traits@D@std@@V?$allocator@D@2@@std@@PBU_GUID@@@std@@@2@$0A@@std@@@2@PAU342@@Z 0044ba70 f i cinder:ImageTargetFileWic.obj
 0001:0004aa90       ?_Min@?$_Tree_val@V?$_Tmap_traits@V?$basic_string@DU?$char_traits@D@std@@V?$allocator@D@2@@std@@PBU_GUID@@U?$less@V?$basic_string@DU?$char_traits@D@std@@V?$allocator@D@2@@std@@@2@V?$allocator@U?$pair@$$CBV?$basic_string@DU?$char_traits@D@std@@V?$allocator@D@2@@std@@PBU_GUID@@@std@@@2@$0A@@std@@@std@@SAPAU_Node@?$_Tree_nod@V?$_Tmap_traits@V?$basic_string@DU?$char_traits@D@std@@V?$allocator@D@2@@std@@PBU_GUID@@U?$less@V?$basic_string@DU?$char_traits@D@std@@V?$allocator@D@2@@std@@@2@V?$allocator@U?$pair@$$CBV?$basic_string@DU?$char_traits@D@std@@V?$allocator@D@2@@std@@PBU_GUID@@@std@@@2@$0A@@std@@@2@PAU342@@Z 0044ba90 f i cinder:ImageTargetFileWic.obj
 0001:0004aab0       ??E?$_Tree_unchecked_const_iterator@V?$_Tree_val@V?$_Tmap_traits@V?$basic_string@DU?$char_traits@D@std@@V?$allocator@D@2@@std@@PBU_GUID@@U?$less@V?$basic_string@DU?$char_traits@D@std@@V?$allocator@D@2@@std@@@2@V?$allocator@U?$pair@$$CBV?$basic_string@DU?$char_traits@D@std@@V?$allocator@D@2@@std@@PBU_GUID@@@std@@@2@$0A@@std@@@std@@U_Iterator_base0@2@@std@@QAEAAV01@XZ 0044bab0 f i cinder:ImageTargetFileWic.obj
 0001:0004ab00       ??F?$_Tree_unchecked_const_iterator@V?$_Tree_val@V?$_Tmap_traits@V?$basic_string@DU?$char_traits@D@std@@V?$allocator@D@2@@std@@PBU_GUID@@U?$less@V?$basic_string@DU?$char_traits@D@std@@V?$allocator@D@2@@std@@@2@V?$allocator@U?$pair@$$CBV?$basic_string@DU?$char_traits@D@std@@V?$allocator@D@2@@std@@PBU_GUID@@@std@@@2@$0A@@std@@@std@@U_Iterator_base0@2@@std@@QAEAAV01@XZ 0044bb00 f i cinder:ImageTargetFileWic.obj
 0001:0004ab60       ?setupPixelFormat@ImageTargetFileWic@cinder@@IAEXABU_GUID@@@Z 0044bb60 f   cinder:ImageTargetFileWic.obj
 0001:0004adb0       ?_Lrotate@?$_Tree@V?$_Tmap_traits@V?$basic_string@DU?$char_traits@D@std@@V?$allocator@D@2@@std@@PBU_GUID@@U?$less@V?$basic_string@DU?$char_traits@D@std@@V?$allocator@D@2@@std@@@2@V?$allocator@U?$pair@$$CBV?$basic_string@DU?$char_traits@D@std@@V?$allocator@D@2@@std@@PBU_GUID@@@std@@@2@$0A@@std@@@std@@IAEXPAU_Node@?$_Tree_nod@V?$_Tmap_traits@V?$basic_string@DU?$char_traits@D@std@@V?$allocator@D@2@@std@@PBU_GUID@@U?$less@V?$basic_string@DU?$char_traits@D@std@@V?$allocator@D@2@@std@@@2@V?$allocator@U?$pair@$$CBV?$basic_string@DU?$char_traits@D@std@@V?$allocator@D@2@@std@@PBU_GUID@@@std@@@2@$0A@@std@@@2@@Z 0044bdb0 f i cinder:ImageTargetFileWic.obj
 0001:0004ae10       ?_Rrotate@?$_Tree@V?$_Tmap_traits@V?$basic_string@DU?$char_traits@D@std@@V?$allocator@D@2@@std@@PBU_GUID@@U?$less@V?$basic_string@DU?$char_traits@D@std@@V?$allocator@D@2@@std@@@2@V?$allocator@U?$pair@$$CBV?$basic_string@DU?$char_traits@D@std@@V?$allocator@D@2@@std@@PBU_GUID@@@std@@@2@$0A@@std@@@std@@IAEXPAU_Node@?$_Tree_nod@V?$_Tmap_traits@V?$basic_string@DU?$char_traits@D@std@@V?$allocator@D@2@@std@@PBU_GUID@@U?$less@V?$basic_string@DU?$char_traits@D@std@@V?$allocator@D@2@@std@@@2@V?$allocator@U?$pair@$$CBV?$basic_string@DU?$char_traits@D@std@@V?$allocator@D@2@@std@@PBU_GUID@@@std@@@2@$0A@@std@@@2@@Z 0044be10 f i cinder:ImageTargetFileWic.obj
 0001:0004ae70       ?getRowPointer@ImageTargetFileWic@cinder@@UAEPAXH@Z 0044be70 f   cinder:ImageTargetFileWic.obj
 0001:0004ae90       ?finalize@ImageTargetFileWic@cinder@@UAEXXZ 0044be90 f   cinder:ImageTargetFileWic.obj
 0001:0004af40       ?_Lbound@?$_Tree@V?$_Tmap_traits@V?$basic_string@DU?$char_traits@D@std@@V?$allocator@D@2@@std@@PBU_GUID@@U?$less@V?$basic_string@DU?$char_traits@D@std@@V?$allocator@D@2@@std@@@2@V?$allocator@U?$pair@$$CBV?$basic_string@DU?$char_traits@D@std@@V?$allocator@D@2@@std@@PBU_GUID@@@std@@@2@$0A@@std@@@std@@IAEPAU_Node@?$_Tree_nod@V?$_Tmap_traits@V?$basic_string@DU?$char_traits@D@std@@V?$allocator@D@2@@std@@PBU_GUID@@U?$less@V?$basic_string@DU?$char_traits@D@std@@V?$allocator@D@2@@std@@@2@V?$allocator@U?$pair@$$CBV?$basic_string@DU?$char_traits@D@std@@V?$allocator@D@2@@std@@PBU_GUID@@@std@@@2@$0A@@std@@@2@ABV?$basic_string@DU?$char_traits@D@std@@V?$allocator@D@2@@2@@Z 0044bf40 f i cinder:ImageTargetFileWic.obj
 0001:0004afd0       ??$_Resetp@VImageTargetFileWic@cinder@@@?$shared_ptr@VImageTarget@cinder@@@tr1@std@@AAEXPAVImageTargetFileWic@cinder@@@Z 0044bfd0 f i cinder:ImageTargetFileWic.obj
 0001:0004b070       ??$_Resetp@UIWICBitmapEncoder@@P6AXPAX@Z@?$shared_ptr@UIWICBitmapEncoder@@@tr1@std@@AAEXPAUIWICBitmapEncoder@@P6AXPAX@Z@Z 0044c070 f i cinder:ImageTargetFileWic.obj
 0001:0004b110       ??$_Resetp@VComOStream@msw@cinder@@P6AXPAX@Z@?$shared_ptr@VComOStream@msw@cinder@@@tr1@std@@AAEXPAVComOStream@msw@cinder@@P6AXPAX@Z@Z 0044c110 f i cinder:ImageTargetFileWic.obj
 0001:0004b1b0       ??$_Resetp@UIWICBitmapFrameEncode@@P6AXPAX@Z@?$shared_ptr@UIWICBitmapFrameEncode@@@tr1@std@@AAEXPAUIWICBitmapFrameEncode@@P6AXPAX@Z@Z 0044c1b0 f i cinder:ImageTargetFileWic.obj
 0001:0004b250       ??0ComOStream@msw@cinder@@QAE@V?$shared_ptr@VOStream@cinder@@@tr1@std@@@Z 0044c250 f i cinder:ImageTargetFileWic.obj
 0001:0004b2f0       ?Read@ComOStream@msw@cinder@@UAGJPAXKPAK@Z 0044c2f0 f i cinder:ImageTargetFileWic.obj
 0001:0004b300       ?SetSize@ComOStream@msw@cinder@@UAGJT_ULARGE_INTEGER@@@Z 0044c300 f i cinder:ImageTargetFileWic.obj
 0001:0004b300       ?Stat@ComOStream@msw@cinder@@UAGJPAUtagSTATSTG@@K@Z 0044c300 f i cinder:ImageTargetFileWic.obj
 0001:0004b310       ?UnlockRegion@ComOStream@msw@cinder@@UAGJT_ULARGE_INTEGER@@0K@Z 0044c310 f i cinder:ImageTargetFileWic.obj
 0001:0004b310       ?LockRegion@ComOStream@msw@cinder@@UAGJT_ULARGE_INTEGER@@0K@Z 0044c310 f i cinder:ImageTargetFileWic.obj
 0001:0004b310       ?CopyTo@ComOStream@msw@cinder@@UAGJPAUIStream@@T_ULARGE_INTEGER@@PAT5@2@Z 0044c310 f i cinder:ImageTargetFileWic.obj
 0001:0004b320       ?Revert@ComOStream@msw@cinder@@UAGJXZ 0044c320 f i cinder:ImageTargetFileWic.obj
 0001:0004b330       ?Commit@ComOStream@msw@cinder@@UAGJK@Z 0044c330 f i cinder:ImageTargetFileWic.obj
 0001:0004b330       ?Clone@ComOStream@msw@cinder@@UAGJPAPAUIStream@@@Z 0044c330 f i cinder:ImageTargetFileWic.obj
 0001:0004b340       ??$makeComShared@UIWICBitmapEncoder@@@msw@cinder@@YA?AV?$shared_ptr@UIWICBitmapEncoder@@@tr1@std@@PAUIWICBitmapEncoder@@@Z 0044c340 f i cinder:ImageTargetFileWic.obj
 0001:0004b370       ??$makeComShared@VComOStream@msw@cinder@@@msw@cinder@@YA?AV?$shared_ptr@VComOStream@msw@cinder@@@tr1@std@@PAVComOStream@01@@Z 0044c370 f i cinder:ImageTargetFileWic.obj
 0001:0004b3a0       ??$makeComShared@UIWICBitmapFrameEncode@@@msw@cinder@@YA?AV?$shared_ptr@UIWICBitmapFrameEncode@@@tr1@std@@PAUIWICBitmapFrameEncode@@@Z 0044c3a0 f i cinder:ImageTargetFileWic.obj
 0001:0004b3d0       ?_Insert@?$_Tree@V?$_Tmap_traits@V?$basic_string@DU?$char_traits@D@std@@V?$allocator@D@2@@std@@PBU_GUID@@U?$less@V?$basic_string@DU?$char_traits@D@std@@V?$allocator@D@2@@std@@@2@V?$allocator@U?$pair@$$CBV?$basic_string@DU?$char_traits@D@std@@V?$allocator@D@2@@std@@PBU_GUID@@@std@@@2@$0A@@std@@@std@@IAE?AV?$_Tree_iterator@V?$_Tree_val@V?$_Tmap_traits@V?$basic_string@DU?$char_traits@D@std@@V?$allocator@D@2@@std@@PBU_GUID@@U?$less@V?$basic_string@DU?$char_traits@D@std@@V?$allocator@D@2@@std@@@2@V?$allocator@U?$pair@$$CBV?$basic_string@DU?$char_traits@D@std@@V?$allocator@D@2@@std@@PBU_GUID@@@std@@@2@$0A@@std@@@std@@@2@_NPAU_Node@?$_Tree_nod@V?$_Tmap_traits@V?$basic_string@DU?$char_traits@D@std@@V?$allocator@D@2@@std@@PBU_GUID@@U?$less@V?$basic_string@DU?$char_traits@D@std@@V?$allocator@D@2@@std@@@2@V?$allocator@U?$pair@$$CBV?$basic_string@DU?$char_traits@D@std@@V?$allocator@D@2@@std@@PBU_GUID@@@std@@@2@$0A@@std@@@2@1@Z 0044c3d0 f i cinder:ImageTargetFileWic.obj
 0001:0004b620       ?erase@?$_Tree@V?$_Tmap_traits@V?$basic_string@DU?$char_traits@D@std@@V?$allocator@D@2@@std@@PBU_GUID@@U?$less@V?$basic_string@DU?$char_traits@D@std@@V?$allocator@D@2@@std@@@2@V?$allocator@U?$pair@$$CBV?$basic_string@DU?$char_traits@D@std@@V?$allocator@D@2@@std@@PBU_GUID@@@std@@@2@$0A@@std@@@std@@QAE?AV?$_Tree_iterator@V?$_Tree_val@V?$_Tmap_traits@V?$basic_string@DU?$char_traits@D@std@@V?$allocator@D@2@@std@@PBU_GUID@@U?$less@V?$basic_string@DU?$char_traits@D@std@@V?$allocator@D@2@@std@@@2@V?$allocator@U?$pair@$$CBV?$basic_string@DU?$char_traits@D@std@@V?$allocator@D@2@@std@@PBU_GUID@@@std@@@2@$0A@@std@@@std@@@2@V?$_Tree_const_iterator@V?$_Tree_val@V?$_Tmap_traits@V?$basic_string@DU?$char_traits@D@std@@V?$allocator@D@2@@std@@PBU_GUID@@U?$less@V?$basic_string@DU?$char_traits@D@std@@V?$allocator@D@2@@std@@@2@V?$allocator@U?$pair@$$CBV?$basic_string@DU?$char_traits@D@std@@V?$allocator@D@2@@std@@PBU_GUID@@@std@@@2@$0A@@std@@@std@@@2@@Z 0044c620 f i cinder:ImageTargetFileWic.obj
 0001:0004b8a0       ?_Erase@?$_Tree@V?$_Tmap_traits@V?$basic_string@DU?$char_traits@D@std@@V?$allocator@D@2@@std@@PBU_GUID@@U?$less@V?$basic_string@DU?$char_traits@D@std@@V?$allocator@D@2@@std@@@2@V?$allocator@U?$pair@$$CBV?$basic_string@DU?$char_traits@D@std@@V?$allocator@D@2@@std@@PBU_GUID@@@std@@@2@$0A@@std@@@std@@IAEXPAU_Node@?$_Tree_nod@V?$_Tmap_traits@V?$basic_string@DU?$char_traits@D@std@@V?$allocator@D@2@@std@@PBU_GUID@@U?$less@V?$basic_string@DU?$char_traits@D@std@@V?$allocator@D@2@@std@@@2@V?$allocator@U?$pair@$$CBV?$basic_string@DU?$char_traits@D@std@@V?$allocator@D@2@@std@@PBU_GUID@@@std@@@2@$0A@@std@@@2@@Z 0044c8a0 f i cinder:ImageTargetFileWic.obj
 0001:0004b900       ?_Linsert@?$_Tree@V?$_Tmap_traits@V?$basic_string@DU?$char_traits@D@std@@V?$allocator@D@2@@std@@PBU_GUID@@U?$less@V?$basic_string@DU?$char_traits@D@std@@V?$allocator@D@2@@std@@@2@V?$allocator@U?$pair@$$CBV?$basic_string@DU?$char_traits@D@std@@V?$allocator@D@2@@std@@PBU_GUID@@@std@@@2@$0A@@std@@@std@@QAE?AU?$pair@V?$_Tree_iterator@V?$_Tree_val@V?$_Tmap_traits@V?$basic_string@DU?$char_traits@D@std@@V?$allocator@D@2@@std@@PBU_GUID@@U?$less@V?$basic_string@DU?$char_traits@D@std@@V?$allocator@D@2@@std@@@2@V?$allocator@U?$pair@$$CBV?$basic_string@DU?$char_traits@D@std@@V?$allocator@D@2@@std@@PBU_GUID@@@std@@@2@$0A@@std@@@std@@@std@@_N@2@PAU_Node@?$_Tree_nod@V?$_Tmap_traits@V?$basic_string@DU?$char_traits@D@std@@V?$allocator@D@2@@std@@PBU_GUID@@U?$less@V?$basic_string@DU?$char_traits@D@std@@V?$allocator@D@2@@std@@@2@V?$allocator@U?$pair@$$CBV?$basic_string@DU?$char_traits@D@std@@V?$allocator@D@2@@std@@PBU_GUID@@@std@@@2@$0A@@std@@@2@_N@Z 0044c900 f i cinder:ImageTargetFileWic.obj
 0001:0004bac0       ?_Insert@?$_Tree@V?$_Tmap_traits@V?$basic_string@DU?$char_traits@D@std@@V?$allocator@D@2@@std@@PBU_GUID@@U?$less@V?$basic_string@DU?$char_traits@D@std@@V?$allocator@D@2@@std@@@2@V?$allocator@U?$pair@$$CBV?$basic_string@DU?$char_traits@D@std@@V?$allocator@D@2@@std@@PBU_GUID@@@std@@@2@$0A@@std@@@std@@QAE?AV?$_Tree_iterator@V?$_Tree_val@V?$_Tmap_traits@V?$basic_string@DU?$char_traits@D@std@@V?$allocator@D@2@@std@@PBU_GUID@@U?$less@V?$basic_string@DU?$char_traits@D@std@@V?$allocator@D@2@@std@@@2@V?$allocator@U?$pair@$$CBV?$basic_string@DU?$char_traits@D@std@@V?$allocator@D@2@@std@@PBU_GUID@@@std@@@2@$0A@@std@@@std@@@2@V?$_Tree_const_iterator@V?$_Tree_val@V?$_Tmap_traits@V?$basic_string@DU?$char_traits@D@std@@V?$allocator@D@2@@std@@PBU_GUID@@U?$less@V?$basic_string@DU?$char_traits@D@std@@V?$allocator@D@2@@std@@@2@V?$allocator@U?$pair@$$CBV?$basic_string@DU?$char_traits@D@std@@V?$allocator@D@2@@std@@PBU_GUID@@@std@@@2@$0A@@std@@@std@@@2@PAU_Node@?$_Tree_nod@V?$_Tmap_traits@V?$basic_string@DU?$char_traits@D@std@@V?$allocator@D@2@@std@@PBU_GUID@@U?$less@V?$basic_string@DU?$char_traits@D@std@@V?$allocator@D@2@@std@@@2@V?$allocator@U?$pair@$$CBV?$basic_string@DU?$char_traits@D@std@@V?$allocator@D@2@@std@@PBU_GUID@@@std@@@2@$0A@@std@@@2@@Z 0044cac0 f i cinder:ImageTargetFileWic.obj
 0001:0004bc80       ??$_Buynode@U?$pair@$$CBV?$basic_string@DU?$char_traits@D@std@@V?$allocator@D@2@@std@@PBU_GUID@@@std@@@?$_Tree_val@V?$_Tmap_traits@V?$basic_string@DU?$char_traits@D@std@@V?$allocator@D@2@@std@@PBU_GUID@@U?$less@V?$basic_string@DU?$char_traits@D@std@@V?$allocator@D@2@@std@@@2@V?$allocator@U?$pair@$$CBV?$basic_string@DU?$char_traits@D@std@@V?$allocator@D@2@@std@@PBU_GUID@@@std@@@2@$0A@@std@@@std@@QAEPAU_Node@?$_Tree_nod@V?$_Tmap_traits@V?$basic_string@DU?$char_traits@D@std@@V?$allocator@D@2@@std@@PBU_GUID@@U?$less@V?$basic_string@DU?$char_traits@D@std@@V?$allocator@D@2@@std@@@2@V?$allocator@U?$pair@$$CBV?$basic_string@DU?$char_traits@D@std@@V?$allocator@D@2@@std@@PBU_GUID@@@std@@@2@$0A@@std@@@1@$$QAU?$pair@$$CBV?$basic_string@DU?$char_traits@D@std@@V?$allocator@D@2@@std@@PBU_GUID@@@1@@Z 0044cc80 f i cinder:ImageTargetFileWic.obj
 0001:0004bd60       ?erase@?$_Tree@V?$_Tmap_traits@V?$basic_string@DU?$char_traits@D@std@@V?$allocator@D@2@@std@@PBU_GUID@@U?$less@V?$basic_string@DU?$char_traits@D@std@@V?$allocator@D@2@@std@@@2@V?$allocator@U?$pair@$$CBV?$basic_string@DU?$char_traits@D@std@@V?$allocator@D@2@@std@@PBU_GUID@@@std@@@2@$0A@@std@@@std@@QAE?AV?$_Tree_iterator@V?$_Tree_val@V?$_Tmap_traits@V?$basic_string@DU?$char_traits@D@std@@V?$allocator@D@2@@std@@PBU_GUID@@U?$less@V?$basic_string@DU?$char_traits@D@std@@V?$allocator@D@2@@std@@@2@V?$allocator@U?$pair@$$CBV?$basic_string@DU?$char_traits@D@std@@V?$allocator@D@2@@std@@PBU_GUID@@@std@@@2@$0A@@std@@@std@@@2@V?$_Tree_const_iterator@V?$_Tree_val@V?$_Tmap_traits@V?$basic_string@DU?$char_traits@D@std@@V?$allocator@D@2@@std@@PBU_GUID@@U?$less@V?$basic_string@DU?$char_traits@D@std@@V?$allocator@D@2@@std@@@2@V?$allocator@U?$pair@$$CBV?$basic_string@DU?$char_traits@D@std@@V?$allocator@D@2@@std@@PBU_GUID@@@std@@@2@$0A@@std@@@std@@@2@0@Z 0044cd60 f i cinder:ImageTargetFileWic.obj
 0001:0004be20       ??A?$map@V?$basic_string@DU?$char_traits@D@std@@V?$allocator@D@2@@std@@PBU_GUID@@U?$less@V?$basic_string@DU?$char_traits@D@std@@V?$allocator@D@2@@std@@@2@V?$allocator@U?$pair@$$CBV?$basic_string@DU?$char_traits@D@std@@V?$allocator@D@2@@std@@PBU_GUID@@@std@@@2@@std@@QAEAAPBU_GUID@@ABV?$basic_string@DU?$char_traits@D@std@@V?$allocator@D@2@@1@@Z 0044ce20 f i cinder:ImageTargetFileWic.obj
 0001:0004bf00       ?_Destroy@?$_Ref_count@V?$map@V?$basic_string@DU?$char_traits@D@std@@V?$allocator@D@2@@std@@PBU_GUID@@U?$less@V?$basic_string@DU?$char_traits@D@std@@V?$allocator@D@2@@std@@@2@V?$allocator@U?$pair@$$CBV?$basic_string@DU?$char_traits@D@std@@V?$allocator@D@2@@std@@PBU_GUID@@@std@@@2@@std@@@tr1@std@@EAEXXZ 0044cf00 f i cinder:ImageTargetFileWic.obj
 0001:0004bf70       ??$_Resetp@V?$map@V?$basic_string@DU?$char_traits@D@std@@V?$allocator@D@2@@std@@PBU_GUID@@U?$less@V?$basic_string@DU?$char_traits@D@std@@V?$allocator@D@2@@std@@@2@V?$allocator@U?$pair@$$CBV?$basic_string@DU?$char_traits@D@std@@V?$allocator@D@2@@std@@PBU_GUID@@@std@@@2@@std@@@?$shared_ptr@V?$map@V?$basic_string@DU?$char_traits@D@std@@V?$allocator@D@2@@std@@PBU_GUID@@U?$less@V?$basic_string@DU?$char_traits@D@std@@V?$allocator@D@2@@std@@@2@V?$allocator@U?$pair@$$CBV?$basic_string@DU?$char_traits@D@std@@V?$allocator@D@2@@std@@PBU_GUID@@@std@@@2@@std@@@tr1@std@@AAEXPAV?$map@V?$basic_string@DU?$char_traits@D@std@@V?$allocator@D@2@@std@@PBU_GUID@@U?$less@V?$basic_string@DU?$char_traits@D@std@@V?$allocator@D@2@@std@@@2@V?$allocator@U?$pair@$$CBV?$basic_string@DU?$char_traits@D@std@@V?$allocator@D@2@@std@@PBU_GUID@@@std@@@2@@2@@Z 0044cf70 f i cinder:ImageTargetFileWic.obj
 0001:0004c030       ?getExtensionMap@?A0xc7a9d0a7@cinder@@YAAAV?$map@V?$basic_string@DU?$char_traits@D@std@@V?$allocator@D@2@@std@@PBU_GUID@@U?$less@V?$basic_string@DU?$char_traits@D@std@@V?$allocator@D@2@@std@@@2@V?$allocator@U?$pair@$$CBV?$basic_string@DU?$char_traits@D@std@@V?$allocator@D@2@@std@@PBU_GUID@@@std@@@2@@std@@XZ 0044d030 f   cinder:ImageTargetFileWic.obj
 0001:0004c170       ??0ImageTargetFileWic@cinder@@IAE@V?$shared_ptr@VDataTarget@cinder@@@tr1@std@@V?$shared_ptr@VImageSource@cinder@@@34@VOptions@ImageTarget@1@ABV?$basic_string@DU?$char_traits@D@std@@V?$allocator@D@2@@4@@Z 0044d170 f   cinder:ImageTargetFileWic.obj
 0001:0004c8c0       ??1ImageTargetFileWic@cinder@@UAE@XZ 0044d8c0 f i cinder:ImageTargetFileWic.obj
 0001:0004c9e0       ??_GImageTargetFileWic@cinder@@UAEPAXI@Z 0044d9e0 f i cinder:ImageTargetFileWic.obj
 0001:0004c9e0       ??_EImageTargetFileWic@cinder@@UAEPAXI@Z 0044d9e0 f i cinder:ImageTargetFileWic.obj
 0001:0004ca10       ?createRef@ImageTargetFileWic@cinder@@SA?AV?$shared_ptr@VImageTarget@cinder@@@tr1@std@@V?$shared_ptr@VDataTarget@cinder@@@45@V?$shared_ptr@VImageSource@cinder@@@45@VOptions@ImageTarget@2@ABV?$basic_string@DU?$char_traits@D@std@@V?$allocator@D@2@@5@@Z 0044da10 f   cinder:ImageTargetFileWic.obj
 0001:0004cb50       ?registerSelf@ImageTargetFileWic@cinder@@SAXXZ 0044db50 f   cinder:ImageTargetFileWic.obj
 0001:0004d050       _heapAlloc                 0044e050 f   cinder:tess.obj
 0001:0004d070       _heapRealloc               0044e070 f   cinder:tess.obj
 0001:0004d090       _heapFree                  0044e090 f   cinder:tess.obj
 0001:0004d0b0       ?MyDeleteMediaType@@YAXPAU_AMMediaType@@@Z 0044e0b0 f   cinder:videoInput.obj
 0001:0004d100       ?AddRef@SampleGrabberCallback@@UAGKXZ 0044e100 f i cinder:videoInput.obj
 0001:0004d110       ?Release@SampleGrabberCallback@@UAGKXZ 0044e110 f i cinder:videoInput.obj
 0001:0004d120       ?QueryInterface@SampleGrabberCallback@@UAGJABU_GUID@@PAPAX@Z 0044e120 f i cinder:videoInput.obj
 0001:0004d140       ?SampleCB@SampleGrabberCallback@@UAGJNPAUIMediaSample@@@Z 0044e140 f i cinder:videoInput.obj
 0001:0004d1e0       ?BufferCB@SampleGrabberCallback@@UAGJNPAEJ@Z 0044e1e0 f i cinder:videoInput.obj
 0001:0004d1f0       ?setSize@videoDevice@@QAEXHH@Z 0044e1f0 f   cinder:videoInput.obj
 0001:0004d290       ?NukeDownstream@videoDevice@@QAEXPAUIBaseFilter@@@Z 0044e290 f   cinder:videoInput.obj
 0001:0004d3f0       ?destroyGraph@videoDevice@@QAEXXZ 0044e3f0 f   cinder:videoInput.obj
 0001:0004d5b0       ?setUseCallback@videoInput@@QAEX_N@Z 0044e5b0 f   cinder:videoInput.obj
 0001:0004d5e0       ?getDeviceName@videoInput@@SAPADH@Z 0044e5e0 f   cinder:videoInput.obj
 0001:0004d600       ?isDeviceSetup@videoInput@@QAE_NH@Z 0044e600 f   cinder:videoInput.obj
 0001:0004d630       ?isDeviceConnected@videoInput@@QAE_NH@Z 0044e630 f   cinder:videoInput.obj
 0001:0004d660       ?setPhyCon@videoInput@@AAEXHH@Z 0044e660 f   cinder:videoInput.obj
 0001:0004d740       ?processPixels@videoInput@@AAEXPAE0HH_N1@Z 0044e740 f   cinder:videoInput.obj
 0001:0004d860       ?getMediaSubtypeAsString@videoInput@@AAEXU_GUID@@PAD@Z 0044e860 f   cinder:videoInput.obj
 0001:0004df50       ?getDeviceCount@videoInput@@AAEHXZ 0044ef50 f   cinder:videoInput.obj
 0001:0004e040       ?getDevice@videoInput@@AAEJPAPAUIBaseFilter@@HPA_WPAD@Z 0044f040 f   cinder:videoInput.obj
 0001:0004e1e0       ?routeCrossbar@videoInput@@AAEJPAPAUICaptureGraphBuilder2@@PAPAUIBaseFilter@@HU_GUID@@@Z 0044f1e0 f   cinder:videoInput.obj
 0001:0004e420       ??0videoDevice@@QAE@XZ     0044f420 f   cinder:videoInput.obj
 0001:0004e510       ??1videoDevice@@QAE@XZ     0044f510 f   cinder:videoInput.obj
 0001:0004e8c0       ??0videoInput@@QAE@XZ      0044f8c0 f   cinder:videoInput.obj
 0001:0004ee50       ?setFormat@videoInput@@QAE_NHH@Z 0044fe50 f   cinder:videoInput.obj
 0001:0004efd0       ?listDevices@videoInput@@SAH_N@Z 0044ffd0 f   cinder:videoInput.obj
 0001:0004f1d0       ?getWidth@videoInput@@QAEHH@Z 004501d0 f   cinder:videoInput.obj
 0001:0004f200       ?getHeight@videoInput@@QAEHH@Z 00450200 f   cinder:videoInput.obj
 0001:0004f230       ?getPixels@videoInput@@QAE_NHPAE_N1@Z 00450230 f   cinder:videoInput.obj
 0001:0004f3a0       ??1videoInput@@QAE@XZ      004503a0 f   cinder:videoInput.obj
 0001:0004f3f0       ?stopDevice@videoInput@@QAEXH@Z 004503f0 f   cinder:videoInput.obj
 0001:0004f480       ?start@videoInput@@AAEHHPAVvideoDevice@@@Z 00450480 f   cinder:videoInput.obj
 0001:0004fe70       ?setup@videoInput@@AAE_NH@Z 00450e70 f   cinder:videoInput.obj
 0001:0004ff10       ?setupDevice@videoInput@@QAE_NHHH@Z 00450f10 f   cinder:videoInput.obj
 0001:0004ff60       ?setupDevice@videoInput@@QAE_NHHHH@Z 00450f60 f   cinder:videoInput.obj
 0001:0004ffd0       ?restartDevice@videoInput@@QAE_NH@Z 00450fd0 f   cinder:videoInput.obj
 0001:000500a0       ?isFrameNew@videoInput@@QAE_NH@Z 004510a0 f   cinder:videoInput.obj
 0001:000501e0       _adler32                   004511e0 f   cinder:adler32.obj
 0001:00050710       _crc32                     00451710 f   cinder:crc32.obj
 0001:000507b0       _deflate                   004517b0 f   cinder:deflate.obj
 0001:00053150       __tr_stored_block          00454150 f   cinder:trees.obj
 0001:00053200       __tr_align                 00454200 f   cinder:trees.obj
 0001:00053400       __tr_flush_block           00454400 f   cinder:trees.obj
 0001:00053600       ?deallocate@Mat@cv@@QAEXXZ 00454600 f   opencv_core230:matrix.obj
 0001:00053630       ?kind@_InputArray@cv@@UBEHXZ 00454630 f   opencv_core230:matrix.obj
 0001:00053640       ?depth@_InputArray@cv@@UBEHH@Z 00454640 f   opencv_core230:matrix.obj
 0001:00053660       ?channels@_InputArray@cv@@UBEHH@Z 00454660 f   opencv_core230:matrix.obj
 0001:00053680       ?fixedSize@_OutputArray@cv@@UBE_NXZ 00454680 f   opencv_core230:matrix.obj
 0001:000536a0       ?fixedType@_OutputArray@cv@@UBE_NXZ 004546a0 f   opencv_core230:matrix.obj
 0001:000536c0       ?needed@_OutputArray@cv@@UBE_NXZ 004546c0 f   opencv_core230:matrix.obj
 0001:000536d0       ?noArray@cv@@YAABV_OutputArray@1@XZ 004546d0 f   opencv_core230:matrix.obj
 0001:00053a20       ??$saturate_cast@E@cv@@YAEH@Z 00454a20 f i opencv_core230:matrix.obj
 0001:00053a50       ??$saturate_cast@F@cv@@YAFM@Z 00454a50 f i opencv_core230:matrix.obj
 0001:00053aa0       ??BRNG@cv@@QAENXZ          00454aa0 f i opencv_core230:matrix.obj
 0001:00053b40       ??8MSize@Mat@cv@@QBE_NABU012@@Z 00454b40 f i opencv_core230:matrix.obj
 0001:00053bb0       _cvGetNextSparseNode       00454bb0 f i opencv_core230:matrix.obj
 0001:00056a60       ??0_InputArray@cv@@QAE@ABVMat@1@@Z 00457a60 f   opencv_core230:matrix.obj
 0001:00056a90       ??0_InputArray@cv@@QAE@ABN@Z 00457a90 f   opencv_core230:matrix.obj
 0001:00056ac0       ?total@_InputArray@cv@@UBEIH@Z 00457ac0 f   opencv_core230:matrix.obj
 0001:00056af0       ??0_OutputArray@cv@@QAE@AAVMat@1@@Z 00457af0 f   opencv_core230:matrix.obj
 0001:00056fb0       ??ENAryMatIterator@cv@@QAEAAV01@XZ 00457fb0 f   opencv_core230:matrix.obj
 0001:000570e0       ?lpos@MatConstIterator@cv@@QBEHXZ 004580e0 f   opencv_core230:matrix.obj
 0001:00057190       ?seek@MatConstIterator@cv@@QAEXH_N@Z 00458190 f   opencv_core230:matrix.obj
 0001:00057360       ?seek@MatConstIterator@cv@@QAEXPBH_N@Z 00458360 f   opencv_core230:matrix.obj
 0001:00057570       ??0Mat@cv@@QAE@HHHPAXI@Z   00458570 f i opencv_core230:matrix.obj
 0001:00057640       ??0Mat@cv@@QAE@V?$Size_@H@1@HPAXI@Z 00458640 f i opencv_core230:matrix.obj
 0001:00057710       ?allocate@?$allocator@VMat@cv@@@std@@QAEPAVMat@cv@@I@Z 00458710 f i opencv_core230:matrix.obj
 0001:00057780       ?allocate@?$allocator@V?$Vec@E$01@cv@@@std@@QAEPAV?$Vec@E$01@cv@@I@Z 00458780 f i opencv_core230:matrix.obj
 0001:00057780       ?allocate@?$allocator@_W@std@@QAEPA_WI@Z 00458780 f i cinder:AppBasic.obj
 0001:000577e0       ?allocate@?$allocator@V?$Vec@E$02@cv@@@std@@QAEPAV?$Vec@E$02@cv@@I@Z 004587e0 f i opencv_core230:matrix.obj
 0001:00057840       ?allocate@?$allocator@V?$Vec@F$02@cv@@@std@@QAEPAV?$Vec@F$02@cv@@I@Z 00458840 f i opencv_core230:matrix.obj
 0001:000578a0       ?allocate@?$allocator@V?$Vec@H$02@cv@@@std@@QAEPAV?$Vec@H$02@cv@@I@Z 004588a0 f i opencv_core230:matrix.obj
 0001:00057900       ?allocate@?$allocator@V?$Vec@H$03@cv@@@std@@QAEPAV?$Vec@H$03@cv@@I@Z 00458900 f i opencv_core230:matrix.obj
 0001:00057900       ?allocate@?$allocator@V?$vector@EV?$allocator@E@std@@@std@@@std@@QAEPAV?$vector@EV?$allocator@E@std@@@2@I@Z 00458900 f i opencv_core230:matrix.obj
 0001:00057960       ?allocate@?$allocator@V?$Vec@H$05@cv@@@std@@QAEPAV?$Vec@H$05@cv@@I@Z 00458960 f i opencv_core230:matrix.obj
 0001:000579c0       ?allocate@?$allocator@V?$Vec@H$07@cv@@@std@@QAEPAV?$Vec@H$07@cv@@I@Z 004589c0 f i opencv_core230:matrix.obj
 0001:00057a20       ?allocate@?$allocator@V?$Vec@H$08@cv@@@std@@QAEPAV?$Vec@H$08@cv@@I@Z 00458a20 f i opencv_core230:matrix.obj
 0001:00057a80       ?allocate@?$allocator@V?$Vec@H$0M@@cv@@@std@@QAEPAV?$Vec@H$0M@@cv@@I@Z 00458a80 f i opencv_core230:matrix.obj
 0001:00057ae0       ?allocate@?$allocator@V?$Vec@H$0BA@@cv@@@std@@QAEPAV?$Vec@H$0BA@@cv@@I@Z 00458ae0 f i opencv_core230:matrix.obj
 0001:00057b40       ?allocate@?$allocator@V?$Vec@H$0CA@@cv@@@std@@QAEPAV?$Vec@H$0CA@@cv@@I@Z 00458b40 f i opencv_core230:matrix.obj
 0001:00057ba0       ?allocate@?$allocator@V?$Vec@H$0EA@@cv@@@std@@QAEPAV?$Vec@H$0EA@@cv@@I@Z 00458ba0 f i opencv_core230:matrix.obj
 0001:00057c00       ?allocate@?$allocator@V?$Vec@H$0IA@@cv@@@std@@QAEPAV?$Vec@H$0IA@@cv@@I@Z 00458c00 f i opencv_core230:matrix.obj
 0001:00057ce0       ??$_Move@PAV?$Vec@H$07@cv@@PAV12@@std@@YAPAV?$Vec@H$07@cv@@PAV12@00U_Nonscalar_ptr_iterator_tag@0@@Z 00458ce0 f i opencv_core230:matrix.obj
 0001:00057d30       ??$_Move@PAV?$Vec@H$08@cv@@PAV12@@std@@YAPAV?$Vec@H$08@cv@@PAV12@00U_Nonscalar_ptr_iterator_tag@0@@Z 00458d30 f i opencv_core230:matrix.obj
 0001:00057d80       ??$_Move@PAV?$Vec@H$0M@@cv@@PAV12@@std@@YAPAV?$Vec@H$0M@@cv@@PAV12@00U_Nonscalar_ptr_iterator_tag@0@@Z 00458d80 f i opencv_core230:matrix.obj
 0001:00057de0       ?swap@cv@@YAXAAVMat@1@0@Z  00458de0 f   opencv_core230:matrix.obj
 0001:00057ef0       ??0Mat@cv@@QAE@PBUCvMat@@_N@Z 00458ef0 f i opencv_core230:matrix.obj
 0001:00058190       ??1?$AutoBuffer@M$0EAI@@cv@@QAE@XZ 00459190 f i opencv_core230:matrix.obj
 0001:000581c0       ?allocate@?$AutoBuffer@M$0EAI@@cv@@QAEXI@Z 004591c0 f i opencv_core230:matrix.obj
 0001:00058220       ??1?$AutoBuffer@V?$Complex@M@cv@@$0CAI@@cv@@QAE@XZ 00459220 f i opencv_core230:matmul.obj
 0001:00058220       ??1?$AutoBuffer@VRange@cv@@$0CAI@@cv@@QAE@XZ 00459220 f i opencv_core230:matrix.obj
 0001:00058220       ??1?$AutoBuffer@N$0CAI@@cv@@QAE@XZ 00459220 f i opencv_core230:matrix.obj
 0001:00058250       ?allocate@?$AutoBuffer@N$0CAI@@cv@@QAEXI@Z 00459250 f i opencv_core230:matrix.obj
 0001:000582b0       ??1?$AutoBuffer@E$0BAAI@@cv@@QAE@XZ 004592b0 f i opencv_core230:matrix.obj
 0001:000582e0       ??$_Uninit_move@PAV?$Vec@E$02@cv@@PAV12@V?$allocator@V?$Vec@E$02@cv@@@std@@V12@@std@@YAPAV?$Vec@E$02@cv@@PAV12@00AAV?$allocator@V?$Vec@E$02@cv@@@0@0U_Nonscalar_ptr_iterator_tag@0@@Z 004592e0 f i opencv_core230:matrix.obj
 0001:00058320       ??$_Uninit_move@PAV?$Vec@F$02@cv@@PAV12@V?$allocator@V?$Vec@F$02@cv@@@std@@V12@@std@@YAPAV?$Vec@F$02@cv@@PAV12@00AAV?$allocator@V?$Vec@F$02@cv@@@0@0U_Nonscalar_ptr_iterator_tag@0@@Z 00459320 f i opencv_core230:matrix.obj
 0001:00058360       ??$_Uninit_move@PAV?$Vec@H$02@cv@@PAV12@V?$allocator@V?$Vec@H$02@cv@@@std@@V12@@std@@YAPAV?$Vec@H$02@cv@@PAV12@00AAV?$allocator@V?$Vec@H$02@cv@@@0@0U_Nonscalar_ptr_iterator_tag@0@@Z 00459360 f i opencv_core230:matrix.obj
 0001:000583a0       ??$_Uninit_move@PAV?$Vec@H$03@cv@@PAV12@V?$allocator@V?$Vec@H$03@cv@@@std@@V12@@std@@YAPAV?$Vec@H$03@cv@@PAV12@00AAV?$allocator@V?$Vec@H$03@cv@@@0@0U_Nonscalar_ptr_iterator_tag@0@@Z 004593a0 f i opencv_core230:matrix.obj
 0001:000583f0       ??$_Uninit_move@PAV?$Vec@H$05@cv@@PAV12@V?$allocator@V?$Vec@H$05@cv@@@std@@V12@@std@@YAPAV?$Vec@H$05@cv@@PAV12@00AAV?$allocator@V?$Vec@H$05@cv@@@0@0U_Nonscalar_ptr_iterator_tag@0@@Z 004593f0 f i opencv_core230:matrix.obj
 0001:00058440       ??$_Uninit_move@PAV?$Vec@H$07@cv@@PAV12@V?$allocator@V?$Vec@H$07@cv@@@std@@V12@@std@@YAPAV?$Vec@H$07@cv@@PAV12@00AAV?$allocator@V?$Vec@H$07@cv@@@0@0U_Nonscalar_ptr_iterator_tag@0@@Z 00459440 f i opencv_core230:matrix.obj
 0001:000584e0       ?reserve@?$vector@EV?$allocator@E@std@@@std@@QAEXI@Z 004594e0 f i opencv_core230:matrix.obj
 0001:000585a0       ?reserve@?$vector@MV?$allocator@M@std@@@std@@QAEXI@Z 004595a0 f i opencv_core230:matrix.obj
 0001:00058c00       ??0?$AutoBuffer@N$0CAI@@cv@@QAE@I@Z 00459c00 f i opencv_core230:matrix.obj
 0001:00058c50       ??$_Uninit_def_fill_n@PAV?$Vec@E$02@cv@@IV12@V?$allocator@V?$Vec@E$02@cv@@@std@@V12@@std@@YAXPAV?$Vec@E$02@cv@@IPBV12@AAV?$allocator@V?$Vec@E$02@cv@@@0@0U_Nonscalar_ptr_iterator_tag@0@@Z 00459c50 f i opencv_core230:matrix.obj
 0001:00058c80       ??$_Uninit_def_fill_n@PAV?$Vec@F$02@cv@@IV12@V?$allocator@V?$Vec@F$02@cv@@@std@@V12@@std@@YAXPAV?$Vec@F$02@cv@@IPBV12@AAV?$allocator@V?$Vec@F$02@cv@@@0@0U_Nonscalar_ptr_iterator_tag@0@@Z 00459c80 f i opencv_core230:matrix.obj
 0001:00058cd0       ??$_Uninit_def_fill_n@PAV?$Vec@M$01@cv@@IV12@V?$allocator@V?$Vec@M$01@cv@@@std@@V12@@std@@YAXPAV?$Vec@M$01@cv@@IPBV12@AAV?$allocator@V?$Vec@M$01@cv@@@0@0U_Nonscalar_ptr_iterator_tag@0@@Z 00459cd0 f i opencv_core230:matrix.obj
 0001:00058cd0       ??$_Uninit_def_fill_n@PAV?$Vec@H$01@cv@@IV12@V?$allocator@V?$Vec@H$01@cv@@@std@@V12@@std@@YAXPAV?$Vec@H$01@cv@@IPBV12@AAV?$allocator@V?$Vec@H$01@cv@@@0@0U_Nonscalar_ptr_iterator_tag@0@@Z 00459cd0 f i opencv_core230:matrix.obj
 0001:00058d20       ??$_Uninit_def_fill_n@PAV?$Vec@H$02@cv@@IV12@V?$allocator@V?$Vec@H$02@cv@@@std@@V12@@std@@YAXPAV?$Vec@H$02@cv@@IPBV12@AAV?$allocator@V?$Vec@H$02@cv@@@0@0U_Nonscalar_ptr_iterator_tag@0@@Z 00459d20 f i opencv_core230:matrix.obj
 0001:00058d80       ??$_Uninit_def_fill_n@PAV?$Vec@H$03@cv@@IV12@V?$allocator@V?$Vec@H$03@cv@@@std@@V12@@std@@YAXPAV?$Vec@H$03@cv@@IPBV12@AAV?$allocator@V?$Vec@H$03@cv@@@0@0U_Nonscalar_ptr_iterator_tag@0@@Z 00459d80 f i opencv_core230:matrix.obj
 0001:00058de0       ??$_Uninit_def_fill_n@PAV?$Vec@H$05@cv@@IV12@V?$allocator@V?$Vec@H$05@cv@@@std@@V12@@std@@YAXPAV?$Vec@H$05@cv@@IPBV12@AAV?$allocator@V?$Vec@H$05@cv@@@0@0U_Nonscalar_ptr_iterator_tag@0@@Z 00459de0 f i opencv_core230:matrix.obj
 0001:00058e50       ??$_Uninit_def_fill_n@PAV?$Vec@H$07@cv@@IV12@V?$allocator@V?$Vec@H$07@cv@@@std@@V12@@std@@YAXPAV?$Vec@H$07@cv@@IPBV12@AAV?$allocator@V?$Vec@H$07@cv@@@0@0U_Nonscalar_ptr_iterator_tag@0@@Z 00459e50 f i opencv_core230:matrix.obj
 0001:00058ed0       ??$_Uninit_move@PAV?$Vec@E$01@cv@@PAV12@V?$allocator@V?$Vec@E$01@cv@@@std@@V12@@std@@YAPAV?$Vec@E$01@cv@@PAV12@00AAV?$allocator@V?$Vec@E$01@cv@@@0@0U_Nonscalar_ptr_iterator_tag@0@@Z 00459ed0 f i opencv_core230:matrix.obj
 0001:00058f00       ??$_Uninit_move@PAV?$Vec@H$08@cv@@PAV12@V?$allocator@V?$Vec@H$08@cv@@@std@@V12@@std@@YAPAV?$Vec@H$08@cv@@PAV12@00AAV?$allocator@V?$Vec@H$08@cv@@@0@0U_Nonscalar_ptr_iterator_tag@0@@Z 00459f00 f i opencv_core230:matrix.obj
 0001:00058f70       ??$_Uninit_move@PAV?$Vec@H$0M@@cv@@PAV12@V?$allocator@V?$Vec@H$0M@@cv@@@std@@V12@@std@@YAPAV?$Vec@H$0M@@cv@@PAV12@00AAV?$allocator@V?$Vec@H$0M@@cv@@@0@0U_Nonscalar_ptr_iterator_tag@0@@Z 00459f70 f i opencv_core230:matrix.obj
 0001:00058fb0       ??$_Uninit_move@PAV?$Vec@H$0BA@@cv@@PAV12@V?$allocator@V?$Vec@H$0BA@@cv@@@std@@V12@@std@@YAPAV?$Vec@H$0BA@@cv@@PAV12@00AAV?$allocator@V?$Vec@H$0BA@@cv@@@0@0U_Nonscalar_ptr_iterator_tag@0@@Z 00459fb0 f i opencv_core230:matrix.obj
 0001:00058ff0       ??$_Uninit_move@PAV?$Vec@H$0CA@@cv@@PAV12@V?$allocator@V?$Vec@H$0CA@@cv@@@std@@V12@@std@@YAPAV?$Vec@H$0CA@@cv@@PAV12@00AAV?$allocator@V?$Vec@H$0CA@@cv@@@0@0U_Nonscalar_ptr_iterator_tag@0@@Z 00459ff0 f i opencv_core230:matrix.obj
 0001:00059030       ??$_Uninit_move@PAV?$Vec@H$0EA@@cv@@PAV12@V?$allocator@V?$Vec@H$0EA@@cv@@@std@@V12@@std@@YAPAV?$Vec@H$0EA@@cv@@PAV12@00AAV?$allocator@V?$Vec@H$0EA@@cv@@@0@0U_Nonscalar_ptr_iterator_tag@0@@Z 0045a030 f i opencv_core230:matrix.obj
 0001:00059070       ??$_Uninit_move@PAV?$Vec@H$0IA@@cv@@PAV12@V?$allocator@V?$Vec@H$0IA@@cv@@@std@@V12@@std@@YAPAV?$Vec@H$0IA@@cv@@PAV12@00AAV?$allocator@V?$Vec@H$0IA@@cv@@@0@0U_Nonscalar_ptr_iterator_tag@0@@Z 0045a070 f i opencv_core230:matrix.obj
 0001:000590b0       ??$_Uninit_move@PAV?$Vec@M$01@cv@@PAV12@V?$allocator@V?$Vec@M$01@cv@@@std@@V12@@std@@YAPAV?$Vec@M$01@cv@@PAV12@00AAV?$allocator@V?$Vec@M$01@cv@@@0@0U_Nonscalar_ptr_iterator_tag@0@@Z 0045a0b0 f i opencv_core230:matrix.obj
 0001:000591b0       ?_Reserve@?$vector@EV?$allocator@E@std@@@std@@IAEXI@Z 0045a1b0 f i opencv_core230:matrix.obj
 0001:00059210       ?_Tidy@?$vector@VTouch@TouchEvent@app@cinder@@V?$allocator@VTouch@TouchEvent@app@cinder@@@std@@@std@@IAEXXZ 0045a210 f i CinderProjectEx1App.obj
 0001:00059210       ??1?$vector@V?$Vec@M$01@cv@@V?$allocator@V?$Vec@M$01@cv@@@std@@@std@@QAE@XZ 0045a210 f i opencv_core230:matrix.obj
 0001:00059210       ??1?$vector@_WV?$allocator@_W@std@@@std@@QAE@XZ 0045a210 f i cinder:Utilities.obj
 0001:00059210       ??1?$vector@U?$pair@PAVSurfaceCache@cinder@@H@std@@V?$allocator@U?$pair@PAVSurfaceCache@cinder@@H@std@@@2@@std@@QAE@XZ 0045a210 f i cinder:CaptureImplDirectShow.obj
 0001:00059210       ??1?$vector@DV?$allocator@D@std@@@std@@QAE@XZ 0045a210 f i cinder:Utilities.obj
 0001:00059210       ??1?$vector@HV?$allocator@H@std@@@std@@QAE@XZ 0045a210 f i cinder:VBO.obj
 0001:00059210       ??1?$vector@VTouch@TouchEvent@app@cinder@@V?$allocator@VTouch@TouchEvent@app@cinder@@@std@@@std@@QAE@XZ 0045a210 f i CinderProjectEx1App.obj
 0001:00059210       ??1?$vector@EV?$allocator@E@std@@@std@@QAE@XZ 0045a210 f i opencv_core230:matrix.obj
 0001:00059240       ?_Reserve@?$vector@MV?$allocator@M@std@@@std@@IAEXI@Z 0045a240 f i opencv_core230:matrix.obj
 0001:000592b0       ??$_Uninit_def_fill_n@PAV?$Vec@E$01@cv@@IV12@V?$allocator@V?$Vec@E$01@cv@@@std@@V12@@std@@YAXPAV?$Vec@E$01@cv@@IPBV12@AAV?$allocator@V?$Vec@E$01@cv@@@0@0U_Nonscalar_ptr_iterator_tag@0@@Z 0045a2b0 f i opencv_core230:matrix.obj
 0001:000592e0       ??$_Uninit_def_fill_n@PAV?$Vec@H$08@cv@@IV12@V?$allocator@V?$Vec@H$08@cv@@@std@@V12@@std@@YAXPAV?$Vec@H$08@cv@@IPBV12@AAV?$allocator@V?$Vec@H$08@cv@@@0@0U_Nonscalar_ptr_iterator_tag@0@@Z 0045a2e0 f i opencv_core230:matrix.obj
 0001:00059370       ??$_Uninit_def_fill_n@PAV?$Vec@H$0M@@cv@@IV12@V?$allocator@V?$Vec@H$0M@@cv@@@std@@V12@@std@@YAXPAV?$Vec@H$0M@@cv@@IPBV12@AAV?$allocator@V?$Vec@H$0M@@cv@@@0@0U_Nonscalar_ptr_iterator_tag@0@@Z 0045a370 f i opencv_core230:matrix.obj
 0001:00059420       ??$_Uninit_def_fill_n@PAV?$Vec@H$0BA@@cv@@IV12@V?$allocator@V?$Vec@H$0BA@@cv@@@std@@V12@@std@@YAXPAV?$Vec@H$0BA@@cv@@IPBV12@AAV?$allocator@V?$Vec@H$0BA@@cv@@@0@0U_Nonscalar_ptr_iterator_tag@0@@Z 0045a420 f i opencv_core230:matrix.obj
 0001:000594f0       ??$_Uninit_def_fill_n@PAV?$Vec@H$0CA@@cv@@IV12@V?$allocator@V?$Vec@H$0CA@@cv@@@std@@V12@@std@@YAXPAV?$Vec@H$0CA@@cv@@IPBV12@AAV?$allocator@V?$Vec@H$0CA@@cv@@@0@0U_Nonscalar_ptr_iterator_tag@0@@Z 0045a4f0 f i opencv_core230:matrix.obj
 0001:000595b0       ??$_Uninit_def_fill_n@PAV?$Vec@H$0EA@@cv@@IV12@V?$allocator@V?$Vec@H$0EA@@cv@@@std@@V12@@std@@YAXPAV?$Vec@H$0EA@@cv@@IPBV12@AAV?$allocator@V?$Vec@H$0EA@@cv@@@0@0U_Nonscalar_ptr_iterator_tag@0@@Z 0045a5b0 f i opencv_core230:matrix.obj
 0001:00059610       ??$_Uninit_def_fill_n@PAV?$Vec@H$0IA@@cv@@IV12@V?$allocator@V?$Vec@H$0IA@@cv@@@std@@V12@@std@@YAXPAV?$Vec@H$0IA@@cv@@IPBV12@AAV?$allocator@V?$Vec@H$0IA@@cv@@@0@0U_Nonscalar_ptr_iterator_tag@0@@Z 0045a610 f i opencv_core230:matrix.obj
 0001:00059670       ??$_Dest_val@V?$allocator@VMat@cv@@@std@@VMat@cv@@@std@@YAXAAV?$allocator@VMat@cv@@@0@PAVMat@cv@@@Z 0045a670 f i opencv_core230:matrix.obj
 0001:000596a0       ?resize@?$vector@EV?$allocator@E@std@@@std@@QAEXI@Z 0045a6a0 f i opencv_core230:matrix.obj
 0001:00059710       ?resize@?$vector@HV?$allocator@H@std@@@std@@QAEXI@Z 0045a710 f i opencv_core230:matrix.obj
 0001:000597a0       ?resize@?$vector@MV?$allocator@M@std@@@std@@QAEXI@Z 0045a7a0 f i opencv_core230:matrix.obj
 0001:00059830       ??$_Destroy_range@V?$allocator@VMat@cv@@@std@@@std@@YAXPAVMat@cv@@0AAV?$allocator@VMat@cv@@@0@U_Nonscalar_ptr_iterator_tag@0@@Z 0045a830 f i opencv_core230:matrix.obj
 0001:000598c0       ?erase@?$vector@V?$Vec@H$05@cv@@V?$allocator@V?$Vec@H$05@cv@@@std@@@std@@QAE?AV?$_Vector_iterator@V?$_Vector_val@V?$Vec@H$05@cv@@V?$allocator@V?$Vec@H$05@cv@@@std@@@std@@@2@V?$_Vector_const_iterator@V?$_Vector_val@V?$Vec@H$05@cv@@V?$allocator@V?$Vec@H$05@cv@@@std@@@std@@@2@0@Z 0045a8c0 f i opencv_core230:matrix.obj
 0001:00059920       ?reserve@?$vector@V?$Vec@E$01@cv@@V?$allocator@V?$Vec@E$01@cv@@@std@@@std@@QAEXI@Z 0045a920 f i opencv_core230:matrix.obj
 0001:000599f0       ?reserve@?$vector@V?$Vec@E$02@cv@@V?$allocator@V?$Vec@E$02@cv@@@std@@@std@@QAEXI@Z 0045a9f0 f i opencv_core230:matrix.obj
 0001:00059ae0       ?reserve@?$vector@V?$Vec@F$02@cv@@V?$allocator@V?$Vec@F$02@cv@@@std@@@std@@QAEXI@Z 0045aae0 f i opencv_core230:matrix.obj
 0001:00059bd0       ?reserve@?$vector@V?$Vec@H$01@cv@@V?$allocator@V?$Vec@H$01@cv@@@std@@@std@@QAEXI@Z 0045abd0 f i opencv_core230:matrix.obj
 0001:00059bd0       ?reserve@?$vector@U?$pair@PAVSurfaceCache@cinder@@H@std@@V?$allocator@U?$pair@PAVSurfaceCache@cinder@@H@std@@@2@@std@@QAEXI@Z 0045abd0 f i cinder:CaptureImplDirectShow.obj
 0001:00059ca0       ?reserve@?$vector@V?$Vec@H$02@cv@@V?$allocator@V?$Vec@H$02@cv@@@std@@@std@@QAEXI@Z 0045aca0 f i opencv_core230:matrix.obj
 0001:00059d90       ?reserve@?$vector@V?$Vec@H$03@cv@@V?$allocator@V?$Vec@H$03@cv@@@std@@@std@@QAEXI@Z 0045ad90 f i opencv_core230:matrix.obj
 0001:00059e60       ?reserve@?$vector@V?$Vec@H$05@cv@@V?$allocator@V?$Vec@H$05@cv@@@std@@@std@@QAEXI@Z 0045ae60 f i opencv_core230:matrix.obj
 0001:00059f60       ?reserve@?$vector@V?$Vec@H$07@cv@@V?$allocator@V?$Vec@H$07@cv@@@std@@@std@@QAEXI@Z 0045af60 f i opencv_core230:matrix.obj
 0001:0005a030       ?reserve@?$vector@V?$Vec@H$08@cv@@V?$allocator@V?$Vec@H$08@cv@@@std@@@std@@QAEXI@Z 0045b030 f i opencv_core230:matrix.obj
 0001:0005a130       ?reserve@?$vector@V?$Vec@H$0M@@cv@@V?$allocator@V?$Vec@H$0M@@cv@@@std@@@std@@QAEXI@Z 0045b130 f i opencv_core230:matrix.obj
 0001:0005a230       ?reserve@?$vector@V?$Vec@H$0BA@@cv@@V?$allocator@V?$Vec@H$0BA@@cv@@@std@@@std@@QAEXI@Z 0045b230 f i opencv_core230:matrix.obj
 0001:0005a300       ?reserve@?$vector@V?$Vec@H$0CA@@cv@@V?$allocator@V?$Vec@H$0CA@@cv@@@std@@@std@@QAEXI@Z 0045b300 f i opencv_core230:matrix.obj
 0001:0005a3d0       ?reserve@?$vector@V?$Vec@H$0EA@@cv@@V?$allocator@V?$Vec@H$0EA@@cv@@@std@@@std@@QAEXI@Z 0045b3d0 f i opencv_core230:matrix.obj
 0001:0005a4b0       ?reserve@?$vector@V?$Vec@H$0IA@@cv@@V?$allocator@V?$Vec@H$0IA@@cv@@@std@@@std@@QAEXI@Z 0045b4b0 f i opencv_core230:matrix.obj
 0001:0005a590       ?reserve@?$vector@V?$Vec@M$01@cv@@V?$allocator@V?$Vec@M$01@cv@@@std@@@std@@QAEXI@Z 0045b590 f i opencv_core230:matrix.obj
 0001:0005ab40       ?create@Mat@cv@@QAEXHPBHH@Z 0045bb40 f   opencv_core230:matrix.obj
 0001:0005af50       ?copySize@Mat@cv@@QAEXABV12@@Z 0045bf50 f   opencv_core230:matrix.obj
 0001:0005afa0       ?scalarToRawData@cv@@YAXABV?$Scalar_@N@1@PAXHH@Z 0045bfa0 f   opencv_core230:matrix.obj
 0001:0005b680       ?size@_InputArray@cv@@UBE?AV?$Size_@H@2@H@Z 0045c680 f   opencv_core230:matrix.obj
 0001:0005bde0       ?type@_InputArray@cv@@UBEHH@Z 0045cde0 f   opencv_core230:matrix.obj
 0001:0005c000       ?empty@_InputArray@cv@@UBE_NXZ 0045d000 f   opencv_core230:matrix.obj
 0001:0005c180       ?getMatRef@_OutputArray@cv@@UBEAAVMat@2@H@Z 0045d180 f   opencv_core230:matrix.obj
 0001:0005c520       ?transpose@cv@@YAXABV_InputArray@1@ABV_OutputArray@1@@Z 0045d520 f   opencv_core230:matrix.obj
 0001:0005ca70       ?completeSymm@cv@@YAXABV_OutputArray@1@_N@Z 0045da70 f   opencv_core230:matrix.obj
 0001:0005d440       ??0Mat@cv@@QAE@ABV01@@Z    0045e440 f i opencv_core230:matrix.obj
 0001:0005d520       ?create@Mat@cv@@QAEXV?$Size_@H@2@H@Z 0045e520 f i opencv_core230:matrix.obj
 0001:0005d580       ??BMatExpr@cv@@QBE?AVMat@1@XZ 0045e580 f i opencv_core230:matrix.obj
 0001:0005d610       ?_Reserve@?$vector@V?$Vec@E$01@cv@@V?$allocator@V?$Vec@E$01@cv@@@std@@@std@@IAEXI@Z 0045e610 f i opencv_core230:matrix.obj
 0001:0005d680       ?_Reserve@?$vector@V?$Vec@E$02@cv@@V?$allocator@V?$Vec@E$02@cv@@@std@@@std@@IAEXI@Z 0045e680 f i opencv_core230:matrix.obj
 0001:0005d700       ?_Reserve@?$vector@V?$Vec@F$02@cv@@V?$allocator@V?$Vec@F$02@cv@@@std@@@std@@IAEXI@Z 0045e700 f i opencv_core230:matrix.obj
 0001:0005d780       ?_Reserve@?$vector@V?$Vec@H$01@cv@@V?$allocator@V?$Vec@H$01@cv@@@std@@@std@@IAEXI@Z 0045e780 f i opencv_core230:matrix.obj
 0001:0005d7f0       ?_Reserve@?$vector@V?$Vec@H$02@cv@@V?$allocator@V?$Vec@H$02@cv@@@std@@@std@@IAEXI@Z 0045e7f0 f i opencv_core230:matrix.obj
 0001:0005d880       ?_Reserve@?$vector@V?$Vec@H$03@cv@@V?$allocator@V?$Vec@H$03@cv@@@std@@@std@@IAEXI@Z 0045e880 f i opencv_core230:matrix.obj
 0001:0005d8f0       ?_Reserve@?$vector@V?$Vec@H$05@cv@@V?$allocator@V?$Vec@H$05@cv@@@std@@@std@@IAEXI@Z 0045e8f0 f i opencv_core230:matrix.obj
 0001:0005d980       ?_Reserve@?$vector@V?$Vec@H$07@cv@@V?$allocator@V?$Vec@H$07@cv@@@std@@@std@@IAEXI@Z 0045e980 f i opencv_core230:matrix.obj
 0001:0005d9f0       ?_Reserve@?$vector@V?$Vec@H$08@cv@@V?$allocator@V?$Vec@H$08@cv@@@std@@@std@@IAEXI@Z 0045e9f0 f i opencv_core230:matrix.obj
 0001:0005da80       ?_Reserve@?$vector@V?$Vec@H$0M@@cv@@V?$allocator@V?$Vec@H$0M@@cv@@@std@@@std@@IAEXI@Z 0045ea80 f i opencv_core230:matrix.obj
 0001:0005db10       ?_Reserve@?$vector@V?$Vec@H$0BA@@cv@@V?$allocator@V?$Vec@H$0BA@@cv@@@std@@@std@@IAEXI@Z 0045eb10 f i opencv_core230:matrix.obj
 0001:0005db80       ?_Reserve@?$vector@V?$Vec@H$0CA@@cv@@V?$allocator@V?$Vec@H$0CA@@cv@@@std@@@std@@IAEXI@Z 0045eb80 f i opencv_core230:matrix.obj
 0001:0005dbf0       ?_Reserve@?$vector@V?$Vec@H$0EA@@cv@@V?$allocator@V?$Vec@H$0EA@@cv@@@std@@@std@@IAEXI@Z 0045ebf0 f i opencv_core230:matrix.obj
 0001:0005dc60       ?_Reserve@?$vector@V?$Vec@H$0IA@@cv@@V?$allocator@V?$Vec@H$0IA@@cv@@@std@@@std@@IAEXI@Z 0045ec60 f i opencv_core230:matrix.obj
 0001:0005dcd0       ?_Reserve@?$vector@V?$Vec@M$01@cv@@V?$allocator@V?$Vec@M$01@cv@@@std@@@std@@IAEXI@Z 0045ecd0 f i opencv_core230:matrix.obj
 0001:0005dd40       ??$_Move@PAV?$vector@EV?$allocator@E@std@@@std@@PAV12@@std@@YAPAV?$vector@EV?$allocator@E@std@@@0@PAV10@00U_Nonscalar_ptr_iterator_tag@0@@Z 0045ed40 f i opencv_core230:matrix.obj
 0001:0005dda0       ??$_Move@PAVMat@cv@@PAV12@@std@@YAPAVMat@cv@@PAV12@00U_Nonscalar_ptr_iterator_tag@0@@Z 0045eda0 f i opencv_core230:matrix.obj
 0001:0005dda0       ??$_Copy_impl@PBVMat@cv@@PAV12@@std@@YAPAVMat@cv@@PBV12@0PAV12@U_Nonscalar_ptr_iterator_tag@0@@Z 0045eda0 f i opencv_core230:matrix.obj
 0001:0005dee0       ??$_Uninit_move@PAV?$vector@EV?$allocator@E@std@@@std@@PAV12@V?$allocator@V?$vector@EV?$allocator@E@std@@@std@@@2@V12@@std@@YAPAV?$vector@EV?$allocator@E@std@@@0@PAV10@00AAV?$allocator@V?$vector@EV?$allocator@E@std@@@std@@@0@0U_Nonscalar_ptr_iterator_tag@0@@Z 0045eee0 f i opencv_core230:matrix.obj
 0001:0005df60       ??0Mat@cv@@QAE@ABV01@PBVRange@1@@Z 0045ef60 f   opencv_core230:matrix.obj
 0001:0005e300       ??0Mat@cv@@QAE@PBUCvMatND@@_N@Z 0045f300 f   opencv_core230:matrix.obj
 0001:0005e4c0       ?diag@Mat@cv@@QBE?AV12@H@Z 0045f4c0 f   opencv_core230:matrix.obj
 0001:0005e6e0       ??0Mat@cv@@QAE@PBU_IplImage@@_N@Z 0045f6e0 f   opencv_core230:matrix.obj
 0001:0005ec30       ?getMat@_InputArray@cv@@UBE?AVMat@2@H@Z 0045fc30 f   opencv_core230:matrix.obj
 0001:0005f450       ?create@_OutputArray@cv@@UBEXV?$Size_@H@2@HH_NH@Z 00460450 f   opencv_core230:matrix.obj
 0001:0005f4d0       ?create@_OutputArray@cv@@UBEXHHHH_NH@Z 004604d0 f   opencv_core230:matrix.obj
 0001:0005f550       ?setIdentity@cv@@YAXABV_OutputArray@1@ABV?$Scalar_@N@1@@Z 00460550 f   opencv_core230:matrix.obj
 0001:0005f8c0       ?init@NAryMatIterator@cv@@QAEXPAPBVMat@2@PAV32@PAPAEH@Z 004608c0 f   opencv_core230:matrix.obj
 0001:000603c0       ??RMat@cv@@QBE?AV01@PBVRange@1@@Z 004613c0 f i opencv_core230:matrix.obj
 0001:000603f0       ?resize@?$vector@V?$Vec@E$01@cv@@V?$allocator@V?$Vec@E$01@cv@@@std@@@std@@QAEXI@Z 004613f0 f i opencv_core230:matrix.obj
 0001:00060480       ?resize@?$vector@V?$Vec@E$02@cv@@V?$allocator@V?$Vec@E$02@cv@@@std@@@std@@QAEXI@Z 00461480 f i opencv_core230:matrix.obj
 0001:00060550       ?resize@?$vector@V?$Vec@F$02@cv@@V?$allocator@V?$Vec@F$02@cv@@@std@@@std@@QAEXI@Z 00461550 f i opencv_core230:matrix.obj
 0001:00060620       ?resize@?$vector@V?$Vec@H$01@cv@@V?$allocator@V?$Vec@H$01@cv@@@std@@@std@@QAEXI@Z 00461620 f i opencv_core230:matrix.obj
 0001:000606b0       ?resize@?$vector@V?$Vec@H$02@cv@@V?$allocator@V?$Vec@H$02@cv@@@std@@@std@@QAEXI@Z 004616b0 f i opencv_core230:matrix.obj
 0001:00060780       ?resize@?$vector@V?$Vec@H$03@cv@@V?$allocator@V?$Vec@H$03@cv@@@std@@@std@@QAEXI@Z 00461780 f i opencv_core230:matrix.obj
 0001:00060830       ?resize@?$vector@V?$Vec@H$05@cv@@V?$allocator@V?$Vec@H$05@cv@@@std@@@std@@QAEXI@Z 00461830 f i opencv_core230:matrix.obj
 0001:000608e0       ?resize@?$vector@V?$Vec@H$07@cv@@V?$allocator@V?$Vec@H$07@cv@@@std@@@std@@QAEXI@Z 004618e0 f i opencv_core230:matrix.obj
 0001:00060970       ?resize@?$vector@V?$Vec@H$08@cv@@V?$allocator@V?$Vec@H$08@cv@@@std@@@std@@QAEXI@Z 00461970 f i opencv_core230:matrix.obj
 0001:00060a30       ?resize@?$vector@V?$Vec@H$0M@@cv@@V?$allocator@V?$Vec@H$0M@@cv@@@std@@@std@@QAEXI@Z 00461a30 f i opencv_core230:matrix.obj
 0001:00060af0       ?resize@?$vector@V?$Vec@H$0BA@@cv@@V?$allocator@V?$Vec@H$0BA@@cv@@@std@@@std@@QAEXI@Z 00461af0 f i opencv_core230:matrix.obj
 0001:00060b90       ?resize@?$vector@V?$Vec@H$0CA@@cv@@V?$allocator@V?$Vec@H$0CA@@cv@@@std@@@std@@QAEXI@Z 00461b90 f i opencv_core230:matrix.obj
 0001:00060c30       ?resize@?$vector@V?$Vec@H$0EA@@cv@@V?$allocator@V?$Vec@H$0EA@@cv@@@std@@@std@@QAEXI@Z 00461c30 f i opencv_core230:matrix.obj
 0001:00060ce0       ?resize@?$vector@V?$Vec@H$0IA@@cv@@V?$allocator@V?$Vec@H$0IA@@cv@@@std@@@std@@QAEXI@Z 00461ce0 f i opencv_core230:matrix.obj
 0001:00060d90       ?resize@?$vector@V?$Vec@M$01@cv@@V?$allocator@V?$Vec@M$01@cv@@@std@@@std@@QAEXI@Z 00461d90 f i opencv_core230:matrix.obj
 0001:00060e20       ??$_Uninit_def_fill_n@PAV?$vector@EV?$allocator@E@std@@@std@@IV12@V?$allocator@V?$vector@EV?$allocator@E@std@@@std@@@2@V12@@std@@YAXPAV?$vector@EV?$allocator@E@std@@@0@IPBV10@AAV?$allocator@V?$vector@EV?$allocator@E@std@@@std@@@0@0U_Nonscalar_ptr_iterator_tag@0@@Z 00461e20 f i opencv_core230:matrix.obj
 0001:00060e90       ??$_Uninit_move@PAVMat@cv@@PAV12@V?$allocator@VMat@cv@@@std@@V12@@std@@YAPAVMat@cv@@PAV12@00AAV?$allocator@VMat@cv@@@0@0U_Nonscalar_ptr_iterator_tag@0@@Z 00461e90 f i opencv_core230:matrix.obj
 0001:00060f40       ??0Mat@cv@@QAE@ABV01@ABVRange@1@1@Z 00461f40 f   opencv_core230:matrix.obj
 0001:00061570       ?cvarrToMat@cv@@YA?AVMat@1@PBX_N1H@Z 00462570 f   opencv_core230:matrix.obj
 0001:000619f0       ??0NAryMatIterator@cv@@QAE@PAPBVMat@1@PAPAEH@Z 004629f0 f   opencv_core230:matrix.obj
 0001:00061a30       ?row@Mat@cv@@QBE?AV12@H@Z  00462a30 f i opencv_core230:matrix.obj
 0001:00061a80       ?rowRange@Mat@cv@@QBE?AV12@HH@Z 00462a80 f i opencv_core230:matrix.obj
 0001:00061ad0       ??$copy@V?$_Vector_const_iterator@V?$_Vector_val@VMat@cv@@V?$allocator@VMat@cv@@@std@@@std@@@std@@V?$_Vector_iterator@V?$_Vector_val@VMat@cv@@V?$allocator@VMat@cv@@@std@@@std@@@2@@std@@YA?AV?$_Vector_iterator@V?$_Vector_val@VMat@cv@@V?$allocator@VMat@cv@@@std@@@std@@@0@V?$_Vector_const_iterator@V?$_Vector_val@VMat@cv@@V?$allocator@VMat@cv@@@std@@@std@@@0@0V10@@Z 00462ad0 f i opencv_core230:matrix.obj
 0001:00061b00       ??$_Uninit_def_fill_n@PAVMat@cv@@IV12@V?$allocator@VMat@cv@@@std@@V12@@std@@YAXPAVMat@cv@@IPBV12@AAV?$allocator@VMat@cv@@@0@0U_Nonscalar_ptr_iterator_tag@0@@Z 00462b00 f i opencv_core230:matrix.obj
 0001:00061c50       ?reserve@Mat@cv@@QAEXI@Z   00462c50 f   opencv_core230:matrix.obj
 0001:00062020       ?resize@Mat@cv@@QAEXI@Z    00463020 f   opencv_core230:matrix.obj
 0001:000621c0       ?clear@_OutputArray@cv@@UBEXXZ 004631c0 f   opencv_core230:matrix.obj
 0001:000621f0       ?kmeans@cv@@YANABV_InputArray@1@HABV_OutputArray@1@VTermCriteria@1@HH1@Z 004631f0 f   opencv_core230:matrix.obj
 0001:00063660       ?clear@?$vector@VMat@cv@@V?$allocator@VMat@cv@@@std@@@std@@QAEXXZ 00464660 f i opencv_core230:matrix.obj
 0001:000636a0       ?_Destroy@?$vector@V?$vector@EV?$allocator@E@std@@@std@@V?$allocator@V?$vector@EV?$allocator@E@std@@@std@@@2@@std@@IAEXPAV?$vector@EV?$allocator@E@std@@@2@0@Z 004646a0 f i opencv_core230:matrix.obj
 0001:000636e0       ?reserve@?$vector@VMat@cv@@V?$allocator@VMat@cv@@@std@@@std@@QAEXI@Z 004646e0 f i opencv_core230:matrix.obj
 0001:00063800       ?reserve@?$vector@V?$vector@EV?$allocator@E@std@@@std@@V?$allocator@V?$vector@EV?$allocator@E@std@@@std@@@2@@std@@QAEXI@Z 00464800 f i opencv_core230:matrix.obj
 0001:000638e0       ?clear@?$vector@V?$vector@EV?$allocator@E@std@@@std@@V?$allocator@V?$vector@EV?$allocator@E@std@@@std@@@2@@std@@QAEXXZ 004648e0 f i opencv_core230:matrix.obj
 0001:00063920       ?_Reserve@?$vector@VMat@cv@@V?$allocator@VMat@cv@@@std@@@std@@IAEXI@Z 00464920 f i opencv_core230:matrix.obj
 0001:000639b0       ?_Reserve@?$vector@V?$vector@EV?$allocator@E@std@@@std@@V?$allocator@V?$vector@EV?$allocator@E@std@@@std@@@2@@std@@IAEXI@Z 004649b0 f i opencv_core230:matrix.obj
 0001:00063a20       ?release@_OutputArray@cv@@UBEXXZ 00464a20 f   opencv_core230:matrix.obj
 0001:00063b80       ?resize@?$vector@VMat@cv@@V?$allocator@VMat@cv@@@std@@@std@@QAEXI@Z 00464b80 f i opencv_core230:matrix.obj
 0001:00063c60       ?resize@?$vector@V?$vector@EV?$allocator@E@std@@@std@@V?$allocator@V?$vector@EV?$allocator@E@std@@@std@@@2@@std@@QAEXI@Z 00464c60 f i opencv_core230:matrix.obj
 0001:00063d00       ?getMatVector@_InputArray@cv@@UBEXAAV?$vector@VMat@cv@@V?$allocator@VMat@cv@@@std@@@std@@@Z 00464d00 f   opencv_core230:matrix.obj
 0001:000645e0       ?create@_OutputArray@cv@@UBEXHPBHHH_NH@Z 004655e0 f   opencv_core230:matrix.obj
 0001:00065480       ?fastFree@cv@@YAXPAX@Z     00466480 f   opencv_core230:alloc.obj
 0001:00065480       _cvFree_                   00466480 f   opencv_core230:alloc.obj
 0001:000655c0       ?fastMalloc@cv@@YAPAXI@Z   004665c0 f   opencv_core230:alloc.obj
 0001:000655c0       _cvAlloc                   004665c0 f   opencv_core230:alloc.obj
 0001:000655f0       ?initialize@HWFeatures@cv@@SA?AU12@XZ 004665f0 f i opencv_core230:system.obj
 0001:000656e0       _cvErrorStr                004666e0 f   opencv_core230:system.obj
 0001:00065970       ??1CvModule@@QAE@XZ        00466970 f   opencv_core230:system.obj
 0001:000659d0       ?what@Exception@cv@@UBEPBDXZ 004669d0 f   opencv_core230:system.obj
 0001:000659e0       ??1Exception@cv@@UAE@XZ    004669e0 f   opencv_core230:system.obj
 0001:00065a70       ??_EException@cv@@UAEPAXI@Z 00466a70 f i opencv_core230:system.obj
 0001:00065a70       ??_GException@cv@@UAEPAXI@Z 00466a70 f i opencv_core230:system.obj
 0001:00065aa0       ??0Exception@cv@@QAE@ABV01@@Z 00466aa0 f i opencv_core230:system.obj
 0001:00065b80       ?format@cv@@YA?AV?$basic_string@DU?$char_traits@D@std@@V?$allocator@D@2@@std@@PBDZZ 00466b80 f   opencv_core230:system.obj
 0001:00065c00       ?error@cv@@YAXABVException@1@@Z 00466c00 f   opencv_core230:system.obj
 0001:00065d30       ?formatMessage@Exception@cv@@QAEXXZ 00466d30 f   opencv_core230:system.obj
 0001:00065e40       ??0Exception@cv@@QAE@HABV?$basic_string@DU?$char_traits@D@std@@V?$allocator@D@2@@std@@00H@Z 00466e40 f   opencv_core230:system.obj
 0001:00065f10       _cvRegisterModule          00466f10 f   opencv_core230:system.obj
 0001:000660a0       _cvNextNArraySlice         004670a0 f   opencv_core230:array.obj
 0001:00066140       _cvDecRefData              00467140 f i opencv_core230:array.obj
 0001:000661c0       _cvCreateMatHeader         004671c0 f   opencv_core230:array.obj
 0001:000664a0       _cvInitMatHeader           004674a0 f   opencv_core230:array.obj
 0001:00066970       _cvReleaseMat              00467970 f   opencv_core230:array.obj
 0001:00066c20       _cvInitMatNDHeader         00467c20 f   opencv_core230:array.obj
 0001:00067340       _cvCreateMatNDHeader       00468340 f   opencv_core230:array.obj
 0001:000674c0       _cvCreateSparseMat         004684c0 f   opencv_core230:array.obj
 0001:00067a20       _cvReleaseSparseMat        00468a20 f   opencv_core230:array.obj
 0001:00067ce0       _cvCloneSparseMat          00468ce0 f   opencv_core230:array.obj
 0001:00067e50       _cvInitSparseMatIterator   00468e50 f   opencv_core230:array.obj
 0001:00068530       _cvCreateData              00469530 f   opencv_core230:array.obj
 0001:00068ac0       _cvReleaseData             00469ac0 f   opencv_core230:array.obj
 0001:00068c50       _cvGetElemType             00469c50 f   opencv_core230:array.obj
 0001:00068df0       _cvGetDims                 00469df0 f   opencv_core230:array.obj
 0001:00068ff0       _cvGetSize                 00469ff0 f   opencv_core230:array.obj
 0001:00069170       _cvPtr2D                   0046a170 f   opencv_core230:array.obj
 0001:00069880       _cvPtrND                   0046a880 f   opencv_core230:array.obj
 0001:00069cd0       _cvGetMat                  0046acd0 f   opencv_core230:array.obj
 0001:0006a790       _cvInitImageHeader         0046b790 f   opencv_core230:array.obj
 0001:0006adb0       _cvReleaseImageHeader      0046bdb0 f   opencv_core230:array.obj
 0001:0006af30       _cvReleaseImage            0046bf30 f   opencv_core230:array.obj
 0001:0006b090       _cvSetImageROI             0046c090 f   opencv_core230:array.obj
 0001:0006b3d0       _cvSetImageCOI             0046c3d0 f   opencv_core230:array.obj
 0001:0006b6a0       _cvGetImageCOI             0046c6a0 f   opencv_core230:array.obj
 0001:0006b7e0       _cvCloneImage              0046c7e0 f   opencv_core230:array.obj
 0001:0006ba00       _cvReleaseMatND            0046ca00 f i opencv_core230:array.obj
 0001:0006ba10       _cvCreateMat               0046ca10 f   opencv_core230:array.obj
 0001:0006ba40       _cvCloneMat                0046ca40 f   opencv_core230:array.obj
 0001:0006bbd0       _cvCreateMatND             0046cbd0 f   opencv_core230:array.obj
 0001:0006bc00       _cvCloneMatND              0046cc00 f   opencv_core230:array.obj
 0001:0006c5e0       _cvInitNArrayIterator      0046d5e0 f   opencv_core230:array.obj
 0001:0006d3a0       _cvCreateImageHeader       0046e3a0 f   opencv_core230:array.obj
 0001:0006d420       _cvCreateImage             0046e420 f   opencv_core230:array.obj
 0001:0006d4d0       ?getCopyMaskFunc@cv@@YAP6AXPBEI0IPAEIV?$Size_@H@1@PAX@ZI@Z 0046e4d0 f   opencv_core230:copy.obj
 0001:0006df20       ??$?0N$03$00@_InputArray@cv@@QAE@ABV?$Matx@N$03$00@1@@Z 0046ef20 f i opencv_core230:copy.obj
 0001:0006e1d0       ??4Mat@cv@@QAEAAV01@ABV?$Scalar_@N@1@@Z 0046f1d0 f   opencv_core230:copy.obj
 0001:0006e360       ?getContinuousSize@cv@@YA?AV?$Size_@H@1@ABVMat@1@H@Z 0046f360 f i opencv_core230:copy.obj
 0001:0006e3c0       ?getContinuousSize@cv@@YA?AV?$Size_@H@1@ABVMat@1@0H@Z 0046f3c0 f i opencv_core230:copy.obj
 0001:0006e430       ?getContinuousSize@cv@@YA?AV?$Size_@H@1@ABVMat@1@00H@Z 0046f430 f i opencv_core230:copy.obj
 0001:0006e4a0       ?checkScalar@cv@@YA_NABVMat@1@HHH@Z 0046f4a0 f i opencv_core230:copy.obj
 0001:0006e540       ?copyTo@Mat@cv@@QBEXABV_OutputArray@2@@Z 0046f540 f   opencv_core230:copy.obj
 0001:0006e800       ?copyTo@Mat@cv@@QBEXABV_OutputArray@2@ABV_InputArray@2@@Z 0046f800 f   opencv_core230:copy.obj
 0001:0006ecd0       ?repeat@cv@@YAXABV_InputArray@1@HHABV_OutputArray@1@@Z 0046fcd0 f   opencv_core230:copy.obj
 0001:0006f020       _cvCopy                    00470020 f   opencv_core230:copy.obj
 0001:0006f820       ?elementWise@MatOp_AddEx@cv@@UBE_NABVMatExpr@2@@Z 00470820 f i opencv_core230:matop.obj
 0001:0006f820       ?elementWise@MatOp_Identity@cv@@UBE_NABVMatExpr@2@@Z 00470820 f i opencv_core230:matop.obj
 0001:0006f820       ?elementWise@MatOp_Bin@cv@@UBE_NABVMatExpr@2@@Z 00470820 f i opencv_core230:matop.obj
 0001:0006f820       ?elementWise@MatOp_Cmp@cv@@UBE_NABVMatExpr@2@@Z 00470820 f i opencv_core230:matop.obj
 0001:0006f830       ?elementWise@MatOp_T@cv@@UBE_NABVMatExpr@2@@Z 00470830 f i opencv_core230:matop.obj
 0001:0006f830       ?elementWise@MatOp_Invert@cv@@UBE_NABVMatExpr@2@@Z 00470830 f i opencv_core230:matop.obj
 0001:0006f830       ?elementWise@MatOp_Initializer@cv@@UBE_NABVMatExpr@2@@Z 00470830 f i opencv_core230:matop.obj
 0001:0006f830       ?elementWise@MatOp_GEMM@cv@@UBE_NABVMatExpr@2@@Z 00470830 f i opencv_core230:matop.obj
 0001:0006f830       ?elementWise@MatOp@cv@@UBE_NABVMatExpr@2@@Z 00470830 f i opencv_core230:matop.obj
 0001:0006f830       ?elementWise@MatOp_Solve@cv@@UBE_NABVMatExpr@2@@Z 00470830 f i opencv_core230:matop.obj
 0001:0006f840       ??_EMatOp_Identity@cv@@UAEPAXI@Z 00470840 f i opencv_core230:matop.obj
 0001:0006f840       ??_GMatOp_Solve@cv@@UAEPAXI@Z 00470840 f i opencv_core230:matop.obj
 0001:0006f840       ??_EMatOp_T@cv@@UAEPAXI@Z  00470840 f i opencv_core230:matop.obj
 0001:0006f840       ??_EMatOp_Invert@cv@@UAEPAXI@Z 00470840 f i opencv_core230:matop.obj
 0001:0006f840       ??_GMatOp_Cmp@cv@@UAEPAXI@Z 00470840 f i opencv_core230:matop.obj
 0001:0006f840       ??_EMatOp_GEMM@cv@@UAEPAXI@Z 00470840 f i opencv_core230:matop.obj
 0001:0006f840       ??_GMatOp_GEMM@cv@@UAEPAXI@Z 00470840 f i opencv_core230:matop.obj
 0001:0006f840       ??_GMatOp_Invert@cv@@UAEPAXI@Z 00470840 f i opencv_core230:matop.obj
 0001:0006f840       ??_GMatOp_Identity@cv@@UAEPAXI@Z 00470840 f i opencv_core230:matop.obj
 0001:0006f840       ??_GMatOp_T@cv@@UAEPAXI@Z  00470840 f i opencv_core230:matop.obj
 0001:0006f840       ??_EMatOp_AddEx@cv@@UAEPAXI@Z 00470840 f i opencv_core230:matop.obj
 0001:0006f840       ??_EMatOp_Cmp@cv@@UAEPAXI@Z 00470840 f i opencv_core230:matop.obj
 0001:0006f840       ??_GMatOp_Initializer@cv@@UAEPAXI@Z 00470840 f i opencv_core230:matop.obj
 0001:0006f840       ??_GMatOp_Bin@cv@@UAEPAXI@Z 00470840 f i opencv_core230:matop.obj
 0001:0006f840       ??_GMatOp_AddEx@cv@@UAEPAXI@Z 00470840 f i opencv_core230:matop.obj
 0001:0006f840       ??_EMatOp@cv@@UAEPAXI@Z    00470840 f i opencv_core230:matop.obj
 0001:0006f840       ??_EMatOp_Initializer@cv@@UAEPAXI@Z 00470840 f i opencv_core230:matop.obj
 0001:0006f840       ??_EMatOp_Solve@cv@@UAEPAXI@Z 00470840 f i opencv_core230:matop.obj
 0001:0006f840       ??_EMatOp_Bin@cv@@UAEPAXI@Z 00470840 f i opencv_core230:matop.obj
 0001:0006f840       ??_GMatOp@cv@@UAEPAXI@Z    00470840 f i opencv_core230:matop.obj
 0001:0006f870       ?type@MatExpr@cv@@QBEHXZ   00470870 f   opencv_core230:matop.obj
 0001:0006f8a0       ??RMat@cv@@QBE?AV01@VRange@1@0@Z 004708a0 f i opencv_core230:matop.obj
 0001:0006fa10       ??1MatExpr@cv@@QAE@XZ      00470a10 f i opencv_core230:matop.obj
 0001:0006fb30       ??4MatExpr@cv@@QAEAAV01@ABV01@@Z 00470b30 f i opencv_core230:matop.obj
 0001:0006fbd0       ?augAssignAdd@MatOp@cv@@UBEXABVMatExpr@2@AAVMat@2@@Z 00470bd0 f   opencv_core230:matop.obj
 0001:0006fcf0       ?augAssignSubtract@MatOp@cv@@UBEXABVMatExpr@2@AAVMat@2@@Z 00470cf0 f   opencv_core230:matop.obj
 0001:0006fe10       ?augAssignMultiply@MatOp@cv@@UBEXABVMatExpr@2@AAVMat@2@@Z 00470e10 f   opencv_core230:matop.obj
 0001:0006ff00       ?augAssignDivide@MatOp@cv@@UBEXABVMatExpr@2@AAVMat@2@@Z 00470f00 f   opencv_core230:matop.obj
 0001:0006ff00       ?augAssignXor@MatOp@cv@@UBEXABVMatExpr@2@AAVMat@2@@Z 00470f00 f   opencv_core230:matop.obj
 0001:00070030       ?augAssignAnd@MatOp@cv@@UBEXABVMatExpr@2@AAVMat@2@@Z 00471030 f   opencv_core230:matop.obj
 0001:00070150       ?augAssignOr@MatOp@cv@@UBEXABVMatExpr@2@AAVMat@2@@Z 00471150 f   opencv_core230:matop.obj
 0001:00070270       ?size@MatExpr@cv@@QBE?AV?$Size_@H@2@XZ 00471270 f   opencv_core230:matop.obj
 0001:00070340       ?add@MatOp_AddEx@cv@@UBEXABVMatExpr@2@ABV?$Scalar_@N@2@AAV32@@Z 00471340 f   opencv_core230:matop.obj
 0001:000703b0       ?multiply@MatOp_AddEx@cv@@UBEXABVMatExpr@2@NAAV32@@Z 004713b0 f   opencv_core230:matop.obj
 0001:00070440       ?assign@MatOp_Cmp@cv@@UBEXABVMatExpr@2@AAVMat@2@H@Z 00471440 f   opencv_core230:matop.obj
 0001:000705e0       ?assign@MatOp_T@cv@@UBEXABVMatExpr@2@AAVMat@2@H@Z 004715e0 f   opencv_core230:matop.obj
 0001:00070740       ?assign@MatOp_GEMM@cv@@UBEXABVMatExpr@2@AAVMat@2@H@Z 00471740 f   opencv_core230:matop.obj
 0001:000708e0       ?multiply@MatOp_GEMM@cv@@UBEXABVMatExpr@2@NAAV32@@Z 004718e0 f   opencv_core230:matop.obj
 0001:00070920       ?transpose@MatOp_GEMM@cv@@UBEXABVMatExpr@2@AAV32@@Z 00471920 f   opencv_core230:matop.obj
 0001:00070950       ?assign@MatOp_Invert@cv@@UBEXABVMatExpr@2@AAVMat@2@H@Z 00471950 f   opencv_core230:matop.obj
 0001:00070aa0       ?assign@MatOp_Solve@cv@@UBEXABVMatExpr@2@AAVMat@2@H@Z 00471aa0 f   opencv_core230:matop.obj
 0001:00070c10       ?multiply@MatOp_T@cv@@UBEXABVMatExpr@2@NAAV32@@Z 00471c10 f   opencv_core230:matop.obj
 0001:00070c10       ?multiply@MatOp_Initializer@cv@@UBEXABVMatExpr@2@NAAV32@@Z 00471c10 f   opencv_core230:matop.obj
 0001:00070ce0       ?size@MatOp@cv@@UBE?AV?$Size_@H@2@ABVMatExpr@2@@Z 00471ce0 f   opencv_core230:matop.obj
 0001:00070da0       ?type@MatOp@cv@@UBEHABVMatExpr@2@@Z 00471da0 f   opencv_core230:matop.obj
 0001:00070e40       ?assign@MatOp_AddEx@cv@@UBEXABVMatExpr@2@AAVMat@2@H@Z 00471e40 f   opencv_core230:matop.obj
 0001:000714e0       ??0MatExpr@cv@@QAE@PBVMatOp@1@HABVMat@1@11NNABV?$Scalar_@N@1@@Z 004724e0 f i opencv_core230:matop.obj
 0001:000715a0       ?roi@MatOp@cv@@UBEXABVMatExpr@2@ABVRange@2@1AAV32@@Z 004725a0 f   opencv_core230:matop.obj
 0001:00071c90       ?diag@MatOp@cv@@UBEXABVMatExpr@2@HAAV32@@Z 00472c90 f   opencv_core230:matop.obj
 0001:00072330       ?makeExpr@MatOp_Identity@cv@@SAXAAVMatExpr@2@ABVMat@2@@Z 00473330 f i opencv_core230:matop.obj
 0001:00072520       ?subtract@MatOp_AddEx@cv@@UBEXABV?$Scalar_@N@2@ABVMatExpr@2@AAV42@@Z 00473520 f   opencv_core230:matop.obj
 0001:000725e0       ?makeExpr@MatOp_AddEx@cv@@SAXAAVMatExpr@2@ABVMat@2@1NNABV?$Scalar_@N@2@@Z 004735e0 f i opencv_core230:matop.obj
 0001:00072700       ?makeExpr@MatOp_Bin@cv@@SAXAAVMatExpr@2@DABVMat@2@1N@Z 00473700 f i opencv_core230:matop.obj
 0001:00072860       ?makeExpr@MatOp_Bin@cv@@SAXAAVMatExpr@2@DABVMat@2@ABV?$Scalar_@N@2@@Z 00473860 f i opencv_core230:matop.obj
 0001:00072a60       ?transpose@MatOp_T@cv@@UBEXABVMatExpr@2@AAV32@@Z 00473a60 f   opencv_core230:matop.obj
 0001:00072b90       ?makeExpr@MatOp_T@cv@@SAXAAVMatExpr@2@ABVMat@2@N@Z 00473b90 f i opencv_core230:matop.obj
 0001:00072d70       ?makeExpr@MatOp_GEMM@cv@@SAXAAVMatExpr@2@HABVMat@2@1N1N@Z 00473d70 f i opencv_core230:matop.obj
 0001:00072e40       ?makeExpr@MatOp_Invert@cv@@SAXAAVMatExpr@2@HABVMat@2@@Z 00473e40 f i opencv_core230:matop.obj
 0001:00073030       ?makeExpr@MatOp_Solve@cv@@SAXAAVMatExpr@2@HABVMat@2@1@Z 00474030 f i opencv_core230:matop.obj
 0001:00073190       ?add@MatOp@cv@@UBEXABVMatExpr@2@0AAV32@@Z 00474190 f   opencv_core230:matop.obj
 0001:000734b0       ?add@MatOp@cv@@UBEXABVMatExpr@2@ABV?$Scalar_@N@2@AAV32@@Z 004744b0 f   opencv_core230:matop.obj
 0001:00073640       ?subtract@MatOp@cv@@UBEXABVMatExpr@2@0AAV32@@Z 00474640 f   opencv_core230:matop.obj
 0001:00073970       ?subtract@MatOp@cv@@UBEXABV?$Scalar_@N@2@ABVMatExpr@2@AAV42@@Z 00474970 f   opencv_core230:matop.obj
 0001:00073b00       ?multiply@MatOp@cv@@UBEXABVMatExpr@2@0AAV32@N@Z 00474b00 f   opencv_core230:matop.obj
 0001:00073df0       ?multiply@MatOp@cv@@UBEXABVMatExpr@2@NAAV32@@Z 00474df0 f   opencv_core230:matop.obj
 0001:00073fa0       ?divide@MatOp@cv@@UBEXABVMatExpr@2@0AAV32@N@Z 00474fa0 f   opencv_core230:matop.obj
 0001:00074290       ?divide@MatOp@cv@@UBEXNABVMatExpr@2@AAV32@@Z 00475290 f   opencv_core230:matop.obj
 0001:00074410       ?abs@MatOp@cv@@UBEXABVMatExpr@2@AAV32@@Z 00475410 f   opencv_core230:matop.obj
 0001:00074590       ?transpose@MatOp@cv@@UBEXABVMatExpr@2@AAV32@@Z 00475590 f   opencv_core230:matop.obj
 0001:00074690       ?matmul@MatOp@cv@@UBEXABVMatExpr@2@0AAV32@@Z 00475690 f   opencv_core230:matop.obj
 0001:000749f0       ?invert@MatOp@cv@@UBEXABVMatExpr@2@HAAV32@@Z 004759f0 f   opencv_core230:matop.obj
 0001:00074ae0       ?divide@MatOp_AddEx@cv@@UBEXNABVMatExpr@2@AAV32@@Z 00475ae0 f   opencv_core230:matop.obj
 0001:00074c00       ?transpose@MatOp_AddEx@cv@@UBEXABVMatExpr@2@AAV32@@Z 00475c00 f   opencv_core230:matop.obj
 0001:00074c50       ?abs@MatOp_AddEx@cv@@UBEXABVMatExpr@2@AAV32@@Z 00475c50 f   opencv_core230:matop.obj
 0001:00074dc0       ?multiply@MatOp_Bin@cv@@UBEXABVMatExpr@2@NAAV32@@Z 00475dc0 f   opencv_core230:matop.obj
 0001:00074e20       ?divide@MatOp_Bin@cv@@UBEXNABVMatExpr@2@AAV32@@Z 00475e20 f   opencv_core230:matop.obj
 0001:00074f70       ?add@MatOp_GEMM@cv@@UBEXABVMatExpr@2@0AAV32@@Z 00475f70 f   opencv_core230:matop.obj
 0001:00075110       ?subtract@MatOp_GEMM@cv@@UBEXABVMatExpr@2@0AAV32@@Z 00476110 f   opencv_core230:matop.obj
 0001:000752c0       ?matmul@MatOp_Invert@cv@@UBEXABVMatExpr@2@0AAV32@@Z 004762c0 f   opencv_core230:matop.obj
 0001:00075330       ?assign@MatOp_Identity@cv@@UBEXABVMatExpr@2@AAVMat@2@H@Z 00476330 f   opencv_core230:matop.obj
 0001:00075500       ?assign@MatOp_Bin@cv@@UBEXABVMatExpr@2@AAVMat@2@H@Z 00476500 f   opencv_core230:matop.obj
 0001:00075b20       ?assign@MatOp_Initializer@cv@@UBEXABVMatExpr@2@AAVMat@2@H@Z 00476b20 f   opencv_core230:matop.obj
 0001:00075d70       ?getConvertFunc@cv@@YAP6AXPBEI0IPAEIV?$Size_@H@1@PAX@ZHH@Z 00476d70 f   opencv_core230:convert.obj
 0001:00082400       ?mixChannels@cv@@YAXPBVMat@1@IPAV21@IPBHI@Z 00483400 f   opencv_core230:convert.obj
 0001:00082c90       ?convertTo@Mat@cv@@QBEXABV_OutputArray@2@HNN@Z 00483c90 f   opencv_core230:convert.obj
 0001:0008b8e0       ??$normL1_@EH@cv@@YAHPBE0PAHHH@Z 0048c8e0 f i opencv_core230:stat.obj
 0001:0008b9f0       ??$normDiffL1_@EH@cv@@YAHPBE00PAHHH@Z 0048c9f0 f i opencv_core230:stat.obj
 0001:0008bb60       ??$normL2_@EH@cv@@YAHPBE0PAHHH@Z 0048cb60 f i opencv_core230:stat.obj
 0001:0008bc60       ??$normDiffL2_@EH@cv@@YAHPBE00PAHHH@Z 0048cc60 f i opencv_core230:stat.obj
 0001:0008bda0       ??$normL1_@CH@cv@@YAHPBCPBEPAHHH@Z 0048cda0 f i opencv_core230:stat.obj
 0001:0008beb0       ??$normDiffL1_@CH@cv@@YAHPBC0PBEPAHHH@Z 0048ceb0 f i opencv_core230:stat.obj
 0001:0008c020       ??$normL2_@CH@cv@@YAHPBCPBEPAHHH@Z 0048d020 f i opencv_core230:stat.obj
 0001:0008c120       ??$normDiffL2_@CH@cv@@YAHPBC0PBEPAHHH@Z 0048d120 f i opencv_core230:stat.obj
 0001:0008c260       ??$normL1_@GH@cv@@YAHPBGPBEPAHHH@Z 0048d260 f i opencv_core230:stat.obj
 0001:0008c370       ??$normDiffL1_@GH@cv@@YAHPBG0PBEPAHHH@Z 0048d370 f i opencv_core230:stat.obj
 0001:0008c4f0       ??$normL2_@GN@cv@@YAHPBGPBEPANHH@Z 0048d4f0 f i opencv_core230:stat.obj
 0001:0008c690       ??$normDiffL2_@GN@cv@@YAHPBG0PBEPANHH@Z 0048d690 f i opencv_core230:stat.obj
 0001:0008c8e0       ??$normL1_@FH@cv@@YAHPBFPBEPAHHH@Z 0048d8e0 f i opencv_core230:stat.obj
 0001:0008c9f0       ??$normDiffL1_@FH@cv@@YAHPBF0PBEPAHHH@Z 0048d9f0 f i opencv_core230:stat.obj
 0001:0008cb70       ??$normL2_@FN@cv@@YAHPBFPBEPANHH@Z 0048db70 f i opencv_core230:stat.obj
 0001:0008cd30       ??$normDiffL2_@FN@cv@@YAHPBF0PBEPANHH@Z 0048dd30 f i opencv_core230:stat.obj
 0001:0008cf80       ??$normL1_@HN@cv@@YAHPBHPBEPANHH@Z 0048df80 f i opencv_core230:stat.obj
 0001:0008d130       ??$normDiffL1_@HN@cv@@YAHPBH0PBEPANHH@Z 0048e130 f i opencv_core230:stat.obj
 0001:0008d340       ??$normL2_@HN@cv@@YAHPBHPBEPANHH@Z 0048e340 f i opencv_core230:stat.obj
 0001:0008d4d0       ??$normDiffL2_@HN@cv@@YAHPBH0PBEPANHH@Z 0048e4d0 f i opencv_core230:stat.obj
 0001:0008d6c0       ??$normL1_@MN@cv@@YAHPBMPBEPANHH@Z 0048e6c0 f i opencv_core230:stat.obj
 0001:0008d8b0       ??$normDiffL1_@MN@cv@@YAHPBM0PBEPANHH@Z 0048e8b0 f i opencv_core230:stat.obj
 0001:0008dbc0       ??$normL2_@MN@cv@@YAHPBMPBEPANHH@Z 0048ebc0 f i opencv_core230:stat.obj
 0001:0008dd50       ??$normDiffL2_@MN@cv@@YAHPBM0PBEPANHH@Z 0048ed50 f i opencv_core230:stat.obj
 0001:0008dfa0       ??$normInf_@NN@cv@@YAHPBNPBEPANHH@Z 0048efa0 f i opencv_core230:stat.obj
 0001:0008e210       ??$normDiffInf_@NN@cv@@YAHPBN0PBEPANHH@Z 0048f210 f i opencv_core230:stat.obj
 0001:0008e4f0       ??$normL1_@NN@cv@@YAHPBNPBEPANHH@Z 0048f4f0 f i opencv_core230:stat.obj
 0001:0008e650       ??$normDiffL1_@NN@cv@@YAHPBN0PBEPANHH@Z 0048f650 f i opencv_core230:stat.obj
 0001:0008e840       ??$normL2_@NN@cv@@YAHPBNPBEPANHH@Z 0048f840 f i opencv_core230:stat.obj
 0001:0008e980       ??$normDiffL2_@NN@cv@@YAHPBN0PBEPANHH@Z 0048f980 f i opencv_core230:stat.obj
 0001:0008f080       ??$normInf_@EH@cv@@YAHPBE0PAHHH@Z 00490080 f i opencv_core230:stat.obj
 0001:0008f140       ??$normDiffInf_@EH@cv@@YAHPBE00PAHHH@Z 00490140 f i opencv_core230:stat.obj
 0001:0008f220       ??$normInf_@CH@cv@@YAHPBCPBEPAHHH@Z 00490220 f i opencv_core230:stat.obj
 0001:0008f2e0       ??$normDiffInf_@CH@cv@@YAHPBC0PBEPAHHH@Z 004902e0 f i opencv_core230:stat.obj
 0001:0008f3c0       ??$normInf_@GH@cv@@YAHPBGPBEPAHHH@Z 004903c0 f i opencv_core230:stat.obj
 0001:0008f480       ??$normDiffInf_@GH@cv@@YAHPBG0PBEPAHHH@Z 00490480 f i opencv_core230:stat.obj
 0001:0008f560       ??$normInf_@FH@cv@@YAHPBFPBEPAHHH@Z 00490560 f i opencv_core230:stat.obj
 0001:0008f620       ??$normDiffInf_@FH@cv@@YAHPBF0PBEPAHHH@Z 00490620 f i opencv_core230:stat.obj
 0001:0008f700       ??$normInf_@HH@cv@@YAHPBHPBEPAHHH@Z 00490700 f i opencv_core230:stat.obj
 0001:0008f7d0       ??$normDiffInf_@HH@cv@@YAHPBH0PBEPAHHH@Z 004907d0 f i opencv_core230:stat.obj
 0001:0008f8b0       ??$normInf_@MM@cv@@YAHPBMPBEPAMHH@Z 004908b0 f i opencv_core230:stat.obj
 0001:0008fbb0       ??$normDiffInf_@MM@cv@@YAHPBM0PBEPAMHH@Z 00490bb0 f i opencv_core230:stat.obj
 0001:00090080       _cvGetSeqElem              00491080 f   opencv_core230:datastructs.obj
 0001:00090260       _cvCreateMemStorage        00491260 f   opencv_core230:datastructs.obj
 0001:00090450       _cvReleaseMemStorage       00491450 f   opencv_core230:datastructs.obj
 0001:000905b0       _cvSaveMemStoragePos       004915b0 f   opencv_core230:datastructs.obj
 0001:00090700       _cvRestoreMemStoragePos    00491700 f   opencv_core230:datastructs.obj
 0001:00090970       _cvSetSeqBlockSize         00491970 f   opencv_core230:datastructs.obj
 0001:00090d20       _cvStartReadSeq            00491d20 f   opencv_core230:datastructs.obj
 0001:00090ef0       _cvChangeSeqBlock          00491ef0 f   opencv_core230:datastructs.obj
 0001:00091070       _cvGetSeqReaderPos         00492070 f   opencv_core230:datastructs.obj
 0001:000911e0       _cvSetSeqReaderPos         004921e0 f   opencv_core230:datastructs.obj
 0001:000915d0       _cvSeqPopMulti             004925d0 f   opencv_core230:datastructs.obj
 0001:00091a10       _cvClearSeq                00492a10 f   opencv_core230:datastructs.obj
 0001:00091b70       _cvSeqSort                 00492b70 f   opencv_core230:datastructs.obj
 0001:000931e0       _cvClearSet                004941e0 f   opencv_core230:datastructs.obj
 0001:00093200       _cvFindGraphEdgeByPtr      00494200 f   opencv_core230:datastructs.obj
 0001:00093390       _cvInitTreeNodeIterator    00494390 f   opencv_core230:datastructs.obj
 0001:000935e0       _cvNextTreeNode            004945e0 f   opencv_core230:datastructs.obj
 0001:00093950       _cvMemStorageAlloc         00494950 f   opencv_core230:datastructs.obj
 0001:00093cd0       _cvCreateSeq               00494cd0 f   opencv_core230:datastructs.obj
 0001:00094040       _cvCvtSeqToArray           00495040 f   opencv_core230:datastructs.obj
 0001:00094660       _cvSeqPush                 00495660 f   opencv_core230:datastructs.obj
 0001:00094800       _cvSeqPushMulti            00495800 f   opencv_core230:datastructs.obj
 0001:00094b70       _cvSeqSlice                00495b70 f   opencv_core230:datastructs.obj
 0001:000950b0       _cvCreateSet               004960b0 f   opencv_core230:datastructs.obj
 0001:00095370       _cvSetAdd                  00496370 f   opencv_core230:datastructs.obj
 0001:00095580       _cvCreateGraph             00496580 f   opencv_core230:datastructs.obj
 0001:00095730       _cvGraphAddVtx             00496730 f   opencv_core230:datastructs.obj
 0001:00095900       _cvGraphAddEdgeByPtr       00496900 f   opencv_core230:datastructs.obj
 0001:00095c70       _cvCloneGraph              00496c70 f   opencv_core230:datastructs.obj
 0001:00099800       ?theRNG@cv@@YAAAVRNG@1@XZ  0049a800 f   opencv_core230:rand.obj
 0001:00099990       _cvAttrValue               0049a990 f   opencv_core230:persistence.obj
 0001:00099e10       _cvFindType                0049ae10 f   opencv_core230:persistence.obj
 0001:00099e70       _cvUnregisterType          0049ae70 f   opencv_core230:persistence.obj
 0001:0009a0b0       _cvGetFileNodeByName       0049b0b0 f   opencv_core230:persistence.obj
 0001:0009b7f0       _cvStartWriteStruct        0049c7f0 f   opencv_core230:persistence.obj
 0001:0009ba90       _cvEndWriteStruct          0049ca90 f   opencv_core230:persistence.obj
 0001:0009bd10       _cvWriteInt                0049cd10 f   opencv_core230:persistence.obj
 0001:0009bfa0       _cvWriteString             0049cfa0 f   opencv_core230:persistence.obj
 0001:0009c970       _cvWriteRawData            0049d970 f   opencv_core230:persistence.obj
 0001:0009d290       _cvStartReadRawData        0049e290 f   opencv_core230:persistence.obj
 0001:0009d5f0       _cvReadRawDataSlice        0049e5f0 f   opencv_core230:persistence.obj
 0001:0009e000       _cvReadRawData             0049f000 f   opencv_core230:persistence.obj
 0001:0009fc40       _cvRegisterType            004a0c40 f   opencv_core230:persistence.obj
 0001:000a0190       _cvRead                    004a1190 f   opencv_core230:persistence.obj
 0001:000a0450       _cvReadIntByName           004a1450 f i opencv_core230:persistence.obj
 0001:000a47b0       ??$vBinOp8@EU?$OpAdd@EEE@cv@@U_VAdd8u@2@@cv@@YAXPBEI0IPAEIV?$Size_@H@0@@Z 004a57b0 f i opencv_core230:arithm.obj
 0001:000a49d0       ??$vBinOp8@EU?$OpSub@EEE@cv@@U_VSub8u@2@@cv@@YAXPBEI0IPAEIV?$Size_@H@0@@Z 004a59d0 f i opencv_core230:arithm.obj
 0001:000a4bf0       ??$vBinOp8@EU?$OpMax@E@cv@@U_VMax8u@2@@cv@@YAXPBEI0IPAEIV?$Size_@H@0@@Z 004a5bf0 f i opencv_core230:arithm.obj
 0001:000a4e20       ??$vBinOp8@EU?$OpMin@E@cv@@U_VMin8u@2@@cv@@YAXPBEI0IPAEIV?$Size_@H@0@@Z 004a5e20 f i opencv_core230:arithm.obj
 0001:000aaa30       ??$vBinOp8@CU?$OpAdd@CCC@cv@@U_VAdd8s@2@@cv@@YAXPBCI0IPACIV?$Size_@H@0@@Z 004aba30 f i opencv_core230:arithm.obj
 0001:000aacc0       ??$vBinOp16@GU?$OpAdd@GGG@cv@@U_VAdd16u@2@@cv@@YAXPBGI0IPAGIV?$Size_@H@0@@Z 004abcc0 f i opencv_core230:arithm.obj
 0001:000aaf50       ??$vBinOp16@FU?$OpAdd@FFF@cv@@U_VAdd16s@2@@cv@@YAXPBFI0IPAFIV?$Size_@H@0@@Z 004abf50 f i opencv_core230:arithm.obj
 0001:000ab220       ??$vBinOp8@CU?$OpSub@CCC@cv@@U_VSub8s@2@@cv@@YAXPBCI0IPACIV?$Size_@H@0@@Z 004ac220 f i opencv_core230:arithm.obj
 0001:000ab4b0       ??$vBinOp16@GU?$OpSub@GGG@cv@@U_VSub16u@2@@cv@@YAXPBGI0IPAGIV?$Size_@H@0@@Z 004ac4b0 f i opencv_core230:arithm.obj
 0001:000ab740       ??$vBinOp16@FU?$OpSub@FFF@cv@@U_VSub16s@2@@cv@@YAXPBFI0IPAFIV?$Size_@H@0@@Z 004ac740 f i opencv_core230:arithm.obj
 0001:000aba10       ??$vBinOp8@EU?$OpAbsDiff@E@cv@@U_VAbsDiff8u@2@@cv@@YAXPBEI0IPAEIV?$Size_@H@0@@Z 004aca10 f i opencv_core230:arithm.obj
 0001:000abc50       ??$vBinOp8@CU?$OpAbsDiff@C@cv@@U_VAbsDiff8s@2@@cv@@YAXPBCI0IPACIV?$Size_@H@0@@Z 004acc50 f i opencv_core230:arithm.obj
 0001:000abf10       ??$vBinOp16@GU?$OpAbsDiff@G@cv@@U_VAbsDiff16u@2@@cv@@YAXPBGI0IPAGIV?$Size_@H@0@@Z 004acf10 f i opencv_core230:arithm.obj
 0001:000ac170       ??$vBinOp16@FU?$OpAbsDiff@F@cv@@U_VAbsDiff16s@2@@cv@@YAXPBFI0IPAFIV?$Size_@H@0@@Z 004ad170 f i opencv_core230:arithm.obj
 0001:000ac4b0       ??$vBinOp32s@U?$OpAbsDiff@H@cv@@U_VAbsDiff32s@2@@cv@@YAXPBHI0IPAHIV?$Size_@H@0@@Z 004ad4b0 f i opencv_core230:arithm.obj
 0001:000ac740       ??$vBinOp32f@U?$OpAbsDiff@M@cv@@U_VAbsDiff32f@2@@cv@@YAXPBMI0IPAMIV?$Size_@H@0@@Z 004ad740 f i opencv_core230:arithm.obj
 0001:000aca20       ??$vBinOp64f@U?$OpAbsDiff@N@cv@@U_VAbsDiff64f@2@@cv@@YAXPBNI0IPANIV?$Size_@H@0@@Z 004ada20 f i opencv_core230:arithm.obj
 0001:000acc20       ??$vBinOp8@EU?$OpAnd@E@cv@@U_VAnd8u@2@@cv@@YAXPBEI0IPAEIV?$Size_@H@0@@Z 004adc20 f i opencv_core230:arithm.obj
 0001:000ace10       ??$vBinOp8@EU?$OpOr@E@cv@@U_VOr8u@2@@cv@@YAXPBEI0IPAEIV?$Size_@H@0@@Z 004ade10 f i opencv_core230:arithm.obj
